
Bicycle_Code.elf:     file format elf32-littleriscv
Bicycle_Code.elf
architecture: riscv:rv32, flags 0x00000112:
EXEC_P, HAS_SYMS, D_PAGED
start address 0x00000000

Program Header:
    LOAD off    0x00001000 vaddr 0x00000000 paddr 0x00000000 align 2**12
         filesz 0x0000ac54 memsz 0x0000ac54 flags r-x
    LOAD off    0x0000c000 vaddr 0x20000000 paddr 0x0000ac54 align 2**12
         filesz 0x00000268 memsz 0x000003dc flags rw-
    LOAD off    0x0000c800 vaddr 0x2000f800 paddr 0x2000f800 align 2**12
         filesz 0x00000000 memsz 0x00000800 flags rw-

Sections:
Idx Name           Size      VMA       LMA       File off  Algn  Flags
  0 .init          00000038  00000000  00000000  00001000  2**1  CONTENTS, ALLOC, LOAD, READONLY, CODE
  1 .vector        000001c8  00000038  00000038  00001038  2**1  CONTENTS, ALLOC, LOAD, READONLY, CODE
  2 .text          0000aa54  00000200  00000200  00001200  2**3  CONTENTS, ALLOC, LOAD, READONLY, CODE
  3 .fini          00000000  0000ac54  0000ac54  0000c268  2**0  CONTENTS, ALLOC, LOAD, CODE
  4 .dalign        00000000  20000000  20000000  0000c268  2**0  CONTENTS
  5 .dlalign       00000000  0000ac54  0000ac54  0000c268  2**0  CONTENTS
  6 .data          00000268  20000000  0000ac54  0000c000  2**2  CONTENTS, ALLOC, LOAD, DATA
  7 .bss           00000174  20000268  0000aebc  0000c268  2**2  ALLOC
  8 .stack         00000800  2000f800  2000f800  0000c800  2**0  ALLOC
  9 .debug_info    0001057c  00000000  00000000  0000c268  2**0  CONTENTS, READONLY, DEBUGGING
 10 .debug_abbrev  00002614  00000000  00000000  0001c7e4  2**0  CONTENTS, READONLY, DEBUGGING
 11 .debug_aranges 00000af8  00000000  00000000  0001edf8  2**3  CONTENTS, READONLY, DEBUGGING
 12 .debug_ranges  000009f0  00000000  00000000  0001f8f0  2**3  CONTENTS, READONLY, DEBUGGING
 13 .debug_line    0000c956  00000000  00000000  000202e0  2**0  CONTENTS, READONLY, DEBUGGING
 14 .debug_str     00004c99  00000000  00000000  0002cc36  2**0  CONTENTS, READONLY, DEBUGGING
 15 .comment       00000033  00000000  00000000  000318cf  2**0  CONTENTS, READONLY
 16 .debug_frame   00004360  00000000  00000000  00031904  2**2  CONTENTS, READONLY, DEBUGGING
 17 .stab          00000084  00000000  00000000  00035c64  2**2  CONTENTS, READONLY, DEBUGGING
 18 .stabstr       00000117  00000000  00000000  00035ce8  2**0  CONTENTS, READONLY, DEBUGGING
SYMBOL TABLE:
00000000 l    d  .init	00000000 .init
00000038 l    d  .vector	00000000 .vector
00000200 l    d  .text	00000000 .text
0000ac54 l    d  .fini	00000000 .fini
20000000 l    d  .dalign	00000000 .dalign
0000ac54 l    d  .dlalign	00000000 .dlalign
20000000 l    d  .data	00000000 .data
20000268 l    d  .bss	00000000 .bss
2000f800 l    d  .stack	00000000 .stack
00000000 l    d  .debug_info	00000000 .debug_info
00000000 l    d  .debug_abbrev	00000000 .debug_abbrev
00000000 l    d  .debug_aranges	00000000 .debug_aranges
00000000 l    d  .debug_ranges	00000000 .debug_ranges
00000000 l    d  .debug_line	00000000 .debug_line
00000000 l    d  .debug_str	00000000 .debug_str
00000000 l    d  .comment	00000000 .comment
00000000 l    d  .debug_frame	00000000 .debug_frame
00000000 l    d  .stab	00000000 .stab
00000000 l    d  .stabstr	00000000 .stabstr
00000000 l    df *ABS*	00000000 ./sdk/Startup/startup_ch32v30x_D8C.o
00000038 l       .vector	00000000 _vector_base
00000000 l    df *ABS*	00000000 zf_driver_gpio.c
00000000 l    df *ABS*	00000000 zf_driver_uart.c
00000000 l    df *ABS*	00000000 zf_device_gps_tau1201.c
20000269 l     O .bss	00000001 gps_tau1201_state
200002a8 l     O .bss	0000001c gps_tau1201_receiver_fifo
200002c4 l     O .bss	00000080 gps_gga_buffer
20000344 l     O .bss	00000080 gps_rmc_buffer
00000000 l    df *ABS*	00000000 zf_device_type.c
00000bc2 l     F .text	0000000e type_default_callback
00000000 l    df *ABS*	00000000 zf_common_clock.c
00000bd0 l     F .text	00000076 clock_reset
00000c46 l     F .text	000001d8 clock_set_freq
00000000 l    df *ABS*	00000000 zf_common_debug.c
00000e48 l     F .text	00000010 __NOP
200003c4 l     O .bss	00000014 debug_output_info
20000274 l     O .bss	00000001 zf_debug_init_flag
20000248 l     O .data	00000001 zf_debug_assert_enable
00000e58 l     F .text	00000052 debug_delay
00000eaa l     F .text	0000000e debug_protective_handler
00000eb8 l     F .text	00000020 debug_uart_str_output
00000ed8 l     F .text	0000052c debug_output
20000275 l     O .bss	00000001 assert_nest_index.5018
00000000 l    df *ABS*	00000000 zf_common_fifo.c
0000160c l     F .text	0000004e fifo_head_offset
0000165a l     F .text	0000004e fifo_end_offset
00000000 l    df *ABS*	00000000 zf_common_interrupt.c
00001db6 l     F .text	00000018 __enable_irq
00001dce l     F .text	00000014 __disable_irq
20000278 l     O .bss	00000004 interrupt_nest_count
00000000 l    df *ABS*	00000000 isr.c
00000000 l    df *ABS*	00000000 main.c
00000000 l    df *ABS*	00000000 ch32v30x_exti.c
00000000 l    df *ABS*	00000000 ch32v30x_gpio.c
00000000 l    df *ABS*	00000000 ch32v30x_rcc.c
20000014 l     O .data	00000010 APBAHBPrescTable
2000024c l     O .data	00000004 ADCPrescTable
00000000 l    df *ABS*	00000000 ch32v30x_tim.c
00000000 l    df *ABS*	00000000 ch32v30x_usart.c
00000000 l    df *ABS*	00000000 ch32v30x_usbotg_device.c
00000000 l    df *ABS*	00000000 adddf3.c
00000000 l    df *ABS*	00000000 divdf3.c
00000000 l    df *ABS*	00000000 eqdf2.c
00000000 l    df *ABS*	00000000 gedf2.c
00000000 l    df *ABS*	00000000 ledf2.c
00000000 l    df *ABS*	00000000 muldf3.c
00000000 l    df *ABS*	00000000 subdf3.c
00000000 l    df *ABS*	00000000 unorddf2.c
00000000 l    df *ABS*	00000000 fixdfsi.c
00000000 l    df *ABS*	00000000 floatsidf.c
00000000 l    df *ABS*	00000000 floatunsidf.c
00000000 l    df *ABS*	00000000 libgcc2.c
00000000 l    df *ABS*	00000000 memcpy.c
00000000 l    df *ABS*	00000000 nano-vfprintf_float.c
00000000 l    df *ABS*	00000000 nano-vfprintf_i.c
00000000 l    df *ABS*	00000000 printf.c
00000000 l    df *ABS*	00000000 sprintf.c
00000000 l    df *ABS*	00000000 strlen.c
00000000 l    df *ABS*	00000000 strncmp.c
00000000 l    df *ABS*	00000000 dtoa.c
0000797a l     F .text	0000013a quorem
00000000 l    df *ABS*	00000000 findfp.c
0000869e l     F .text	0000006a std
00000000 l    df *ABS*	00000000 fwalk.c
00000000 l    df *ABS*	00000000 localeconv.c
00000000 l    df *ABS*	00000000 malloc.c
00000000 l    df *ABS*	00000000 memchr.c
00000000 l    df *ABS*	00000000 mprec.c
0000ab20 l     O .text	0000000c p05.3321
00000000 l    df *ABS*	00000000 nano-mallocr.c
00000000 l    df *ABS*	00000000 nano-mallocr.c
00000000 l    df *ABS*	00000000 nano-mallocr.c
00000000 l    df *ABS*	00000000 nano-vfprintf.c
00000000 l    df *ABS*	00000000 nano-vfprintf.c
00009516 l     F .text	00000028 __sfputc_r
00000000 l    df *ABS*	00000000 sbrkr.c
00000000 l    df *ABS*	00000000 stdio.c
00000000 l    df *ABS*	00000000 wbuf.c
00000000 l    df *ABS*	00000000 writer.c
00000000 l    df *ABS*	00000000 wsetup.c
00000000 l    df *ABS*	00000000 closer.c
00000000 l    df *ABS*	00000000 fflush.c
00000000 l    df *ABS*	00000000 lseekr.c
00000000 l    df *ABS*	00000000 makebuf.c
00000000 l    df *ABS*	00000000 mbtowc_r.c
00000000 l    df *ABS*	00000000 memmove.c
00000000 l    df *ABS*	00000000 mlock.c
00000000 l    df *ABS*	00000000 nano-mallocr.c
00000000 l    df *ABS*	00000000 readr.c
00000000 l    df *ABS*	00000000 wctomb_r.c
00000000 l    df *ABS*	00000000 fstatr.c
00000000 l    df *ABS*	00000000 isattyr.c
00000000 l    df *ABS*	00000000 nano-mallocr.c
00000000 l    df *ABS*	00000000 trunctfdf2.c
00000000 l    df *ABS*	00000000 close.c
00000000 l    df *ABS*	00000000 fstat.c
00000000 l    df *ABS*	00000000 isatty.c
00000000 l    df *ABS*	00000000 lseek.c
00000000 l    df *ABS*	00000000 read.c
00000000 l    df *ABS*	00000000 sbrk.c
200002a4 l     O .bss	00000004 heap_end.1520
00000000 l    df *ABS*	00000000 libgcc2.c
00000000 l    df *ABS*	00000000 locale.c
00000000 l    df *ABS*	00000000 ctype_.c
00000000 l    df *ABS*	00000000 impure.c
20000068 l     O .data	00000060 impure_data
00000000 l    df *ABS*	00000000 reent.c
00009f76 g     F .text	00000014 _malloc_usable_size_r
00006ebe g     F .text	000000ee __cvt
000023f2 g     F .text	00000074 EXTI2_IRQHandler
00002c74  w      .text	00000000 TIM8_TRG_COM_IRQHandler
00002c76  w      .text	00000000 TIM8_CC_IRQHandler
00001480 g     F .text	00000064 debug_assert_handler
000004ba g     F .text	0000005e uart_query_byte
20000296 g     O .bss	00000001 USBHD_Dev_SleepStatus
00009f4e g     F .text	00000028 _isatty_r
00003870 g     F .text	0000003e DevEP1_IN_Deal
00009cd4 g     F .text	0000002c _lseek_r
000021f6 g     F .text	00000080 UART8_IRQHandler
00005882 g     F .text	00000098 .hidden __eqdf2
000078b4 g     F .text	00000042 printf
20000a38 g       .data	00000000 __global_pointer$
00002c50  w      .text	00000000 TIM1_CC_IRQHandler
000098c8 g     F .text	00000036 __sseek
0000875a g     F .text	0000006c __sinit
00009904 g     F .text	000000c2 __swbuf_r
000017e8 g     F .text	000002f0 fifo_write_buffer
00002bea g     F .text	00000008 HardFault_Handler
00008712 g     F .text	00000048 __sfmoreglue
00009e7e g     F .text	00000002 __malloc_unlock
20000238 g     O .data	00000004 camera_uart_handler
0000296a g     F .text	00000078 TIM6_IRQHandler
00002c16  w      .text	00000000 SysTick_Handler
00002c1c  w      .text	00000000 PVD_IRQHandler
00002c7c  w      .text	00000000 SDIO_IRQHandler
00009e32 g     F .text	0000004a memmove
00002cae  w      .text	00000000 TIM9_BRK_IRQHandler
00002cc2  w      .text	00000000 DMA2_Channel8_IRQHandler
00002bda g     F .text	00000010 NMI_Handler
00008910 g     F .text	00000088 _Balloc
00002c9c  w      .text	00000000 CAN2_RX1_IRQHandler
00002466 g     F .text	00000074 EXTI3_IRQHandler
0000591a g     F .text	000000b6 .hidden __gtdf2
00002ca4  w      .text	00000000 USBHS_IRQHandler
000036da g     F .text	00000046 USART_GetFlagStatus
00002cc4  w      .text	00000000 DMA2_Channel9_IRQHandler
00009f24 g     F .text	0000002a _fstat_r
0000a69c g     O .text	00000014 MyReportDescHD
00002cbc  w      .text	00000000 TIM10_CC_IRQHandler
200003d8 g     O .bss	00000004 errno
20000024 g     O .data	00000043 TAB_USB_FS_OSC_DESC
20000268 g       .bss	00000000 _sbss
00000800 g       *ABS*	00000000 __stack_size
00001ad8 g     F .text	000002de fifo_read_buffer
20000297 g     O .bss	00000001 DevConfig
00006e08 g     F .text	000000b6 memcpy
00008708 g     F .text	0000000a _cleanup_r
00009298 g     F .text	0000027e _svfprintf_r
00006cbc g     F .text	00000070 .hidden __floatsidf
000059d0 g     F .text	000000b6 .hidden __ltdf2
0000230a g     F .text	00000074 EXTI0_IRQHandler
00002c5c  w      .text	00000000 I2C2_EV_IRQHandler
00002cba  w      .text	00000000 TIM10_TRG_COM_IRQHandler
2000029a g     O .bss	00000002 SetupReqLen
0000a6cc g     O .text	00000016 MySerNumInfoHD
000088ea g     F .text	0000000c malloc
0000a366 g     F .text	0000000c _fstat
0000aa58 g     O .text	000000c8 __mprec_tens
00000038 g       .init	00000000 _einit
000033ea g     F .text	0000002e TIM_ClearITPendingBit
0000a6e4 g     O .text	0000000a MyUSBQUADescHD
00001e3c g     F .text	00000016 interrupt_init
000032ee g     F .text	00000046 RCC_APB2PeriphClockCmd
00002c9e  w      .text	00000000 CAN2_SCE_IRQHandler
00002c3e  w      .text	00000000 ADC1_2_IRQHandler
00002dc6 g     F .text	0000022a GPIO_Init
00002c14  w      .text	00000000 Break_Point_Handler
20000298 g     O .bss	00000001 SetupReqCode
000088d2 g     F .text	00000018 _localeconv_r
00008b24 g     F .text	0000001c __i2b
00002c60  w      .text	00000000 SPI1_IRQHandler
0000364c g     F .text	00000060 USART_Cmd
00009820 g     F .text	0000002a _sbrk_r
00002c1e  w      .text	00000000 TAMPER_IRQHandler
00009ed8 g     F .text	0000002c _read_r
00003822 g     F .text	0000004e USART_ClearITPendingBit
00002c9a  w      .text	00000000 CAN2_RX0_IRQHandler
00002a62 g     F .text	00000080 TIM8_UP_IRQHandler
00003334 g     F .text	00000046 RCC_APB1PeriphClockCmd
0000468a g     F .text	00000a0e .hidden __adddf3
00002c10  w      .text	00000000 Ecall_M_Mode_Handler
0000a372 g     F .text	0000000c _isatty
20000264 g     O .data	00000004 _global_impure_ptr
20000268 g     O .bss	00000001 gps_tau1201_flag
00009e80 g     F .text	00000058 _realloc_r
00002c8c  w      .text	00000000 DMA2_Channel2_IRQHandler
00002c36  w      .text	00000000 DMA1_Channel4_IRQHandler
0000aa30 g     O .text	00000028 __mprec_bigtens
00006d2c g     F .text	00000066 .hidden __floatunsidf
0000a396 g     F .text	00000020 _sbrk
00008e10 g     F .text	00000032 __mcmp
00002ae2 g     F .text	00000080 TIM9_UP_IRQHandler
00001f5a g     F .text	00000084 USART3_IRQHandler
00002da6 g     F .text	00000020 EXTI_ClearITPendingBit
00002c20  w      .text	00000000 RTC_IRQHandler
200003dc g       .bss	00000000 _ebss
00003720 g     F .text	00000102 USART_GetITStatus
00002c3c  w      .text	00000000 DMA1_Channel7_IRQHandler
0000a6c0 g     O .text	0000000c MyProdInfoHD
00008a74 g     F .text	00000046 __hi0bits
00002c44  w      .text	00000000 CAN1_RX1_IRQHandler
00006be4 g     F .text	000000d8 .hidden __fixdfsi
00002276 g     F .text	00000094 DVP_IRQHandler
00002062 g     F .text	00000086 UART5_IRQHandler
20000290 g     O .bss	00000004 pDescr
0000153e g     F .text	00000088 debug_output_init
20000260 g     O .data	00000004 MyLangDescrHD
20000244 g     O .data	00000004 system_clock
0000286a g     F .text	00000080 TIM4_IRQHandler
000059d0 g     F .text	000000b6 .hidden __ledf2
00002ff0 g     F .text	00000038 GPIO_WriteBit
00000e1e g     F .text	0000002a clock_init
00002c8a  w      .text	00000000 DMA2_Channel1_IRQHandler
00008c84 g     F .text	000000be __pow5mult
0000a9d0 g     O .text	00000020 __sf_fake_stderr
200003dc g       .bss	00000000 end
20000254 g     O .data	00000007 LineCoding
00002c58  w      .text	00000000 I2C1_EV_IRQHandler
000091aa g     F .text	000000ee __ssputs_r
0000337a g     F .text	00000070 TIM_GetITStatus
00003028 g     F .text	000002c6 RCC_GetClocksFreq
00002c3a  w      .text	00000000 DMA1_Channel6_IRQHandler
00006d92 g     F .text	00000076 .hidden __clzsi2
0000953e g     F .text	00000044 __sfputs_r
00000518 g     F .text	000005a2 uart_init
00001fde g     F .text	00000084 UART4_IRQHandler
00002c90  w      .text	00000000 DMA2_Channel4_IRQHandler
000088f6 g     F .text	0000001a memchr
00007038  w    F .text	000004c4 _printf_float
00003418 g     F .text	00000234 USART_Init
0000902e g     F .text	000000a8 _free_r
000027ea g     F .text	00000080 TIM3_IRQHandler
00002c24  w      .text	00000000 RCC_IRQHandler
00002c4e  w      .text	00000000 TIM1_TRG_COM_IRQHandler
00002c30  w      .text	00000000 DMA1_Channel1_IRQHandler
00000000 g       .init	00000000 _start
00002cc0  w      .text	00000000 DMA2_Channel7_IRQHandler
0000a37e g     F .text	0000000c _lseek
00008d42 g     F .text	000000ce __lshift
00002626 g     F .text	000000cc EXTI15_10_IRQHandler
0000794e g     F .text	0000002c strncmp
2000028c g     O .bss	00000004 pEP2_RAM_Addr
20000240 g     O .data	00000004 wireless_module_uart_handler
00008b40 g     F .text	00000144 __multiply
00008f34 g     F .text	000000d4 __d2b
000029e2 g     F .text	00000080 TIM7_IRQHandler
00009b04 g     F .text	0000002a _close_r
00002c98  w      .text	00000000 CAN2_TX_IRQHandler
20000000 g       .dalign	00000000 _data_vma
000028ea g     F .text	00000080 TIM5_IRQHandler
00003950 g     F .text	00000064 DevEP2_OUT_Deal
000099f4 g     F .text	00000110 __swsetup_r
0000254e g     F .text	000000d8 EXTI9_5_IRQHandler
00005098 g     F .text	000007ea .hidden __divdf3
000087c6 g     F .text	000000a0 __sfp
00005a86 g     F .text	00000656 .hidden __muldf3
0000984a g     F .text	00000030 __sread
00002c96  w      .text	00000000 ETH_WKUP_IRQHandler
000038ec g     F .text	00000064 DevEP1_OUT_Deal
00009e7c g     F .text	00000002 __malloc_lock
00009c6c g     F .text	00000068 _fflush_r
00009008 g     F .text	00000026 _calloc_r
00002d50 g     F .text	00000056 EXTI_GetITStatus
20000284 g     O .bss	00000004 pEP0_RAM_Addr
00002c62  w      .text	00000000 SPI2_IRQHandler
0000a9f0 g     O .text	00000020 __sf_fake_stdin
0000a644 g     O .text	00000012 MyDevDescrHD
00000200 g     F .text	000000a8 memset
20000270 g     O .bss	00000004 gps_rmc_state
00002bf2 g     F .text	0000001a main
00002cb6  w      .text	00000000 TIM10_BRK_IRQHandler
00002cb4  w      .text	00000000 TIM9_CC_IRQHandler
000098fe g     F .text	00000006 __sclose
00002c92  w      .text	00000000 DMA2_Channel5_IRQHandler
20000250 g     O .data	00000001 USBHD_Dev_Speed
00007ab4 g     F .text	00000bea _dtoa_r
000090d6 g     F .text	000000d4 _malloc_r
00009f04 g     F .text	00000020 __ascii_wctomb
0000a6b0 g     O .text	0000000e MyManuInfoHD
00002c38  w      .text	00000000 DMA1_Channel5_IRQHandler
0000a624 g     O .text	00000020 uart_index
000024da g     F .text	00000074 EXTI4_IRQHandler
00002c42  w      .text	00000000 USB_LP_CAN1_RX0_IRQHandler
000015c6 g     F .text	00000046 debug_init
00002c78  w      .text	00000000 RNG_IRQHandler
00005882 g     F .text	00000098 .hidden __nedf2
000078b4 g     F .text	00000042 iprintf
2000027c g     O .bss	00000008 EP0_DatabufHD
00002c40  w      .text	00000000 USB_HP_CAN1_TX_IRQHandler
000078f6 g     F .text	00000046 sprintf
0000a82c g     O .text	00000100 .hidden __clz_tab
00006fac g     F .text	0000008c __exponent
00000000 g       .init	00000000 _sinit
000038ae g     F .text	0000003e DevEP2_IN_Deal
000099c6 g     F .text	0000002e _write_r
00002c34  w      .text	00000000 DMA1_Channel3_IRQHandler
00002c7a  w      .text	00000000 FSMC_IRQHandler
00002c94  w      .text	00000000 ETH_IRQHandler
000074fc g     F .text	0000010c _printf_common
2000025c g     O .data	00000004 _impure_ptr
000026f2 g     F .text	00000080 TIM1_UP_IRQHandler
00009b2e g     F .text	0000013e __sflush_r
00009298 g     F .text	0000027e _svfiprintf_r
00002c1a  w      .text	00000000 WWDG_IRQHandler
00002ca2  w      .text	00000000 USBHSWakeup_IRQHandler
00002cc8  w      .text	00000000 DMA2_Channel11_IRQHandler
00009df8 g     F .text	0000003a __ascii_mbtowc
00002c12  w      .text	00000000 Ecall_U_Mode_Handler
000014e4 g     F .text	0000005a debug_output_struct_init
00002cbe  w      .text	00000000 DMA2_Channel6_IRQHandler
00002772 g     F .text	00000078 TIM2_IRQHandler
20010000 g       .stack	00000000 _eusrstack
00002c18  w      .text	00000000 SW_Handler
00000aba g     F .text	00000108 gps_uart_callback
0000a658 g     O .text	00000043 MyCfgDescrHD
00002c4a  w      .text	00000000 TIM1_BRK_IRQHandler
00009d00 g     F .text	00000058 __swhatbuf_r
000036ac g     F .text	0000002e USART_SendData
00002cc6  w      .text	00000000 DMA2_Channel10_IRQHandler
0000237e g     F .text	00000074 EXTI1_IRQHandler
00001404 g     F .text	0000007c _write
20000268 g       .data	00000000 _edata
20000294 g     O .bss	00000002 USBHD_Dev_SetupReqLen
00002c6c  w      .text	00000000 RTCAlarm_IRQHandler
0000ac54 g       .dlalign	00000000 _data_lma
00002b62 g     F .text	00000078 TIM10_UP_IRQHandler
00002cb2  w      .text	00000000 TIM9_TRG_COM_IRQHandler
0000216c g     F .text	0000008a UART7_IRQHandler
00001ed6 g     F .text	00000084 USART2_IRQHandler
000020e8 g     F .text	00000084 UART6_IRQHandler
0000987a g     F .text	0000004e __swrite
2000026c g     O .bss	00000004 gps_gga_state
00009582 g     F .text	0000029e _vfiprintf_r
00008866 g     F .text	0000006c _fwalk_reent
00008e42 g     F .text	000000f2 __mdiff
000016a8 g     F .text	000000fe fifo_clear
00001de2 g     F .text	00000030 interrupt_global_enable
00002c5e  w      .text	00000000 I2C2_ER_IRQHandler
00002c32  w      .text	00000000 DMA1_Channel2_IRQHandler
0000aa10 g     O .text	00000020 __sf_fake_stdout
000078f6 g     F .text	00000046 siprintf
00002c70  w      .text	00000000 TIM8_BRK_IRQHandler
0000ab50 g     O .text	00000101 _ctype_
0000a38a g     F .text	0000000c _read
00006b68 g     F .text	0000007c .hidden __unorddf2
00002cca  w      .text	00000000 handle_reset
00002c46  w      .text	00000000 CAN1_SCE_IRQHandler
20000000 g     O .data	00000014 gpio_group
00002c22  w      .text	00000000 FLASH_IRQHandler
00001e52 g     F .text	00000084 USART1_IRQHandler
00009d58 g     F .text	000000a0 __smakebuf_r
0000045a g     F .text	00000060 uart_write_string
0000793c g     F .text	00000012 strlen
000039b4 g     F .text	00000cd6 OTG_FS_IRQHandler
00007608 g     F .text	000002ac _printf_i
00002c80  w      .text	00000000 SPI3_IRQHandler
2000023c g     O .data	00000004 camera_dvp_handler
000017a6 g     F .text	00000042 fifo_used
0000591a g     F .text	000000b6 .hidden __gedf2
200002a0 g     O .bss	00000004 __malloc_sbrk_start
00002c5a  w      .text	00000000 I2C1_ER_IRQHandler
000002a8 g     F .text	0000015c gpio_init
2000029c g     O .bss	00000004 __malloc_free_list
000060dc g     F .text	00000a8c .hidden __subdf3
00009582 g     F .text	0000029e _vfprintf_r
00008aba g     F .text	0000006a __lo0bits
20000288 g     O .bss	00000004 pEP1_RAM_Addr
200000c8 g     O .data	0000016c __global_locale
00002c6e  w      .text	00000000 USBWakeUp_IRQHandler
00009f8a g     F .text	000003d0 .hidden __trunctfdf2
0000a35a g     F .text	0000000c _close
00002c8e  w      .text	00000000 DMA2_Channel3_IRQHandler
000089dc g     F .text	00000098 __multadd
00001e12 g     F .text	0000002a interrupt_global_disable
00008998 g     F .text	00000044 _Bfree
00000404 g     F .text	00000056 uart_write_byte



Disassembly of section .init:

00000000 <_sinit>:
_start():
C:/Users/86152/Desktop/单车越野/我的/代码调试/Bicycle_Code/libraries/sdk/Startup/startup_ch32v30x_D8C.S:15

	.section	.init,"ax",@progbits
	.global	_start
	.align	1
_start:
	j	handle_reset
   0:	4cb0206f          	j	2cca <handle_reset>
   4:	00000013          	nop
   8:	00000013          	nop
   c:	00000013          	nop
  10:	00000013          	nop
  14:	00000013          	nop
  18:	00000013          	nop
  1c:	00000013          	nop
  20:	00000013          	nop
  24:	00000013          	nop
  28:	00000013          	nop
  2c:	00000013          	nop
  30:	00000013          	nop
  34:	00100073          	ebreak

Disassembly of section .vector:

00000038 <_vector_base>:
	...
_vector_base():
  40:	2bda                	fld	fs7,400(sp)
  42:	0000                	unimp
  44:	2bea                	fld	fs7,152(sp)
  46:	0000                	unimp
  48:	0000                	unimp
  4a:	0000                	unimp
  4c:	2c10                	fld	fa2,24(s0)
	...
  56:	0000                	unimp
  58:	2c12                	fld	fs8,256(sp)
  5a:	0000                	unimp
  5c:	2c14                	fld	fa3,24(s0)
	...
  66:	0000                	unimp
  68:	2c16                	fld	fs8,320(sp)
  6a:	0000                	unimp
  6c:	0000                	unimp
  6e:	0000                	unimp
  70:	2c18                	fld	fa4,24(s0)
  72:	0000                	unimp
  74:	0000                	unimp
  76:	0000                	unimp
  78:	2c1a                	fld	fs8,384(sp)
  7a:	0000                	unimp
  7c:	2c1c                	fld	fa5,24(s0)
  7e:	0000                	unimp
  80:	2c1e                	fld	fs8,448(sp)
  82:	0000                	unimp
  84:	2c20                	fld	fs0,88(s0)
  86:	0000                	unimp
  88:	2c22                	fld	fs8,8(sp)
  8a:	0000                	unimp
  8c:	2c24                	fld	fs1,88(s0)
  8e:	0000                	unimp
  90:	230a                	fld	ft6,128(sp)
  92:	0000                	unimp
  94:	237e                	fld	ft6,472(sp)
  96:	0000                	unimp
  98:	23f2                	fld	ft7,280(sp)
  9a:	0000                	unimp
  9c:	2466                	fld	fs0,88(sp)
  9e:	0000                	unimp
  a0:	24da                	fld	fs1,400(sp)
  a2:	0000                	unimp
  a4:	2c30                	fld	fa2,88(s0)
  a6:	0000                	unimp
  a8:	2c32                	fld	fs8,264(sp)
  aa:	0000                	unimp
  ac:	2c34                	fld	fa3,88(s0)
  ae:	0000                	unimp
  b0:	2c36                	fld	fs8,328(sp)
  b2:	0000                	unimp
  b4:	2c38                	fld	fa4,88(s0)
  b6:	0000                	unimp
  b8:	2c3a                	fld	fs8,392(sp)
  ba:	0000                	unimp
  bc:	2c3c                	fld	fa5,88(s0)
  be:	0000                	unimp
  c0:	2c3e                	fld	fs8,456(sp)
  c2:	0000                	unimp
  c4:	2c40                	fld	fs0,152(s0)
  c6:	0000                	unimp
  c8:	2c42                	fld	fs8,16(sp)
  ca:	0000                	unimp
  cc:	2c44                	fld	fs1,152(s0)
  ce:	0000                	unimp
  d0:	2c46                	fld	fs8,80(sp)
  d2:	0000                	unimp
  d4:	254e                	fld	fa0,208(sp)
  d6:	0000                	unimp
  d8:	2c4a                	fld	fs8,144(sp)
  da:	0000                	unimp
  dc:	26f2                	fld	fa3,280(sp)
  de:	0000                	unimp
  e0:	2c4e                	fld	fs8,208(sp)
  e2:	0000                	unimp
  e4:	2c50                	fld	fa2,152(s0)
  e6:	0000                	unimp
  e8:	2772                	fld	fa4,280(sp)
  ea:	0000                	unimp
  ec:	27ea                	fld	fa5,152(sp)
  ee:	0000                	unimp
  f0:	286a                	fld	fa6,152(sp)
  f2:	0000                	unimp
  f4:	2c58                	fld	fa4,152(s0)
  f6:	0000                	unimp
  f8:	2c5a                	fld	fs8,400(sp)
  fa:	0000                	unimp
  fc:	2c5c                	fld	fa5,152(s0)
  fe:	0000                	unimp
 100:	2c5e                	fld	fs8,464(sp)
 102:	0000                	unimp
 104:	2c60                	fld	fs0,216(s0)
 106:	0000                	unimp
 108:	2c62                	fld	fs8,24(sp)
 10a:	0000                	unimp
 10c:	1e52                	slli	t3,t3,0x34
 10e:	0000                	unimp
 110:	1ed6                	slli	t4,t4,0x35
 112:	0000                	unimp
 114:	1f5a                	slli	t5,t5,0x36
 116:	0000                	unimp
 118:	2626                	fld	fa2,72(sp)
 11a:	0000                	unimp
 11c:	2c6c                	fld	fa1,216(s0)
 11e:	0000                	unimp
 120:	2c6e                	fld	fs8,216(sp)
 122:	0000                	unimp
 124:	2c70                	fld	fa2,216(s0)
 126:	0000                	unimp
 128:	2a62                	fld	fs4,24(sp)
 12a:	0000                	unimp
 12c:	2c74                	fld	fa3,216(s0)
 12e:	0000                	unimp
 130:	2c76                	fld	fs8,344(sp)
 132:	0000                	unimp
 134:	2c78                	fld	fa4,216(s0)
 136:	0000                	unimp
 138:	2c7a                	fld	fs8,408(sp)
 13a:	0000                	unimp
 13c:	2c7c                	fld	fa5,216(s0)
 13e:	0000                	unimp
 140:	28ea                	fld	fa7,152(sp)
 142:	0000                	unimp
 144:	2c80                	fld	fs0,24(s1)
 146:	0000                	unimp
 148:	1fde                	slli	t6,t6,0x37
 14a:	0000                	unimp
 14c:	2062                	fld	ft0,24(sp)
 14e:	0000                	unimp
 150:	296a                	fld	fs2,152(sp)
 152:	0000                	unimp
 154:	29e2                	fld	fs3,24(sp)
 156:	0000                	unimp
 158:	2c8a                	fld	fs9,128(sp)
 15a:	0000                	unimp
 15c:	2c8c                	fld	fa1,24(s1)
 15e:	0000                	unimp
 160:	2c8e                	fld	fs9,192(sp)
 162:	0000                	unimp
 164:	2c90                	fld	fa2,24(s1)
 166:	0000                	unimp
 168:	2c92                	fld	fs9,256(sp)
 16a:	0000                	unimp
 16c:	2c94                	fld	fa3,24(s1)
 16e:	0000                	unimp
 170:	2c96                	fld	fs9,320(sp)
 172:	0000                	unimp
 174:	2c98                	fld	fa4,24(s1)
 176:	0000                	unimp
 178:	2c9a                	fld	fs9,384(sp)
 17a:	0000                	unimp
 17c:	2c9c                	fld	fa5,24(s1)
 17e:	0000                	unimp
 180:	2c9e                	fld	fs9,448(sp)
 182:	0000                	unimp
 184:	39b4                	fld	fa3,112(a1)
 186:	0000                	unimp
 188:	2ca2                	fld	fs9,8(sp)
 18a:	0000                	unimp
 18c:	2ca4                	fld	fs1,88(s1)
 18e:	0000                	unimp
 190:	2276                	fld	ft4,344(sp)
 192:	0000                	unimp
 194:	20e8                	fld	fa0,192(s1)
 196:	0000                	unimp
 198:	216c                	fld	fa1,192(a0)
 19a:	0000                	unimp
 19c:	21f6                	fld	ft3,344(sp)
 19e:	0000                	unimp
 1a0:	2cae                	fld	fs9,200(sp)
 1a2:	0000                	unimp
 1a4:	2ae2                	fld	fs5,24(sp)
 1a6:	0000                	unimp
 1a8:	2cb2                	fld	fs9,264(sp)
 1aa:	0000                	unimp
 1ac:	2cb4                	fld	fa3,88(s1)
 1ae:	0000                	unimp
 1b0:	2cb6                	fld	fs9,328(sp)
 1b2:	0000                	unimp
 1b4:	2b62                	fld	fs6,24(sp)
 1b6:	0000                	unimp
 1b8:	2cba                	fld	fs9,392(sp)
 1ba:	0000                	unimp
 1bc:	2cbc                	fld	fa5,88(s1)
 1be:	0000                	unimp
 1c0:	2cbe                	fld	fs9,456(sp)
 1c2:	0000                	unimp
 1c4:	2cc0                	fld	fs0,152(s1)
 1c6:	0000                	unimp
 1c8:	2cc2                	fld	fs9,16(sp)
 1ca:	0000                	unimp
 1cc:	2cc4                	fld	fs1,152(s1)
 1ce:	0000                	unimp
 1d0:	2cc6                	fld	fs9,80(sp)
 1d2:	0000                	unimp
 1d4:	2cc8                	fld	fa0,152(s1)
	...

Disassembly of section .text:

00000200 <memset>:
memset():
     200:	433d                	li	t1,15
     202:	872a                	mv	a4,a0
     204:	02c37363          	bgeu	t1,a2,22a <memset+0x2a>
     208:	00f77793          	andi	a5,a4,15
     20c:	efbd                	bnez	a5,28a <memset+0x8a>
     20e:	e5ad                	bnez	a1,278 <memset+0x78>
     210:	ff067693          	andi	a3,a2,-16
     214:	8a3d                	andi	a2,a2,15
     216:	96ba                	add	a3,a3,a4
     218:	c30c                	sw	a1,0(a4)
     21a:	c34c                	sw	a1,4(a4)
     21c:	c70c                	sw	a1,8(a4)
     21e:	c74c                	sw	a1,12(a4)
     220:	0741                	addi	a4,a4,16
     222:	fed76be3          	bltu	a4,a3,218 <memset+0x18>
     226:	e211                	bnez	a2,22a <memset+0x2a>
     228:	8082                	ret
     22a:	40c306b3          	sub	a3,t1,a2
     22e:	068a                	slli	a3,a3,0x2
     230:	00000297          	auipc	t0,0x0
     234:	9696                	add	a3,a3,t0
     236:	00a68067          	jr	10(a3)
     23a:	00b70723          	sb	a1,14(a4)
     23e:	00b706a3          	sb	a1,13(a4)
     242:	00b70623          	sb	a1,12(a4)
     246:	00b705a3          	sb	a1,11(a4)
     24a:	00b70523          	sb	a1,10(a4)
     24e:	00b704a3          	sb	a1,9(a4)
     252:	00b70423          	sb	a1,8(a4)
     256:	00b703a3          	sb	a1,7(a4)
     25a:	00b70323          	sb	a1,6(a4)
     25e:	00b702a3          	sb	a1,5(a4)
     262:	00b70223          	sb	a1,4(a4)
     266:	00b701a3          	sb	a1,3(a4)
     26a:	00b70123          	sb	a1,2(a4)
     26e:	00b700a3          	sb	a1,1(a4)
     272:	00b70023          	sb	a1,0(a4)
     276:	8082                	ret
     278:	0ff5f593          	andi	a1,a1,255
     27c:	00859693          	slli	a3,a1,0x8
     280:	8dd5                	or	a1,a1,a3
     282:	01059693          	slli	a3,a1,0x10
     286:	8dd5                	or	a1,a1,a3
     288:	b761                	j	210 <memset+0x10>
     28a:	00279693          	slli	a3,a5,0x2
     28e:	00000297          	auipc	t0,0x0
     292:	9696                	add	a3,a3,t0
     294:	8286                	mv	t0,ra
     296:	fa8680e7          	jalr	-88(a3)
     29a:	8096                	mv	ra,t0
     29c:	17c1                	addi	a5,a5,-16
     29e:	8f1d                	sub	a4,a4,a5
     2a0:	963e                	add	a2,a2,a5
     2a2:	f8c374e3          	bgeu	t1,a2,22a <memset+0x2a>
     2a6:	b7a5                	j	20e <memset+0xe>

000002a8 <gpio_init>:
gpio_init():
C:/Users/86152/Desktop/单车越野/我的/代码调试/Bicycle_Code/libraries/zf_driver/zf_driver_gpio.c:126
// 参数说明     pinconf     引脚配置（可设置参数由zf_gpio.h文件内GPIOSPEED_enum与GPIOMODE_enum枚举值确定，多个条件使用 | 相或）
// 返回参数     void
// 使用示例     gpio_init(D0, GPO, 1, GPIO_PIN_CONFIG);//D0初始化为GPIO功能、输出模式、输出高电平、速度100MHZ 推挽输出
//-------------------------------------------------------------------------------------------------------------------
void gpio_init (gpio_pin_enum pin, gpio_dir_enum dir, const uint8 dat, gpio_mode_enum mode)
{
     2a8:	7179                	addi	sp,sp,-48
     2aa:	d606                	sw	ra,44(sp)
     2ac:	d422                	sw	s0,40(sp)
     2ae:	1800                	addi	s0,sp,48
     2b0:	fca42e23          	sw	a0,-36(s0)
     2b4:	fcb42c23          	sw	a1,-40(s0)
     2b8:	87b2                	mv	a5,a2
     2ba:	fcd42823          	sw	a3,-48(s0)
     2be:	fcf40ba3          	sb	a5,-41(s0)
C:/Users/86152/Desktop/单车越野/我的/代码调试/Bicycle_Code/libraries/zf_driver/zf_driver_gpio.c:127
    GPIO_InitTypeDef GPIO_InitStructure = {0};
     2c2:	fe042023          	sw	zero,-32(s0)
     2c6:	fe042223          	sw	zero,-28(s0)
     2ca:	fe042423          	sw	zero,-24(s0)
C:/Users/86152/Desktop/单车越野/我的/代码调试/Bicycle_Code/libraries/zf_driver/zf_driver_gpio.c:128
    uint8 io_group = (pin & 0xE0) >> 5;
     2ce:	fdc42783          	lw	a5,-36(s0)
     2d2:	8395                	srli	a5,a5,0x5
     2d4:	0ff7f793          	andi	a5,a5,255
     2d8:	8b9d                	andi	a5,a5,7
     2da:	fef407a3          	sb	a5,-17(s0)
C:/Users/86152/Desktop/单车越野/我的/代码调试/Bicycle_Code/libraries/zf_driver/zf_driver_gpio.c:129
    uint8 io_pin = pin & 0x1F;
     2de:	fdc42783          	lw	a5,-36(s0)
     2e2:	0ff7f793          	andi	a5,a5,255
     2e6:	8bfd                	andi	a5,a5,31
     2e8:	fef40723          	sb	a5,-18(s0)
C:/Users/86152/Desktop/单车越野/我的/代码调试/Bicycle_Code/libraries/zf_driver/zf_driver_gpio.c:132

    // GPIO总线使能
    if(0 == io_group)      RCC_APB2PeriphClockCmd(RCC_APB2Periph_GPIOA, ENABLE);
     2ec:	fef44783          	lbu	a5,-17(s0)
     2f0:	e791                	bnez	a5,2fc <gpio_init+0x54>
C:/Users/86152/Desktop/单车越野/我的/代码调试/Bicycle_Code/libraries/zf_driver/zf_driver_gpio.c:132 (discriminator 1)
     2f2:	4585                	li	a1,1
     2f4:	4511                	li	a0,4
     2f6:	7f9020ef          	jal	ra,32ee <RCC_APB2PeriphClockCmd>
     2fa:	a891                	j	34e <gpio_init+0xa6>
C:/Users/86152/Desktop/单车越野/我的/代码调试/Bicycle_Code/libraries/zf_driver/zf_driver_gpio.c:133
    else if(1 == io_group) RCC_APB2PeriphClockCmd(RCC_APB2Periph_GPIOB, ENABLE);
     2fc:	fef44703          	lbu	a4,-17(s0)
     300:	4785                	li	a5,1
     302:	00f71763          	bne	a4,a5,310 <gpio_init+0x68>
C:/Users/86152/Desktop/单车越野/我的/代码调试/Bicycle_Code/libraries/zf_driver/zf_driver_gpio.c:133 (discriminator 1)
     306:	4585                	li	a1,1
     308:	4521                	li	a0,8
     30a:	7e5020ef          	jal	ra,32ee <RCC_APB2PeriphClockCmd>
     30e:	a081                	j	34e <gpio_init+0xa6>
C:/Users/86152/Desktop/单车越野/我的/代码调试/Bicycle_Code/libraries/zf_driver/zf_driver_gpio.c:134
    else if(2 == io_group) RCC_APB2PeriphClockCmd(RCC_APB2Periph_GPIOC, ENABLE);
     310:	fef44703          	lbu	a4,-17(s0)
     314:	4789                	li	a5,2
     316:	00f71763          	bne	a4,a5,324 <gpio_init+0x7c>
C:/Users/86152/Desktop/单车越野/我的/代码调试/Bicycle_Code/libraries/zf_driver/zf_driver_gpio.c:134 (discriminator 1)
     31a:	4585                	li	a1,1
     31c:	4541                	li	a0,16
     31e:	7d1020ef          	jal	ra,32ee <RCC_APB2PeriphClockCmd>
     322:	a035                	j	34e <gpio_init+0xa6>
C:/Users/86152/Desktop/单车越野/我的/代码调试/Bicycle_Code/libraries/zf_driver/zf_driver_gpio.c:135
    else if(3 == io_group) RCC_APB2PeriphClockCmd(RCC_APB2Periph_GPIOD, ENABLE);
     324:	fef44703          	lbu	a4,-17(s0)
     328:	478d                	li	a5,3
     32a:	00f71863          	bne	a4,a5,33a <gpio_init+0x92>
C:/Users/86152/Desktop/单车越野/我的/代码调试/Bicycle_Code/libraries/zf_driver/zf_driver_gpio.c:135 (discriminator 1)
     32e:	4585                	li	a1,1
     330:	02000513          	li	a0,32
     334:	7bb020ef          	jal	ra,32ee <RCC_APB2PeriphClockCmd>
     338:	a819                	j	34e <gpio_init+0xa6>
C:/Users/86152/Desktop/单车越野/我的/代码调试/Bicycle_Code/libraries/zf_driver/zf_driver_gpio.c:136
    else if(4 == io_group) RCC_APB2PeriphClockCmd(RCC_APB2Periph_GPIOE, ENABLE);
     33a:	fef44703          	lbu	a4,-17(s0)
     33e:	4791                	li	a5,4
     340:	00f71763          	bne	a4,a5,34e <gpio_init+0xa6>
C:/Users/86152/Desktop/单车越野/我的/代码调试/Bicycle_Code/libraries/zf_driver/zf_driver_gpio.c:136 (discriminator 1)
     344:	4585                	li	a1,1
     346:	04000513          	li	a0,64
     34a:	7a5020ef          	jal	ra,32ee <RCC_APB2PeriphClockCmd>
C:/Users/86152/Desktop/单车越野/我的/代码调试/Bicycle_Code/libraries/zf_driver/zf_driver_gpio.c:139

    // 设置引脚号
    GPIO_InitStructure.GPIO_Pin = (uint16)(1 << io_pin);
     34e:	fee44783          	lbu	a5,-18(s0)
     352:	4705                	li	a4,1
     354:	00f717b3          	sll	a5,a4,a5
     358:	07c2                	slli	a5,a5,0x10
     35a:	83c1                	srli	a5,a5,0x10
     35c:	fef41023          	sh	a5,-32(s0)
C:/Users/86152/Desktop/单车越野/我的/代码调试/Bicycle_Code/libraries/zf_driver/zf_driver_gpio.c:142

    // 只有输出需要设置速度
    if(GPO == dir)
     360:	fd842703          	lw	a4,-40(s0)
     364:	4785                	li	a5,1
     366:	02f71763          	bne	a4,a5,394 <gpio_init+0xec>
C:/Users/86152/Desktop/单车越野/我的/代码调试/Bicycle_Code/libraries/zf_driver/zf_driver_gpio.c:144
    {
        if((uint16)mode >> 8 == 0) GPIO_InitStructure.GPIO_Speed = (GPIOSpeed_TypeDef)(GPIO_Speed_50MHz);    // 防止没有填写这个参数,默认设置50Mhz
     36a:	fd042783          	lw	a5,-48(s0)
     36e:	07c2                	slli	a5,a5,0x10
     370:	83c1                	srli	a5,a5,0x10
     372:	83a1                	srli	a5,a5,0x8
     374:	07c2                	slli	a5,a5,0x10
     376:	83c1                	srli	a5,a5,0x10
     378:	e789                	bnez	a5,382 <gpio_init+0xda>
C:/Users/86152/Desktop/单车越野/我的/代码调试/Bicycle_Code/libraries/zf_driver/zf_driver_gpio.c:144 (discriminator 1)
     37a:	478d                	li	a5,3
     37c:	fef42223          	sw	a5,-28(s0)
     380:	a811                	j	394 <gpio_init+0xec>
C:/Users/86152/Desktop/单车越野/我的/代码调试/Bicycle_Code/libraries/zf_driver/zf_driver_gpio.c:145
        else GPIO_InitStructure.GPIO_Speed = (gpio_speed_enum)((uint16)mode >> 8);                           // 已经填写了该参数。根据值来设置
     382:	fd042783          	lw	a5,-48(s0)
     386:	07c2                	slli	a5,a5,0x10
     388:	83c1                	srli	a5,a5,0x10
     38a:	83a1                	srli	a5,a5,0x8
     38c:	07c2                	slli	a5,a5,0x10
     38e:	83c1                	srli	a5,a5,0x10
     390:	fef42223          	sw	a5,-28(s0)
C:/Users/86152/Desktop/单车越野/我的/代码调试/Bicycle_Code/libraries/zf_driver/zf_driver_gpio.c:149
    }

    // 设置模式
    GPIO_InitStructure.GPIO_Mode = (GPIOMode_TypeDef)((uint16)mode & 0xFF);
     394:	fd042783          	lw	a5,-48(s0)
     398:	07c2                	slli	a5,a5,0x10
     39a:	83c1                	srli	a5,a5,0x10
     39c:	0ff7f793          	andi	a5,a5,255
     3a0:	fef42423          	sw	a5,-24(s0)
C:/Users/86152/Desktop/单车越野/我的/代码调试/Bicycle_Code/libraries/zf_driver/zf_driver_gpio.c:150
    GPIO_Init(gpio_group[io_group], &GPIO_InitStructure);
     3a4:	fef44703          	lbu	a4,-17(s0)
     3a8:	200007b7          	lui	a5,0x20000
     3ac:	070a                	slli	a4,a4,0x2
     3ae:	00078793          	mv	a5,a5
     3b2:	97ba                	add	a5,a5,a4
     3b4:	439c                	lw	a5,0(a5)
     3b6:	fe040713          	addi	a4,s0,-32
     3ba:	85ba                	mv	a1,a4
     3bc:	853e                	mv	a0,a5
     3be:	209020ef          	jal	ra,2dc6 <GPIO_Init>
C:/Users/86152/Desktop/单车越野/我的/代码调试/Bicycle_Code/libraries/zf_driver/zf_driver_gpio.c:153

    // 只有输出需要设置引脚状态
    if(GPO == dir)
     3c2:	fd842703          	lw	a4,-40(s0)
     3c6:	4785                	li	a5,1
     3c8:	02f71963          	bne	a4,a5,3fa <gpio_init+0x152>
C:/Users/86152/Desktop/单车越野/我的/代码调试/Bicycle_Code/libraries/zf_driver/zf_driver_gpio.c:155
    {
        GPIO_WriteBit(gpio_group[io_group], (uint16)(1 << io_pin), dat);
     3cc:	fef44703          	lbu	a4,-17(s0)
     3d0:	200007b7          	lui	a5,0x20000
     3d4:	070a                	slli	a4,a4,0x2
     3d6:	00078793          	mv	a5,a5
     3da:	97ba                	add	a5,a5,a4
     3dc:	4394                	lw	a3,0(a5)
     3de:	fee44783          	lbu	a5,-18(s0)
     3e2:	4705                	li	a4,1
     3e4:	00f717b3          	sll	a5,a4,a5
     3e8:	07c2                	slli	a5,a5,0x10
     3ea:	83c1                	srli	a5,a5,0x10
     3ec:	fd744703          	lbu	a4,-41(s0)
     3f0:	863a                	mv	a2,a4
     3f2:	85be                	mv	a1,a5
     3f4:	8536                	mv	a0,a3
     3f6:	3fb020ef          	jal	ra,2ff0 <GPIO_WriteBit>
C:/Users/86152/Desktop/单车越野/我的/代码调试/Bicycle_Code/libraries/zf_driver/zf_driver_gpio.c:157
    }
}
     3fa:	0001                	nop
     3fc:	50b2                	lw	ra,44(sp)
     3fe:	5422                	lw	s0,40(sp)
     400:	6145                	addi	sp,sp,48
     402:	8082                	ret

00000404 <uart_write_byte>:
uart_write_byte():
C:/Users/86152/Desktop/单车越野/我的/代码调试/Bicycle_Code/libraries/zf_driver/zf_driver_uart.c:50
// 参数说明     dat         串口数据
// 返回参数     void
// 使用示例     uart_write_byte(UART_1, 0x43);        //串口1发送0x43。
//-------------------------------------------------------------------------------------------------------------------
void uart_write_byte(uart_index_enum uartn, const uint8 dat)
{
     404:	1101                	addi	sp,sp,-32
     406:	ce22                	sw	s0,28(sp)
     408:	1000                	addi	s0,sp,32
     40a:	fea42623          	sw	a0,-20(s0)
     40e:	87ae                	mv	a5,a1
     410:	fef405a3          	sb	a5,-21(s0)
C:/Users/86152/Desktop/单车越野/我的/代码调试/Bicycle_Code/libraries/zf_driver/zf_driver_uart.c:51
    while((((USART_TypeDef*)uart_index[uartn])->STATR & USART_FLAG_TXE)==0);
     414:	0001                	nop
C:/Users/86152/Desktop/单车越野/我的/代码调试/Bicycle_Code/libraries/zf_driver/zf_driver_uart.c:51 (discriminator 1)
     416:	67a9                	lui	a5,0xa
     418:	fec42703          	lw	a4,-20(s0)
     41c:	070a                	slli	a4,a4,0x2
     41e:	62478793          	addi	a5,a5,1572 # a624 <uart_index>
     422:	97ba                	add	a5,a5,a4
     424:	439c                	lw	a5,0(a5)
     426:	0007d783          	lhu	a5,0(a5)
     42a:	07c2                	slli	a5,a5,0x10
     42c:	83c1                	srli	a5,a5,0x10
     42e:	0807f793          	andi	a5,a5,128
     432:	d3f5                	beqz	a5,416 <uart_write_byte+0x12>
C:/Users/86152/Desktop/单车越野/我的/代码调试/Bicycle_Code/libraries/zf_driver/zf_driver_uart.c:52
    ((USART_TypeDef*)uart_index[uartn])->DATAR = dat;
     434:	67a9                	lui	a5,0xa
     436:	fec42703          	lw	a4,-20(s0)
     43a:	070a                	slli	a4,a4,0x2
     43c:	62478793          	addi	a5,a5,1572 # a624 <uart_index>
     440:	97ba                	add	a5,a5,a4
     442:	439c                	lw	a5,0(a5)
     444:	873e                	mv	a4,a5
     446:	feb44783          	lbu	a5,-21(s0)
     44a:	07c2                	slli	a5,a5,0x10
     44c:	83c1                	srli	a5,a5,0x10
     44e:	00f71223          	sh	a5,4(a4)
C:/Users/86152/Desktop/单车越野/我的/代码调试/Bicycle_Code/libraries/zf_driver/zf_driver_uart.c:53
}
     452:	0001                	nop
     454:	4472                	lw	s0,28(sp)
     456:	6105                	addi	sp,sp,32
     458:	8082                	ret

0000045a <uart_write_string>:
uart_write_string():
C:/Users/86152/Desktop/单车越野/我的/代码调试/Bicycle_Code/libraries/zf_driver/zf_driver_uart.c:79
// 参数说明     str         字符串首地址
// 返回参数     void
// 使用示例     uart_putstr(UART_1, (uint8 *)"12345")   //串口1发送12345这个字符串
//-------------------------------------------------------------------------------------------------------------------
void uart_write_string(uart_index_enum uartn, const char *str)
{
     45a:	1101                	addi	sp,sp,-32
     45c:	ce06                	sw	ra,28(sp)
     45e:	cc22                	sw	s0,24(sp)
     460:	1000                	addi	s0,sp,32
     462:	fea42623          	sw	a0,-20(s0)
     466:	feb42423          	sw	a1,-24(s0)
C:/Users/86152/Desktop/单车越野/我的/代码调试/Bicycle_Code/libraries/zf_driver/zf_driver_uart.c:80
    zf_assert(str != NULL);
     46a:	fe842783          	lw	a5,-24(s0)
     46e:	00f037b3          	snez	a5,a5
     472:	0ff7f793          	andi	a5,a5,255
     476:	873e                	mv	a4,a5
     478:	05000613          	li	a2,80
     47c:	67a9                	lui	a5,0xa
     47e:	3b878593          	addi	a1,a5,952 # a3b8 <_sbrk+0x22>
     482:	853a                	mv	a0,a4
     484:	7fd000ef          	jal	ra,1480 <debug_assert_handler>
C:/Users/86152/Desktop/单车越野/我的/代码调试/Bicycle_Code/libraries/zf_driver/zf_driver_uart.c:81
    while(*str)                                                                 // 一直循环到结尾
     488:	a839                	j	4a6 <uart_write_string+0x4c>
C:/Users/86152/Desktop/单车越野/我的/代码调试/Bicycle_Code/libraries/zf_driver/zf_driver_uart.c:83
    {
        uart_write_byte(uartn, *str++);
     48a:	fe842783          	lw	a5,-24(s0)
     48e:	00178713          	addi	a4,a5,1
     492:	fee42423          	sw	a4,-24(s0)
     496:	00078783          	lb	a5,0(a5)
     49a:	0ff7f793          	andi	a5,a5,255
     49e:	85be                	mv	a1,a5
     4a0:	fec42503          	lw	a0,-20(s0)
     4a4:	3785                	jal	404 <uart_write_byte>
C:/Users/86152/Desktop/单车越野/我的/代码调试/Bicycle_Code/libraries/zf_driver/zf_driver_uart.c:81
    while(*str)                                                                 // 一直循环到结尾
     4a6:	fe842783          	lw	a5,-24(s0)
     4aa:	00078783          	lb	a5,0(a5)
     4ae:	fff1                	bnez	a5,48a <uart_write_string+0x30>
C:/Users/86152/Desktop/单车越野/我的/代码调试/Bicycle_Code/libraries/zf_driver/zf_driver_uart.c:85
    }
}
     4b0:	0001                	nop
     4b2:	40f2                	lw	ra,28(sp)
     4b4:	4462                	lw	s0,24(sp)
     4b6:	6105                	addi	sp,sp,32
     4b8:	8082                	ret

000004ba <uart_query_byte>:
uart_query_byte():
C:/Users/86152/Desktop/单车越野/我的/代码调试/Bicycle_Code/libraries/zf_driver/zf_driver_uart.c:147
// 参数说明     *dat            接收数据的地址
// 返回参数     uint8           1：接收成功   0：未接收到数据
// 使用示例     uint8 dat; uart_query_byte(USART_1,&dat);       // 接收串口1数据  存在在dat变量里
//-------------------------------------------------------------------------------------------------------------------
uint8 uart_query_byte(uart_index_enum uartn, uint8 *dat)
{
     4ba:	1101                	addi	sp,sp,-32
     4bc:	ce22                	sw	s0,28(sp)
     4be:	1000                	addi	s0,sp,32
     4c0:	fea42623          	sw	a0,-20(s0)
     4c4:	feb42423          	sw	a1,-24(s0)
C:/Users/86152/Desktop/单车越野/我的/代码调试/Bicycle_Code/libraries/zf_driver/zf_driver_uart.c:148
    if((((USART_TypeDef*)uart_index[uartn])->STATR & USART_FLAG_RXNE) != 0)
     4c8:	67a9                	lui	a5,0xa
     4ca:	fec42703          	lw	a4,-20(s0)
     4ce:	070a                	slli	a4,a4,0x2
     4d0:	62478793          	addi	a5,a5,1572 # a624 <uart_index>
     4d4:	97ba                	add	a5,a5,a4
     4d6:	439c                	lw	a5,0(a5)
     4d8:	0007d783          	lhu	a5,0(a5)
     4dc:	07c2                	slli	a5,a5,0x10
     4de:	83c1                	srli	a5,a5,0x10
     4e0:	0207f793          	andi	a5,a5,32
     4e4:	c78d                	beqz	a5,50e <uart_query_byte+0x54>
C:/Users/86152/Desktop/单车越野/我的/代码调试/Bicycle_Code/libraries/zf_driver/zf_driver_uart.c:150
    {
        *dat = (((USART_TypeDef*)uart_index[uartn])->DATAR & 0xFF);
     4e6:	67a9                	lui	a5,0xa
     4e8:	fec42703          	lw	a4,-20(s0)
     4ec:	070a                	slli	a4,a4,0x2
     4ee:	62478793          	addi	a5,a5,1572 # a624 <uart_index>
     4f2:	97ba                	add	a5,a5,a4
     4f4:	439c                	lw	a5,0(a5)
     4f6:	0047d783          	lhu	a5,4(a5)
     4fa:	07c2                	slli	a5,a5,0x10
     4fc:	83c1                	srli	a5,a5,0x10
     4fe:	0ff7f713          	andi	a4,a5,255
     502:	fe842783          	lw	a5,-24(s0)
     506:	00e78023          	sb	a4,0(a5)
C:/Users/86152/Desktop/单车越野/我的/代码调试/Bicycle_Code/libraries/zf_driver/zf_driver_uart.c:151
        return 1;
     50a:	4785                	li	a5,1
     50c:	a011                	j	510 <uart_query_byte+0x56>
C:/Users/86152/Desktop/单车越野/我的/代码调试/Bicycle_Code/libraries/zf_driver/zf_driver_uart.c:153
    }
    return 0;
     50e:	4781                	li	a5,0
C:/Users/86152/Desktop/单车越野/我的/代码调试/Bicycle_Code/libraries/zf_driver/zf_driver_uart.c:154
}
     510:	853e                	mv	a0,a5
     512:	4472                	lw	s0,28(sp)
     514:	6105                	addi	sp,sp,32
     516:	8082                	ret

00000518 <uart_init>:
uart_init():
C:/Users/86152/Desktop/单车越野/我的/代码调试/Bicycle_Code/libraries/zf_driver/zf_driver_uart.c:166
// 参数说明     rx_pin      串口接收引脚号
// 返回参数     void
// 使用示例     uart_init(UART_1, 115200, UART1_TX_A9, UART1_RX_A10); //串口1初始化引脚号,TX为A9,RX为A10
//-------------------------------------------------------------------------------------------------------------------
void uart_init(uart_index_enum uart_n, uint32 baud, uart_pin_enum tx_pin, uart_pin_enum rx_pin)
{
     518:	7179                	addi	sp,sp,-48
     51a:	d606                	sw	ra,44(sp)
     51c:	d422                	sw	s0,40(sp)
     51e:	1800                	addi	s0,sp,48
     520:	fca42e23          	sw	a0,-36(s0)
     524:	fcb42c23          	sw	a1,-40(s0)
     528:	fcc42a23          	sw	a2,-44(s0)
     52c:	fcd42823          	sw	a3,-48(s0)
C:/Users/86152/Desktop/单车越野/我的/代码调试/Bicycle_Code/libraries/zf_driver/zf_driver_uart.c:170
    // 如果程序在输出了断言信息 并且提示出错位置在这里
    // 就去查看你在什么地方调用这个函数 检查你的传入参数
    // RX和TX引脚需要传入同一组映射引脚，如果不同就会进断言
    zf_assert((tx_pin & (uart_n << 12)) == (rx_pin & (uart_n << 12)));      // tx_pin 与 rx_pin 必须与 uart_n 匹配
     530:	fd442703          	lw	a4,-44(s0)
     534:	fd042783          	lw	a5,-48(s0)
     538:	8f3d                	xor	a4,a4,a5
     53a:	fdc42783          	lw	a5,-36(s0)
     53e:	07b2                	slli	a5,a5,0xc
     540:	8ff9                	and	a5,a5,a4
     542:	0017b793          	seqz	a5,a5
     546:	0ff7f793          	andi	a5,a5,255
     54a:	873e                	mv	a4,a5
     54c:	0aa00613          	li	a2,170
     550:	67a9                	lui	a5,0xa
     552:	3b878593          	addi	a1,a5,952 # a3b8 <_sbrk+0x22>
     556:	853a                	mv	a0,a4
     558:	729000ef          	jal	ra,1480 <debug_assert_handler>
C:/Users/86152/Desktop/单车越野/我的/代码调试/Bicycle_Code/libraries/zf_driver/zf_driver_uart.c:171
    zf_assert((tx_pin >> 8) == (rx_pin >> 8));                              // tx_pin 与 rx_pin 必须成组传入
     55c:	fd442783          	lw	a5,-44(s0)
     560:	0087d713          	srli	a4,a5,0x8
     564:	fd042783          	lw	a5,-48(s0)
     568:	83a1                	srli	a5,a5,0x8
     56a:	40f707b3          	sub	a5,a4,a5
     56e:	0017b793          	seqz	a5,a5
     572:	0ff7f793          	andi	a5,a5,255
     576:	873e                	mv	a4,a5
     578:	0ab00613          	li	a2,171
     57c:	67a9                	lui	a5,0xa
     57e:	3b878593          	addi	a1,a5,952 # a3b8 <_sbrk+0x22>
     582:	853a                	mv	a0,a4
     584:	6fd000ef          	jal	ra,1480 <debug_assert_handler>
C:/Users/86152/Desktop/单车越野/我的/代码调试/Bicycle_Code/libraries/zf_driver/zf_driver_uart.c:173

    gpio_init(tx_pin & 0xFF, GPO, 0, GPO_AF_PUSH_PULL);
     588:	fd442783          	lw	a5,-44(s0)
     58c:	0ff7f793          	andi	a5,a5,255
     590:	46e1                	li	a3,24
     592:	4601                	li	a2,0
     594:	4585                	li	a1,1
     596:	853e                	mv	a0,a5
     598:	3b01                	jal	2a8 <gpio_init>
C:/Users/86152/Desktop/单车越野/我的/代码调试/Bicycle_Code/libraries/zf_driver/zf_driver_uart.c:174
    gpio_init(rx_pin & 0xFF, GPI, 0, GPI_PULL_UP);
     59a:	fd042783          	lw	a5,-48(s0)
     59e:	0ff7f793          	andi	a5,a5,255
     5a2:	04800693          	li	a3,72
     5a6:	4601                	li	a2,0
     5a8:	4581                	li	a1,0
     5aa:	853e                	mv	a0,a5
     5ac:	39f5                	jal	2a8 <gpio_init>
C:/Users/86152/Desktop/单车越野/我的/代码调试/Bicycle_Code/libraries/zf_driver/zf_driver_uart.c:177

    // AFIO总线开启
    RCC_APB2PeriphClockCmd(RCC_APB2Periph_AFIO, ENABLE);
     5ae:	4585                	li	a1,1
     5b0:	4505                	li	a0,1
     5b2:	53d020ef          	jal	ra,32ee <RCC_APB2PeriphClockCmd>
C:/Users/86152/Desktop/单车越野/我的/代码调试/Bicycle_Code/libraries/zf_driver/zf_driver_uart.c:179

    switch(tx_pin & 0xFFFF)
     5b6:	fd442703          	lw	a4,-44(s0)
     5ba:	67c1                	lui	a5,0x10
     5bc:	17fd                	addi	a5,a5,-1
     5be:	8ff9                	and	a5,a5,a4
     5c0:	670d                	lui	a4,0x3
     5c2:	38070713          	addi	a4,a4,896 # 3380 <TIM_GetITStatus+0x6>
     5c6:	20e78563          	beq	a5,a4,7d0 <uart_init+0x2b8>
     5ca:	670d                	lui	a4,0x3
     5cc:	38070713          	addi	a4,a4,896 # 3380 <TIM_GetITStatus+0x6>
     5d0:	04f76963          	bltu	a4,a5,622 <uart_init+0x10a>
     5d4:	6705                	lui	a4,0x1
     5d6:	16570713          	addi	a4,a4,357 # 1165 <debug_output+0x28d>
     5da:	16e78163          	beq	a5,a4,73c <uart_init+0x224>
     5de:	6705                	lui	a4,0x1
     5e0:	16570713          	addi	a4,a4,357 # 1165 <debug_output+0x28d>
     5e4:	00f76f63          	bltu	a4,a5,602 <uart_init+0xea>
     5e8:	22f00713          	li	a4,559
     5ec:	0ce78a63          	beq	a5,a4,6c0 <uart_init+0x1a8>
     5f0:	30600713          	li	a4,774
     5f4:	10e78163          	beq	a5,a4,6f6 <uart_init+0x1de>
     5f8:	12600713          	li	a4,294
     5fc:	08e78863          	beq	a5,a4,68c <uart_init+0x174>
     600:	a655                	j	9a4 <__stack_size+0x1a4>
     602:	6709                	lui	a4,0x2
     604:	36870713          	addi	a4,a4,872 # 2368 <EXTI0_IRQHandler+0x5e>
     608:	16e78a63          	beq	a5,a4,77c <uart_init+0x264>
     60c:	670d                	lui	a4,0x3
     60e:	12070713          	addi	a4,a4,288 # 3120 <RCC_GetClocksFreq+0xf8>
     612:	18e78563          	beq	a5,a4,79c <uart_init+0x284>
     616:	6709                	lui	a4,0x2
     618:	14a70713          	addi	a4,a4,330 # 214a <UART6_IRQHandler+0x62>
     61c:	14e78063          	beq	a5,a4,75c <uart_init+0x244>
     620:	a651                	j	9a4 <__stack_size+0x1a4>
     622:	6715                	lui	a4,0x5
     624:	38a70713          	addi	a4,a4,906 # 538a <__divdf3+0x2f2>
     628:	26e78c63          	beq	a5,a4,8a0 <__stack_size+0xa0>
     62c:	6715                	lui	a4,0x5
     62e:	38a70713          	addi	a4,a4,906 # 538a <__divdf3+0x2f2>
     632:	02f76263          	bltu	a4,a5,656 <uart_init+0x13e>
     636:	6711                	lui	a4,0x4
     638:	38870713          	addi	a4,a4,904 # 4388 <OTG_FS_IRQHandler+0x9d4>
     63c:	1ee78e63          	beq	a5,a4,838 <__stack_size+0x38>
     640:	6715                	lui	a4,0x5
     642:	12870713          	addi	a4,a4,296 # 5128 <__divdf3+0x90>
     646:	22e78363          	beq	a5,a4,86c <__stack_size+0x6c>
     64a:	6711                	lui	a4,0x4
     64c:	12470713          	addi	a4,a4,292 # 4124 <OTG_FS_IRQHandler+0x770>
     650:	1ae78a63          	beq	a5,a4,804 <__stack_size+0x4>
     654:	ae81                	j	9a4 <__stack_size+0x1a4>
     656:	6719                	lui	a4,0x6
     658:	38c70713          	addi	a4,a4,908 # 638c <__subdf3+0x2b0>
     65c:	2ae78663          	beq	a5,a4,908 <__stack_size+0x108>
     660:	6719                	lui	a4,0x6
     662:	38c70713          	addi	a4,a4,908 # 638c <__subdf3+0x2b0>
     666:	00f76863          	bltu	a4,a5,676 <uart_init+0x15e>
     66a:	6719                	lui	a4,0x6
     66c:	10670713          	addi	a4,a4,262 # 6106 <__subdf3+0x2a>
     670:	26e78263          	beq	a5,a4,8d4 <__stack_size+0xd4>
     674:	ae05                	j	9a4 <__stack_size+0x1a4>
     676:	671d                	lui	a4,0x7
     678:	10e70713          	addi	a4,a4,270 # 710e <_printf_float+0xd6>
     67c:	2ce78063          	beq	a5,a4,93c <__stack_size+0x13c>
     680:	671d                	lui	a4,0x7
     682:	38e70713          	addi	a4,a4,910 # 738e <_printf_float+0x356>
     686:	2ee78563          	beq	a5,a4,970 <__stack_size+0x170>
     68a:	ae29                	j	9a4 <__stack_size+0x1a4>
C:/Users/86152/Desktop/单车越野/我的/代码调试/Bicycle_Code/libraries/zf_driver/zf_driver_uart.c:182
    {
        case UART1_MAP1_TX_B6:
           AFIO->PCFR2 &= ~(0x01<<26);
     68c:	400107b7          	lui	a5,0x40010
     690:	4fd4                	lw	a3,28(a5)
     692:	400107b7          	lui	a5,0x40010
     696:	fc000737          	lui	a4,0xfc000
     69a:	177d                	addi	a4,a4,-1
     69c:	8f75                	and	a4,a4,a3
     69e:	cfd8                	sw	a4,28(a5)
C:/Users/86152/Desktop/单车越野/我的/代码调试/Bicycle_Code/libraries/zf_driver/zf_driver_uart.c:183
           AFIO->PCFR1 &= ~(0x01<<2);
     6a0:	400107b7          	lui	a5,0x40010
     6a4:	43d8                	lw	a4,4(a5)
     6a6:	400107b7          	lui	a5,0x40010
     6aa:	9b6d                	andi	a4,a4,-5
     6ac:	c3d8                	sw	a4,4(a5)
C:/Users/86152/Desktop/单车越野/我的/代码调试/Bicycle_Code/libraries/zf_driver/zf_driver_uart.c:184
           AFIO->PCFR1 |=  (0x01<<2);
     6ae:	400107b7          	lui	a5,0x40010
     6b2:	43d8                	lw	a4,4(a5)
     6b4:	400107b7          	lui	a5,0x40010
     6b8:	00476713          	ori	a4,a4,4
     6bc:	c3d8                	sw	a4,4(a5)
C:/Users/86152/Desktop/单车越野/我的/代码调试/Bicycle_Code/libraries/zf_driver/zf_driver_uart.c:185
           break;
     6be:	a4dd                	j	9a4 <__stack_size+0x1a4>
C:/Users/86152/Desktop/单车越野/我的/代码调试/Bicycle_Code/libraries/zf_driver/zf_driver_uart.c:187
        case UART1_MAP2_TX_B15:
            AFIO->PCFR2 &= ~(0x01<<26);
     6c0:	400107b7          	lui	a5,0x40010
     6c4:	4fd4                	lw	a3,28(a5)
     6c6:	400107b7          	lui	a5,0x40010
     6ca:	fc000737          	lui	a4,0xfc000
     6ce:	177d                	addi	a4,a4,-1
     6d0:	8f75                	and	a4,a4,a3
     6d2:	cfd8                	sw	a4,28(a5)
C:/Users/86152/Desktop/单车越野/我的/代码调试/Bicycle_Code/libraries/zf_driver/zf_driver_uart.c:188
            AFIO->PCFR2 |=  (0x01<<26);
     6d4:	400107b7          	lui	a5,0x40010
     6d8:	4fd4                	lw	a3,28(a5)
     6da:	400107b7          	lui	a5,0x40010
     6de:	04000737          	lui	a4,0x4000
     6e2:	8f55                	or	a4,a4,a3
     6e4:	cfd8                	sw	a4,28(a5)
C:/Users/86152/Desktop/单车越野/我的/代码调试/Bicycle_Code/libraries/zf_driver/zf_driver_uart.c:189
            AFIO->PCFR1 &= ~(0x01<<2);
     6e6:	400107b7          	lui	a5,0x40010
     6ea:	43d8                	lw	a4,4(a5)
     6ec:	400107b7          	lui	a5,0x40010
     6f0:	9b6d                	andi	a4,a4,-5
     6f2:	c3d8                	sw	a4,4(a5)
C:/Users/86152/Desktop/单车越野/我的/代码调试/Bicycle_Code/libraries/zf_driver/zf_driver_uart.c:190
           break;
     6f4:	ac45                	j	9a4 <__stack_size+0x1a4>
C:/Users/86152/Desktop/单车越野/我的/代码调试/Bicycle_Code/libraries/zf_driver/zf_driver_uart.c:192
        case UART1_MAP3_TX_A6:
            AFIO->PCFR2 &= ~(0x01<<26);
     6f6:	400107b7          	lui	a5,0x40010
     6fa:	4fd4                	lw	a3,28(a5)
     6fc:	400107b7          	lui	a5,0x40010
     700:	fc000737          	lui	a4,0xfc000
     704:	177d                	addi	a4,a4,-1
     706:	8f75                	and	a4,a4,a3
     708:	cfd8                	sw	a4,28(a5)
C:/Users/86152/Desktop/单车越野/我的/代码调试/Bicycle_Code/libraries/zf_driver/zf_driver_uart.c:193
            AFIO->PCFR2 |=  (0x01<<26);
     70a:	400107b7          	lui	a5,0x40010
     70e:	4fd4                	lw	a3,28(a5)
     710:	400107b7          	lui	a5,0x40010
     714:	04000737          	lui	a4,0x4000
     718:	8f55                	or	a4,a4,a3
     71a:	cfd8                	sw	a4,28(a5)
C:/Users/86152/Desktop/单车越野/我的/代码调试/Bicycle_Code/libraries/zf_driver/zf_driver_uart.c:194
            AFIO->PCFR1 &= ~(0x01<<2);
     71c:	400107b7          	lui	a5,0x40010
     720:	43d8                	lw	a4,4(a5)
     722:	400107b7          	lui	a5,0x40010
     726:	9b6d                	andi	a4,a4,-5
     728:	c3d8                	sw	a4,4(a5)
C:/Users/86152/Desktop/单车越野/我的/代码调试/Bicycle_Code/libraries/zf_driver/zf_driver_uart.c:195
            AFIO->PCFR1 |=  (0x01<<2);
     72a:	400107b7          	lui	a5,0x40010
     72e:	43d8                	lw	a4,4(a5)
     730:	400107b7          	lui	a5,0x40010
     734:	00476713          	ori	a4,a4,4
     738:	c3d8                	sw	a4,4(a5)
C:/Users/86152/Desktop/单车越野/我的/代码调试/Bicycle_Code/libraries/zf_driver/zf_driver_uart.c:196
           break;
     73a:	a4ad                	j	9a4 <__stack_size+0x1a4>
C:/Users/86152/Desktop/单车越野/我的/代码调试/Bicycle_Code/libraries/zf_driver/zf_driver_uart.c:199

        case UART2_MAP1_TX_D5:
            AFIO->PCFR1 &= ~(0x01<<3);
     73c:	400107b7          	lui	a5,0x40010
     740:	43d8                	lw	a4,4(a5)
     742:	400107b7          	lui	a5,0x40010
     746:	9b5d                	andi	a4,a4,-9
     748:	c3d8                	sw	a4,4(a5)
C:/Users/86152/Desktop/单车越野/我的/代码调试/Bicycle_Code/libraries/zf_driver/zf_driver_uart.c:200
            AFIO->PCFR1 |=  (0x01<<3);
     74a:	400107b7          	lui	a5,0x40010
     74e:	43d8                	lw	a4,4(a5)
     750:	400107b7          	lui	a5,0x40010
     754:	00876713          	ori	a4,a4,8
     758:	c3d8                	sw	a4,4(a5)
C:/Users/86152/Desktop/单车越野/我的/代码调试/Bicycle_Code/libraries/zf_driver/zf_driver_uart.c:201
           break;
     75a:	a4a9                	j	9a4 <__stack_size+0x1a4>
C:/Users/86152/Desktop/单车越野/我的/代码调试/Bicycle_Code/libraries/zf_driver/zf_driver_uart.c:204

        case UART3_MAP1_TX_C10:
            AFIO->PCFR1 &= ~(0x03<<3);
     75c:	400107b7          	lui	a5,0x40010
     760:	43d8                	lw	a4,4(a5)
     762:	400107b7          	lui	a5,0x40010
     766:	9b1d                	andi	a4,a4,-25
     768:	c3d8                	sw	a4,4(a5)
C:/Users/86152/Desktop/单车越野/我的/代码调试/Bicycle_Code/libraries/zf_driver/zf_driver_uart.c:205
            AFIO->PCFR1 |=  (0x01<<3);
     76a:	400107b7          	lui	a5,0x40010
     76e:	43d8                	lw	a4,4(a5)
     770:	400107b7          	lui	a5,0x40010
     774:	00876713          	ori	a4,a4,8
     778:	c3d8                	sw	a4,4(a5)
C:/Users/86152/Desktop/单车越野/我的/代码调试/Bicycle_Code/libraries/zf_driver/zf_driver_uart.c:206
           break;
     77a:	a42d                	j	9a4 <__stack_size+0x1a4>
C:/Users/86152/Desktop/单车越野/我的/代码调试/Bicycle_Code/libraries/zf_driver/zf_driver_uart.c:209

        case UART3_MAP2_TX_D8:
            AFIO->PCFR1 &= ~(0x03<<3);
     77c:	400107b7          	lui	a5,0x40010
     780:	43d8                	lw	a4,4(a5)
     782:	400107b7          	lui	a5,0x40010
     786:	9b1d                	andi	a4,a4,-25
     788:	c3d8                	sw	a4,4(a5)
C:/Users/86152/Desktop/单车越野/我的/代码调试/Bicycle_Code/libraries/zf_driver/zf_driver_uart.c:210
            AFIO->PCFR1 |=  (0x03<<3);
     78a:	400107b7          	lui	a5,0x40010
     78e:	43d8                	lw	a4,4(a5)
     790:	400107b7          	lui	a5,0x40010
     794:	01876713          	ori	a4,a4,24
     798:	c3d8                	sw	a4,4(a5)
C:/Users/86152/Desktop/单车越野/我的/代码调试/Bicycle_Code/libraries/zf_driver/zf_driver_uart.c:211
           break;
     79a:	a429                	j	9a4 <__stack_size+0x1a4>
C:/Users/86152/Desktop/单车越野/我的/代码调试/Bicycle_Code/libraries/zf_driver/zf_driver_uart.c:214

        case UART4_MAP1_TX_B0:
            AFIO->PCFR2 &= ~(0x03<<16);
     79c:	400107b7          	lui	a5,0x40010
     7a0:	4fd4                	lw	a3,28(a5)
     7a2:	400107b7          	lui	a5,0x40010
     7a6:	fffd0737          	lui	a4,0xfffd0
     7aa:	177d                	addi	a4,a4,-1
     7ac:	8f75                	and	a4,a4,a3
     7ae:	cfd8                	sw	a4,28(a5)
C:/Users/86152/Desktop/单车越野/我的/代码调试/Bicycle_Code/libraries/zf_driver/zf_driver_uart.c:215
            AFIO->PCFR2 |=  (((tx_pin >> 8) & 0x03 ) << 16);
     7b0:	400107b7          	lui	a5,0x40010
     7b4:	4fd4                	lw	a3,28(a5)
     7b6:	fd442783          	lw	a5,-44(s0)
     7ba:	83a1                	srli	a5,a5,0x8
     7bc:	01079713          	slli	a4,a5,0x10
     7c0:	000307b7          	lui	a5,0x30
     7c4:	8f7d                	and	a4,a4,a5
     7c6:	400107b7          	lui	a5,0x40010
     7ca:	8f55                	or	a4,a4,a3
     7cc:	cfd8                	sw	a4,28(a5)
C:/Users/86152/Desktop/单车越野/我的/代码调试/Bicycle_Code/libraries/zf_driver/zf_driver_uart.c:216
           break;
     7ce:	aad9                	j	9a4 <__stack_size+0x1a4>
C:/Users/86152/Desktop/单车越野/我的/代码调试/Bicycle_Code/libraries/zf_driver/zf_driver_uart.c:219

        case UART4_MAP3_TX_E0:
            AFIO->PCFR2 &= ~(0x03<<16);
     7d0:	400107b7          	lui	a5,0x40010
     7d4:	4fd4                	lw	a3,28(a5)
     7d6:	400107b7          	lui	a5,0x40010
     7da:	fffd0737          	lui	a4,0xfffd0
     7de:	177d                	addi	a4,a4,-1
     7e0:	8f75                	and	a4,a4,a3
     7e2:	cfd8                	sw	a4,28(a5)
C:/Users/86152/Desktop/单车越野/我的/代码调试/Bicycle_Code/libraries/zf_driver/zf_driver_uart.c:220
            AFIO->PCFR2 |=  (((tx_pin >> 8) & 0x03 ) << 16);
     7e4:	400107b7          	lui	a5,0x40010
     7e8:	4fd4                	lw	a3,28(a5)
     7ea:	fd442783          	lw	a5,-44(s0)
     7ee:	83a1                	srli	a5,a5,0x8
     7f0:	01079713          	slli	a4,a5,0x10
     7f4:	000307b7          	lui	a5,0x30
     7f8:	8f7d                	and	a4,a4,a5
     7fa:	400107b7          	lui	a5,0x40010
     7fe:	8f55                	or	a4,a4,a3
     800:	cfd8                	sw	a4,28(a5)
C:/Users/86152/Desktop/单车越野/我的/代码调试/Bicycle_Code/libraries/zf_driver/zf_driver_uart.c:221
           break;
     802:	a24d                	j	9a4 <__stack_size+0x1a4>
C:/Users/86152/Desktop/单车越野/我的/代码调试/Bicycle_Code/libraries/zf_driver/zf_driver_uart.c:224

        case UART5_MAP1_TX_B4:
            AFIO->PCFR2 &= ~(0x03<<18);
     804:	400107b7          	lui	a5,0x40010
     808:	4fd4                	lw	a3,28(a5)
     80a:	400107b7          	lui	a5,0x40010
     80e:	fff40737          	lui	a4,0xfff40
     812:	177d                	addi	a4,a4,-1
     814:	8f75                	and	a4,a4,a3
     816:	cfd8                	sw	a4,28(a5)
C:/Users/86152/Desktop/单车越野/我的/代码调试/Bicycle_Code/libraries/zf_driver/zf_driver_uart.c:225
            AFIO->PCFR2 |=  (((tx_pin >> 8) & 0x03 ) << 18);
     818:	400107b7          	lui	a5,0x40010
     81c:	4fd4                	lw	a3,28(a5)
     81e:	fd442783          	lw	a5,-44(s0)
     822:	83a1                	srli	a5,a5,0x8
     824:	01279713          	slli	a4,a5,0x12
     828:	000c07b7          	lui	a5,0xc0
     82c:	8f7d                	and	a4,a4,a5
     82e:	400107b7          	lui	a5,0x40010
     832:	8f55                	or	a4,a4,a3
     834:	cfd8                	sw	a4,28(a5)
C:/Users/86152/Desktop/单车越野/我的/代码调试/Bicycle_Code/libraries/zf_driver/zf_driver_uart.c:226
           break;
     836:	a2bd                	j	9a4 <__stack_size+0x1a4>
C:/Users/86152/Desktop/单车越野/我的/代码调试/Bicycle_Code/libraries/zf_driver/zf_driver_uart.c:229

        case UART5_MAP3_TX_E8:
            AFIO->PCFR2 &= ~(0x03<<18);
     838:	400107b7          	lui	a5,0x40010
     83c:	4fd4                	lw	a3,28(a5)
     83e:	400107b7          	lui	a5,0x40010
     842:	fff40737          	lui	a4,0xfff40
     846:	177d                	addi	a4,a4,-1
     848:	8f75                	and	a4,a4,a3
     84a:	cfd8                	sw	a4,28(a5)
C:/Users/86152/Desktop/单车越野/我的/代码调试/Bicycle_Code/libraries/zf_driver/zf_driver_uart.c:230
            AFIO->PCFR2 |=  (((tx_pin >> 8) & 0x03 ) << 18);
     84c:	400107b7          	lui	a5,0x40010
     850:	4fd4                	lw	a3,28(a5)
     852:	fd442783          	lw	a5,-44(s0)
     856:	83a1                	srli	a5,a5,0x8
     858:	01279713          	slli	a4,a5,0x12
     85c:	000c07b7          	lui	a5,0xc0
     860:	8f7d                	and	a4,a4,a5
     862:	400107b7          	lui	a5,0x40010
     866:	8f55                	or	a4,a4,a3
     868:	cfd8                	sw	a4,28(a5)
C:/Users/86152/Desktop/单车越野/我的/代码调试/Bicycle_Code/libraries/zf_driver/zf_driver_uart.c:231
           break;
     86a:	aa2d                	j	9a4 <__stack_size+0x1a4>
C:/Users/86152/Desktop/单车越野/我的/代码调试/Bicycle_Code/libraries/zf_driver/zf_driver_uart.c:234

        case UART6_MAP1_TX_B8:
            AFIO->PCFR2 &= ~(0x03<<20);
     86c:	400107b7          	lui	a5,0x40010
     870:	4fd4                	lw	a3,28(a5)
     872:	400107b7          	lui	a5,0x40010
     876:	ffd00737          	lui	a4,0xffd00
     87a:	177d                	addi	a4,a4,-1
     87c:	8f75                	and	a4,a4,a3
     87e:	cfd8                	sw	a4,28(a5)
C:/Users/86152/Desktop/单车越野/我的/代码调试/Bicycle_Code/libraries/zf_driver/zf_driver_uart.c:235
            AFIO->PCFR2 |=  (((tx_pin >> 8) & 0x03 ) << 20);
     880:	400107b7          	lui	a5,0x40010
     884:	4fd4                	lw	a3,28(a5)
     886:	fd442783          	lw	a5,-44(s0)
     88a:	83a1                	srli	a5,a5,0x8
     88c:	01479713          	slli	a4,a5,0x14
     890:	003007b7          	lui	a5,0x300
     894:	8f7d                	and	a4,a4,a5
     896:	400107b7          	lui	a5,0x40010
     89a:	8f55                	or	a4,a4,a3
     89c:	cfd8                	sw	a4,28(a5)
C:/Users/86152/Desktop/单车越野/我的/代码调试/Bicycle_Code/libraries/zf_driver/zf_driver_uart.c:236
           break;
     89e:	a219                	j	9a4 <__stack_size+0x1a4>
C:/Users/86152/Desktop/单车越野/我的/代码调试/Bicycle_Code/libraries/zf_driver/zf_driver_uart.c:239

        case UART6_MAP3_TX_E10:
            AFIO->PCFR2 &= ~(0x03<<20);
     8a0:	400107b7          	lui	a5,0x40010
     8a4:	4fd4                	lw	a3,28(a5)
     8a6:	400107b7          	lui	a5,0x40010
     8aa:	ffd00737          	lui	a4,0xffd00
     8ae:	177d                	addi	a4,a4,-1
     8b0:	8f75                	and	a4,a4,a3
     8b2:	cfd8                	sw	a4,28(a5)
C:/Users/86152/Desktop/单车越野/我的/代码调试/Bicycle_Code/libraries/zf_driver/zf_driver_uart.c:240
            AFIO->PCFR2 |=  (((tx_pin >> 8) & 0x03 ) << 20);
     8b4:	400107b7          	lui	a5,0x40010
     8b8:	4fd4                	lw	a3,28(a5)
     8ba:	fd442783          	lw	a5,-44(s0)
     8be:	83a1                	srli	a5,a5,0x8
     8c0:	01479713          	slli	a4,a5,0x14
     8c4:	003007b7          	lui	a5,0x300
     8c8:	8f7d                	and	a4,a4,a5
     8ca:	400107b7          	lui	a5,0x40010
     8ce:	8f55                	or	a4,a4,a3
     8d0:	cfd8                	sw	a4,28(a5)
C:/Users/86152/Desktop/单车越野/我的/代码调试/Bicycle_Code/libraries/zf_driver/zf_driver_uart.c:241
           break;
     8d2:	a8c9                	j	9a4 <__stack_size+0x1a4>
C:/Users/86152/Desktop/单车越野/我的/代码调试/Bicycle_Code/libraries/zf_driver/zf_driver_uart.c:244

        case UART7_MAP1_TX_A6:
            AFIO->PCFR2 &= ~(0x03<<22);
     8d4:	400107b7          	lui	a5,0x40010
     8d8:	4fd4                	lw	a3,28(a5)
     8da:	400107b7          	lui	a5,0x40010
     8de:	ff400737          	lui	a4,0xff400
     8e2:	177d                	addi	a4,a4,-1
     8e4:	8f75                	and	a4,a4,a3
     8e6:	cfd8                	sw	a4,28(a5)
C:/Users/86152/Desktop/单车越野/我的/代码调试/Bicycle_Code/libraries/zf_driver/zf_driver_uart.c:245
            AFIO->PCFR2 |=  (((tx_pin >> 8) & 0x03 ) << 22);
     8e8:	400107b7          	lui	a5,0x40010
     8ec:	4fd4                	lw	a3,28(a5)
     8ee:	fd442783          	lw	a5,-44(s0)
     8f2:	83a1                	srli	a5,a5,0x8
     8f4:	01679713          	slli	a4,a5,0x16
     8f8:	00c007b7          	lui	a5,0xc00
     8fc:	8f7d                	and	a4,a4,a5
     8fe:	400107b7          	lui	a5,0x40010
     902:	8f55                	or	a4,a4,a3
     904:	cfd8                	sw	a4,28(a5)
C:/Users/86152/Desktop/单车越野/我的/代码调试/Bicycle_Code/libraries/zf_driver/zf_driver_uart.c:246
           break;
     906:	a879                	j	9a4 <__stack_size+0x1a4>
C:/Users/86152/Desktop/单车越野/我的/代码调试/Bicycle_Code/libraries/zf_driver/zf_driver_uart.c:249

        case UART7_MAP3_TX_E12:
            AFIO->PCFR2 &= ~(0x03<<22);
     908:	400107b7          	lui	a5,0x40010
     90c:	4fd4                	lw	a3,28(a5)
     90e:	400107b7          	lui	a5,0x40010
     912:	ff400737          	lui	a4,0xff400
     916:	177d                	addi	a4,a4,-1
     918:	8f75                	and	a4,a4,a3
     91a:	cfd8                	sw	a4,28(a5)
C:/Users/86152/Desktop/单车越野/我的/代码调试/Bicycle_Code/libraries/zf_driver/zf_driver_uart.c:250
            AFIO->PCFR2 |=  (((tx_pin >> 8) & 0x03 ) << 22);
     91c:	400107b7          	lui	a5,0x40010
     920:	4fd4                	lw	a3,28(a5)
     922:	fd442783          	lw	a5,-44(s0)
     926:	83a1                	srli	a5,a5,0x8
     928:	01679713          	slli	a4,a5,0x16
     92c:	00c007b7          	lui	a5,0xc00
     930:	8f7d                	and	a4,a4,a5
     932:	400107b7          	lui	a5,0x40010
     936:	8f55                	or	a4,a4,a3
     938:	cfd8                	sw	a4,28(a5)
C:/Users/86152/Desktop/单车越野/我的/代码调试/Bicycle_Code/libraries/zf_driver/zf_driver_uart.c:251
           break;
     93a:	a0ad                	j	9a4 <__stack_size+0x1a4>
C:/Users/86152/Desktop/单车越野/我的/代码调试/Bicycle_Code/libraries/zf_driver/zf_driver_uart.c:254

        case UART8_MAP1_TX_A14:
            AFIO->PCFR2 &= ~(0x03<<24);
     93c:	400107b7          	lui	a5,0x40010
     940:	4fd4                	lw	a3,28(a5)
     942:	400107b7          	lui	a5,0x40010
     946:	fd000737          	lui	a4,0xfd000
     94a:	177d                	addi	a4,a4,-1
     94c:	8f75                	and	a4,a4,a3
     94e:	cfd8                	sw	a4,28(a5)
C:/Users/86152/Desktop/单车越野/我的/代码调试/Bicycle_Code/libraries/zf_driver/zf_driver_uart.c:255
            AFIO->PCFR2 |=  (((tx_pin >> 8) & 0x03 ) << 24);
     950:	400107b7          	lui	a5,0x40010
     954:	4fd4                	lw	a3,28(a5)
     956:	fd442783          	lw	a5,-44(s0)
     95a:	83a1                	srli	a5,a5,0x8
     95c:	01879713          	slli	a4,a5,0x18
     960:	030007b7          	lui	a5,0x3000
     964:	8f7d                	and	a4,a4,a5
     966:	400107b7          	lui	a5,0x40010
     96a:	8f55                	or	a4,a4,a3
     96c:	cfd8                	sw	a4,28(a5)
C:/Users/86152/Desktop/单车越野/我的/代码调试/Bicycle_Code/libraries/zf_driver/zf_driver_uart.c:256
           break;
     96e:	a81d                	j	9a4 <__stack_size+0x1a4>
C:/Users/86152/Desktop/单车越野/我的/代码调试/Bicycle_Code/libraries/zf_driver/zf_driver_uart.c:259

        case UART8_MAP3_TX_E14:
            AFIO->PCFR2 &= ~(0x03<<24);
     970:	400107b7          	lui	a5,0x40010
     974:	4fd4                	lw	a3,28(a5)
     976:	400107b7          	lui	a5,0x40010
     97a:	fd000737          	lui	a4,0xfd000
     97e:	177d                	addi	a4,a4,-1
     980:	8f75                	and	a4,a4,a3
     982:	cfd8                	sw	a4,28(a5)
C:/Users/86152/Desktop/单车越野/我的/代码调试/Bicycle_Code/libraries/zf_driver/zf_driver_uart.c:260
            AFIO->PCFR2 |=  (((tx_pin >> 8) & 0x03 ) << 24);
     984:	400107b7          	lui	a5,0x40010
     988:	4fd4                	lw	a3,28(a5)
     98a:	fd442783          	lw	a5,-44(s0)
     98e:	83a1                	srli	a5,a5,0x8
     990:	01879713          	slli	a4,a5,0x18
     994:	030007b7          	lui	a5,0x3000
     998:	8f7d                	and	a4,a4,a5
     99a:	400107b7          	lui	a5,0x40010
     99e:	8f55                	or	a4,a4,a3
     9a0:	cfd8                	sw	a4,28(a5)
C:/Users/86152/Desktop/单车越野/我的/代码调试/Bicycle_Code/libraries/zf_driver/zf_driver_uart.c:261
           break;
     9a2:	0001                	nop
C:/Users/86152/Desktop/单车越野/我的/代码调试/Bicycle_Code/libraries/zf_driver/zf_driver_uart.c:266
    }


    // 串口总线使能
    if(UART_1 == uart_n)        RCC_APB2PeriphClockCmd(RCC_APB2Periph_USART1, ENABLE);
     9a4:	fdc42783          	lw	a5,-36(s0)
     9a8:	e791                	bnez	a5,9b4 <__stack_size+0x1b4>
C:/Users/86152/Desktop/单车越野/我的/代码调试/Bicycle_Code/libraries/zf_driver/zf_driver_uart.c:266 (discriminator 1)
     9aa:	4585                	li	a1,1
     9ac:	6511                	lui	a0,0x4
     9ae:	141020ef          	jal	ra,32ee <RCC_APB2PeriphClockCmd>
     9b2:	a869                	j	a4c <__stack_size+0x24c>
C:/Users/86152/Desktop/单车越野/我的/代码调试/Bicycle_Code/libraries/zf_driver/zf_driver_uart.c:267
    else if(UART_2 == uart_n)   RCC_APB1PeriphClockCmd(RCC_APB1Periph_USART2, ENABLE);
     9b4:	fdc42703          	lw	a4,-36(s0)
     9b8:	4785                	li	a5,1
     9ba:	00f71863          	bne	a4,a5,9ca <__stack_size+0x1ca>
C:/Users/86152/Desktop/单车越野/我的/代码调试/Bicycle_Code/libraries/zf_driver/zf_driver_uart.c:267 (discriminator 1)
     9be:	4585                	li	a1,1
     9c0:	00020537          	lui	a0,0x20
     9c4:	171020ef          	jal	ra,3334 <RCC_APB1PeriphClockCmd>
     9c8:	a051                	j	a4c <__stack_size+0x24c>
C:/Users/86152/Desktop/单车越野/我的/代码调试/Bicycle_Code/libraries/zf_driver/zf_driver_uart.c:268
    else if(UART_3 == uart_n)   RCC_APB1PeriphClockCmd(RCC_APB1Periph_USART3, ENABLE);
     9ca:	fdc42703          	lw	a4,-36(s0)
     9ce:	4789                	li	a5,2
     9d0:	00f71863          	bne	a4,a5,9e0 <__stack_size+0x1e0>
C:/Users/86152/Desktop/单车越野/我的/代码调试/Bicycle_Code/libraries/zf_driver/zf_driver_uart.c:268 (discriminator 1)
     9d4:	4585                	li	a1,1
     9d6:	00040537          	lui	a0,0x40
     9da:	15b020ef          	jal	ra,3334 <RCC_APB1PeriphClockCmd>
     9de:	a0bd                	j	a4c <__stack_size+0x24c>
C:/Users/86152/Desktop/单车越野/我的/代码调试/Bicycle_Code/libraries/zf_driver/zf_driver_uart.c:269
    else if(UART_4 == uart_n)   RCC_APB1PeriphClockCmd(RCC_APB1Periph_UART4,  ENABLE);
     9e0:	fdc42703          	lw	a4,-36(s0)
     9e4:	478d                	li	a5,3
     9e6:	00f71863          	bne	a4,a5,9f6 <__stack_size+0x1f6>
C:/Users/86152/Desktop/单车越野/我的/代码调试/Bicycle_Code/libraries/zf_driver/zf_driver_uart.c:269 (discriminator 1)
     9ea:	4585                	li	a1,1
     9ec:	00080537          	lui	a0,0x80
     9f0:	145020ef          	jal	ra,3334 <RCC_APB1PeriphClockCmd>
     9f4:	a8a1                	j	a4c <__stack_size+0x24c>
C:/Users/86152/Desktop/单车越野/我的/代码调试/Bicycle_Code/libraries/zf_driver/zf_driver_uart.c:270
    else if(UART_5 == uart_n)   RCC_APB1PeriphClockCmd(RCC_APB1Periph_UART5,  ENABLE);
     9f6:	fdc42703          	lw	a4,-36(s0)
     9fa:	4791                	li	a5,4
     9fc:	00f71863          	bne	a4,a5,a0c <__stack_size+0x20c>
C:/Users/86152/Desktop/单车越野/我的/代码调试/Bicycle_Code/libraries/zf_driver/zf_driver_uart.c:270 (discriminator 1)
     a00:	4585                	li	a1,1
     a02:	00100537          	lui	a0,0x100
     a06:	12f020ef          	jal	ra,3334 <RCC_APB1PeriphClockCmd>
     a0a:	a089                	j	a4c <__stack_size+0x24c>
C:/Users/86152/Desktop/单车越野/我的/代码调试/Bicycle_Code/libraries/zf_driver/zf_driver_uart.c:271
    else if(UART_6 == uart_n)   RCC_APB1PeriphClockCmd(RCC_APB1Periph_UART6,  ENABLE);
     a0c:	fdc42703          	lw	a4,-36(s0)
     a10:	4795                	li	a5,5
     a12:	00f71863          	bne	a4,a5,a22 <__stack_size+0x222>
C:/Users/86152/Desktop/单车越野/我的/代码调试/Bicycle_Code/libraries/zf_driver/zf_driver_uart.c:271 (discriminator 1)
     a16:	4585                	li	a1,1
     a18:	04000513          	li	a0,64
     a1c:	119020ef          	jal	ra,3334 <RCC_APB1PeriphClockCmd>
     a20:	a035                	j	a4c <__stack_size+0x24c>
C:/Users/86152/Desktop/单车越野/我的/代码调试/Bicycle_Code/libraries/zf_driver/zf_driver_uart.c:272
    else if(UART_7 == uart_n)   RCC_APB1PeriphClockCmd(RCC_APB1Periph_UART7,  ENABLE);
     a22:	fdc42703          	lw	a4,-36(s0)
     a26:	4799                	li	a5,6
     a28:	00f71863          	bne	a4,a5,a38 <__stack_size+0x238>
C:/Users/86152/Desktop/单车越野/我的/代码调试/Bicycle_Code/libraries/zf_driver/zf_driver_uart.c:272 (discriminator 1)
     a2c:	4585                	li	a1,1
     a2e:	08000513          	li	a0,128
     a32:	103020ef          	jal	ra,3334 <RCC_APB1PeriphClockCmd>
     a36:	a819                	j	a4c <__stack_size+0x24c>
C:/Users/86152/Desktop/单车越野/我的/代码调试/Bicycle_Code/libraries/zf_driver/zf_driver_uart.c:273
    else if(UART_8 == uart_n)   RCC_APB1PeriphClockCmd(RCC_APB1Periph_UART8,  ENABLE);
     a38:	fdc42703          	lw	a4,-36(s0)
     a3c:	479d                	li	a5,7
     a3e:	00f71763          	bne	a4,a5,a4c <__stack_size+0x24c>
C:/Users/86152/Desktop/单车越野/我的/代码调试/Bicycle_Code/libraries/zf_driver/zf_driver_uart.c:273 (discriminator 1)
     a42:	4585                	li	a1,1
     a44:	10000513          	li	a0,256
     a48:	0ed020ef          	jal	ra,3334 <RCC_APB1PeriphClockCmd>
C:/Users/86152/Desktop/单车越野/我的/代码调试/Bicycle_Code/libraries/zf_driver/zf_driver_uart.c:276

    // 串口参数配置
    USART_InitTypeDef USART_InitStructure = {0};
     a4c:	fe042023          	sw	zero,-32(s0)
     a50:	fe042223          	sw	zero,-28(s0)
     a54:	fe042423          	sw	zero,-24(s0)
     a58:	fe042623          	sw	zero,-20(s0)
C:/Users/86152/Desktop/单车越野/我的/代码调试/Bicycle_Code/libraries/zf_driver/zf_driver_uart.c:277
    USART_InitStructure.USART_BaudRate = baud;
     a5c:	fd842783          	lw	a5,-40(s0)
     a60:	fef42023          	sw	a5,-32(s0)
C:/Users/86152/Desktop/单车越野/我的/代码调试/Bicycle_Code/libraries/zf_driver/zf_driver_uart.c:278
    USART_InitStructure.USART_WordLength = USART_WordLength_8b;
     a64:	fe041223          	sh	zero,-28(s0)
C:/Users/86152/Desktop/单车越野/我的/代码调试/Bicycle_Code/libraries/zf_driver/zf_driver_uart.c:279
    USART_InitStructure.USART_StopBits = USART_StopBits_1;
     a68:	fe041323          	sh	zero,-26(s0)
C:/Users/86152/Desktop/单车越野/我的/代码调试/Bicycle_Code/libraries/zf_driver/zf_driver_uart.c:280
    USART_InitStructure.USART_Parity = USART_Parity_No;
     a6c:	fe041423          	sh	zero,-24(s0)
C:/Users/86152/Desktop/单车越野/我的/代码调试/Bicycle_Code/libraries/zf_driver/zf_driver_uart.c:281
    USART_InitStructure.USART_HardwareFlowControl = USART_HardwareFlowControl_None;
     a70:	fe041623          	sh	zero,-20(s0)
C:/Users/86152/Desktop/单车越野/我的/代码调试/Bicycle_Code/libraries/zf_driver/zf_driver_uart.c:282
    USART_InitStructure.USART_Mode = USART_Mode_Tx | USART_Mode_Rx;
     a74:	47b1                	li	a5,12
     a76:	fef41523          	sh	a5,-22(s0)
C:/Users/86152/Desktop/单车越野/我的/代码调试/Bicycle_Code/libraries/zf_driver/zf_driver_uart.c:285

    // 使能串口
    USART_Init((USART_TypeDef*)uart_index[uart_n], &USART_InitStructure);
     a7a:	67a9                	lui	a5,0xa
     a7c:	fdc42703          	lw	a4,-36(s0)
     a80:	070a                	slli	a4,a4,0x2
     a82:	62478793          	addi	a5,a5,1572 # a624 <uart_index>
     a86:	97ba                	add	a5,a5,a4
     a88:	439c                	lw	a5,0(a5)
     a8a:	873e                	mv	a4,a5
     a8c:	fe040793          	addi	a5,s0,-32
     a90:	85be                	mv	a1,a5
     a92:	853a                	mv	a0,a4
     a94:	185020ef          	jal	ra,3418 <USART_Init>
C:/Users/86152/Desktop/单车越野/我的/代码调试/Bicycle_Code/libraries/zf_driver/zf_driver_uart.c:286
    USART_Cmd((USART_TypeDef*)uart_index[uart_n], ENABLE);
     a98:	67a9                	lui	a5,0xa
     a9a:	fdc42703          	lw	a4,-36(s0)
     a9e:	070a                	slli	a4,a4,0x2
     aa0:	62478793          	addi	a5,a5,1572 # a624 <uart_index>
     aa4:	97ba                	add	a5,a5,a4
     aa6:	439c                	lw	a5,0(a5)
     aa8:	4585                	li	a1,1
     aaa:	853e                	mv	a0,a5
     aac:	3a1020ef          	jal	ra,364c <USART_Cmd>
C:/Users/86152/Desktop/单车越野/我的/代码调试/Bicycle_Code/libraries/zf_driver/zf_driver_uart.c:288

}
     ab0:	0001                	nop
     ab2:	50b2                	lw	ra,44(sp)
     ab4:	5422                	lw	s0,40(sp)
     ab6:	6145                	addi	sp,sp,48
     ab8:	8082                	ret

00000aba <gps_uart_callback>:
gps_uart_callback():
C:/Users/86152/Desktop/单车越野/我的/代码调试/Bicycle_Code/libraries/zf_device/zf_device_gps_tau1201.c:438
// 杩     void
// 浣跨ㄧず渚     gps_uart_callback();
// 澶娉ㄤ俊     姝ゅ芥伴瑕ㄤ覆ｆユ朵腑杩琛璋
//-------------------------------------------------------------------------------------------------------------------
void gps_uart_callback (void)
{
     aba:	1101                	addi	sp,sp,-32
     abc:	ce06                	sw	ra,28(sp)
     abe:	cc22                	sw	s0,24(sp)
     ac0:	1000                	addi	s0,sp,32
C:/Users/86152/Desktop/单车越野/我的/代码调试/Bicycle_Code/libraries/zf_device/zf_device_gps_tau1201.c:442
    uint8 temp_gps[6];
    uint32 temp_length;

    if(gps_tau1201_state)
     ac2:	8311c783          	lbu	a5,-1999(gp) # 20000269 <gps_tau1201_state>
     ac6:	0e078963          	beqz	a5,bb8 <gps_uart_callback+0xfe>
C:/Users/86152/Desktop/单车越野/我的/代码调试/Bicycle_Code/libraries/zf_device/zf_device_gps_tau1201.c:445
    {
        uint8 dat;
        while(uart_query_byte(GPS_TAU1201_UART, &dat))
     aca:	a809                	j	adc <gps_uart_callback+0x22>
C:/Users/86152/Desktop/单车越野/我的/代码调试/Bicycle_Code/libraries/zf_device/zf_device_gps_tau1201.c:447
        {
            fifo_write_buffer(&gps_tau1201_receiver_fifo, &dat, 1);
     acc:	fe340793          	addi	a5,s0,-29
     ad0:	4605                	li	a2,1
     ad2:	85be                	mv	a1,a5
     ad4:	87018513          	addi	a0,gp,-1936 # 200002a8 <gps_tau1201_receiver_fifo>
     ad8:	511000ef          	jal	ra,17e8 <fifo_write_buffer>
C:/Users/86152/Desktop/单车越野/我的/代码调试/Bicycle_Code/libraries/zf_device/zf_device_gps_tau1201.c:445
        while(uart_query_byte(GPS_TAU1201_UART, &dat))
     adc:	fe340793          	addi	a5,s0,-29
     ae0:	85be                	mv	a1,a5
     ae2:	451d                	li	a0,7
     ae4:	3ad9                	jal	4ba <uart_query_byte>
     ae6:	87aa                	mv	a5,a0
     ae8:	f3f5                	bnez	a5,acc <gps_uart_callback+0x12>
C:/Users/86152/Desktop/单车越野/我的/代码调试/Bicycle_Code/libraries/zf_device/zf_device_gps_tau1201.c:450
        }
        
        if('\n' == dat)
     aea:	fe344703          	lbu	a4,-29(s0)
     aee:	47a9                	li	a5,10
     af0:	0cf71463          	bne	a4,a5,bb8 <gps_uart_callback+0xfe>
C:/Users/86152/Desktop/单车越野/我的/代码调试/Bicycle_Code/libraries/zf_device/zf_device_gps_tau1201.c:453
        {
            // 璇诲6涓版 ㄤゆ璇ョ被
            temp_length = 6;
     af4:	4799                	li	a5,6
     af6:	fef42223          	sw	a5,-28(s0)
C:/Users/86152/Desktop/单车越野/我的/代码调试/Bicycle_Code/libraries/zf_device/zf_device_gps_tau1201.c:454
            fifo_read_buffer(&gps_tau1201_receiver_fifo, temp_gps, &temp_length, FIFO_READ_ONLY);
     afa:	fe440713          	addi	a4,s0,-28
     afe:	fe840793          	addi	a5,s0,-24
     b02:	4685                	li	a3,1
     b04:	863a                	mv	a2,a4
     b06:	85be                	mv	a1,a5
     b08:	87018513          	addi	a0,gp,-1936 # 200002a8 <gps_tau1201_receiver_fifo>
     b0c:	7cd000ef          	jal	ra,1ad8 <fifo_read_buffer>
C:/Users/86152/Desktop/单车越野/我的/代码调试/Bicycle_Code/libraries/zf_device/zf_device_gps_tau1201.c:457
            
            // 规涓绫诲灏版疯颁缂插
            if(0 == strncmp((char *)&temp_gps[3], "RMC", 3))
     b10:	fe840793          	addi	a5,s0,-24
     b14:	00378713          	addi	a4,a5,3
     b18:	460d                	li	a2,3
     b1a:	67a9                	lui	a5,0xa
     b1c:	41878593          	addi	a1,a5,1048 # a418 <_sbrk+0x82>
     b20:	853a                	mv	a0,a4
     b22:	62d060ef          	jal	ra,794e <strncmp>
     b26:	87aa                	mv	a5,a0
     b28:	eb9d                	bnez	a5,b5e <gps_uart_callback+0xa4>
C:/Users/86152/Desktop/单车越野/我的/代码调试/Bicycle_Code/libraries/zf_device/zf_device_gps_tau1201.c:460
            {
                // 濡娌℃ㄨВ版存扮插虹版
                if(GPS_STATE_PARSING != gps_rmc_state)
     b2a:	8381a703          	lw	a4,-1992(gp) # 20000270 <gps_rmc_state>
     b2e:	4789                	li	a5,2
     b30:	06f70d63          	beq	a4,a5,baa <gps_uart_callback+0xf0>
C:/Users/86152/Desktop/单车越野/我的/代码调试/Bicycle_Code/libraries/zf_device/zf_device_gps_tau1201.c:462
                {
                    gps_rmc_state = GPS_STATE_RECEIVED;
     b34:	4705                	li	a4,1
     b36:	82e1ac23          	sw	a4,-1992(gp) # 20000270 <gps_rmc_state>
C:/Users/86152/Desktop/单车越野/我的/代码调试/Bicycle_Code/libraries/zf_device/zf_device_gps_tau1201.c:463
                    temp_length = fifo_used(&gps_tau1201_receiver_fifo);
     b3a:	87018513          	addi	a0,gp,-1936 # 200002a8 <gps_tau1201_receiver_fifo>
     b3e:	469000ef          	jal	ra,17a6 <fifo_used>
     b42:	87aa                	mv	a5,a0
     b44:	fef42223          	sw	a5,-28(s0)
C:/Users/86152/Desktop/单车越野/我的/代码调试/Bicycle_Code/libraries/zf_device/zf_device_gps_tau1201.c:464
                    fifo_read_buffer(&gps_tau1201_receiver_fifo, gps_rmc_buffer, &temp_length, FIFO_READ_AND_CLEAN);
     b48:	fe440793          	addi	a5,s0,-28
     b4c:	4681                	li	a3,0
     b4e:	863e                	mv	a2,a5
     b50:	90c18593          	addi	a1,gp,-1780 # 20000344 <gps_rmc_buffer>
     b54:	87018513          	addi	a0,gp,-1936 # 200002a8 <gps_tau1201_receiver_fifo>
     b58:	781000ef          	jal	ra,1ad8 <fifo_read_buffer>
     b5c:	a0b9                	j	baa <gps_uart_callback+0xf0>
C:/Users/86152/Desktop/单车越野/我的/代码调试/Bicycle_Code/libraries/zf_device/zf_device_gps_tau1201.c:467
                }
            }
            else if(0 == strncmp((char *)&temp_gps[3], "GGA", 3))
     b5e:	fe840793          	addi	a5,s0,-24
     b62:	00378713          	addi	a4,a5,3
     b66:	460d                	li	a2,3
     b68:	67a9                	lui	a5,0xa
     b6a:	41c78593          	addi	a1,a5,1052 # a41c <_sbrk+0x86>
     b6e:	853a                	mv	a0,a4
     b70:	5df060ef          	jal	ra,794e <strncmp>
     b74:	87aa                	mv	a5,a0
     b76:	eb95                	bnez	a5,baa <gps_uart_callback+0xf0>
C:/Users/86152/Desktop/单车越野/我的/代码调试/Bicycle_Code/libraries/zf_device/zf_device_gps_tau1201.c:470
            {
                // 濡娌℃ㄨВ版存扮插虹版
                if(GPS_STATE_PARSING != gps_gga_state)
     b78:	8341a703          	lw	a4,-1996(gp) # 2000026c <gps_gga_state>
     b7c:	4789                	li	a5,2
     b7e:	02f70663          	beq	a4,a5,baa <gps_uart_callback+0xf0>
C:/Users/86152/Desktop/单车越野/我的/代码调试/Bicycle_Code/libraries/zf_device/zf_device_gps_tau1201.c:472
                {
                    gps_gga_state = GPS_STATE_RECEIVED;
     b82:	4705                	li	a4,1
     b84:	82e1aa23          	sw	a4,-1996(gp) # 2000026c <gps_gga_state>
C:/Users/86152/Desktop/单车越野/我的/代码调试/Bicycle_Code/libraries/zf_device/zf_device_gps_tau1201.c:473
                    temp_length = fifo_used(&gps_tau1201_receiver_fifo);
     b88:	87018513          	addi	a0,gp,-1936 # 200002a8 <gps_tau1201_receiver_fifo>
     b8c:	41b000ef          	jal	ra,17a6 <fifo_used>
     b90:	87aa                	mv	a5,a0
     b92:	fef42223          	sw	a5,-28(s0)
C:/Users/86152/Desktop/单车越野/我的/代码调试/Bicycle_Code/libraries/zf_device/zf_device_gps_tau1201.c:474
                    fifo_read_buffer(&gps_tau1201_receiver_fifo, gps_gga_buffer, &temp_length, FIFO_READ_AND_CLEAN);
     b96:	fe440793          	addi	a5,s0,-28
     b9a:	4681                	li	a3,0
     b9c:	863e                	mv	a2,a5
     b9e:	88c18593          	addi	a1,gp,-1908 # 200002c4 <gps_gga_buffer>
     ba2:	87018513          	addi	a0,gp,-1936 # 200002a8 <gps_tau1201_receiver_fifo>
     ba6:	733000ef          	jal	ra,1ad8 <fifo_read_buffer>
C:/Users/86152/Desktop/单车越野/我的/代码调试/Bicycle_Code/libraries/zf_device/zf_device_gps_tau1201.c:479
                }
            }
            
            // 缁涓灏FIFO娓绌
            fifo_clear(&gps_tau1201_receiver_fifo);
     baa:	87018513          	addi	a0,gp,-1936 # 200002a8 <gps_tau1201_receiver_fifo>
     bae:	2fb000ef          	jal	ra,16a8 <fifo_clear>
C:/Users/86152/Desktop/单车越野/我的/代码调试/Bicycle_Code/libraries/zf_device/zf_device_gps_tau1201.c:481

            gps_tau1201_flag = 1;
     bb2:	4705                	li	a4,1
     bb4:	82e18823          	sb	a4,-2000(gp) # 20000268 <_edata>
C:/Users/86152/Desktop/单车越野/我的/代码调试/Bicycle_Code/libraries/zf_device/zf_device_gps_tau1201.c:484
        }
    }
}
     bb8:	0001                	nop
     bba:	40f2                	lw	ra,28(sp)
     bbc:	4462                	lw	s0,24(sp)
     bbe:	6105                	addi	sp,sp,32
     bc0:	8082                	ret

00000bc2 <type_default_callback>:
type_default_callback():
C:/Users/86152/Desktop/单车越野/我的/代码调试/Bicycle_Code/libraries/zf_device/zf_device_type.c:56
// 返回参数     void
// 使用示例
// 备注信息     保护性冗余设计 防止在没有初始化设备的时候跑飞
//-------------------------------------------------------------------------------------------------------------------
static void type_default_callback (void)
{
     bc2:	1141                	addi	sp,sp,-16
     bc4:	c622                	sw	s0,12(sp)
     bc6:	0800                	addi	s0,sp,16
C:/Users/86152/Desktop/单车越野/我的/代码调试/Bicycle_Code/libraries/zf_device/zf_device_type.c:57
}
     bc8:	0001                	nop
     bca:	4432                	lw	s0,12(sp)
     bcc:	0141                	addi	sp,sp,16
     bce:	8082                	ret

00000bd0 <clock_reset>:
clock_reset():
C:/Users/86152/Desktop/单车越野/我的/代码调试/Bicycle_Code/libraries/zf_common/zf_common_clock.c:50
// 函数简介      核心时钟恢复初始设置 内部调用
// 参数说明     void
// 返回参数     void
//-------------------------------------------------------------------------------------------------------------------
static void clock_reset(void)
{
     bd0:	1141                	addi	sp,sp,-16
     bd2:	c622                	sw	s0,12(sp)
     bd4:	0800                	addi	s0,sp,16
C:/Users/86152/Desktop/单车越野/我的/代码调试/Bicycle_Code/libraries/zf_common/zf_common_clock.c:51
    RCC->CTLR  |= (uint32) 0x00000001;      //使能HSI振荡器
     bd6:	400217b7          	lui	a5,0x40021
     bda:	4398                	lw	a4,0(a5)
     bdc:	400217b7          	lui	a5,0x40021
     be0:	00176713          	ori	a4,a4,1
     be4:	c398                	sw	a4,0(a5)
C:/Users/86152/Desktop/单车越野/我的/代码调试/Bicycle_Code/libraries/zf_common/zf_common_clock.c:52
    RCC->CFGR0 &= (uint32) 0xF8FF0000;
     be6:	400217b7          	lui	a5,0x40021
     bea:	43d4                	lw	a3,4(a5)
     bec:	400217b7          	lui	a5,0x40021
     bf0:	f8ff0737          	lui	a4,0xf8ff0
     bf4:	8f75                	and	a4,a4,a3
     bf6:	c3d8                	sw	a4,4(a5)
C:/Users/86152/Desktop/单车越野/我的/代码调试/Bicycle_Code/libraries/zf_common/zf_common_clock.c:53
    RCC->CTLR  &= (uint32) 0xFEF6FFFF;
     bf8:	400217b7          	lui	a5,0x40021
     bfc:	4394                	lw	a3,0(a5)
     bfe:	400217b7          	lui	a5,0x40021
     c02:	fef70737          	lui	a4,0xfef70
     c06:	177d                	addi	a4,a4,-1
     c08:	8f75                	and	a4,a4,a3
     c0a:	c398                	sw	a4,0(a5)
C:/Users/86152/Desktop/单车越野/我的/代码调试/Bicycle_Code/libraries/zf_common/zf_common_clock.c:54
    RCC->CTLR  &= (uint32) 0xFFFBFFFF;
     c0c:	400217b7          	lui	a5,0x40021
     c10:	4394                	lw	a3,0(a5)
     c12:	400217b7          	lui	a5,0x40021
     c16:	fffc0737          	lui	a4,0xfffc0
     c1a:	177d                	addi	a4,a4,-1
     c1c:	8f75                	and	a4,a4,a3
     c1e:	c398                	sw	a4,0(a5)
C:/Users/86152/Desktop/单车越野/我的/代码调试/Bicycle_Code/libraries/zf_common/zf_common_clock.c:55
    RCC->CFGR0 &= (uint32) 0xFF80FFFF;
     c20:	400217b7          	lui	a5,0x40021
     c24:	43d4                	lw	a3,4(a5)
     c26:	400217b7          	lui	a5,0x40021
     c2a:	ff810737          	lui	a4,0xff810
     c2e:	177d                	addi	a4,a4,-1
     c30:	8f75                	and	a4,a4,a3
     c32:	c3d8                	sw	a4,4(a5)
C:/Users/86152/Desktop/单车越野/我的/代码调试/Bicycle_Code/libraries/zf_common/zf_common_clock.c:56
    RCC->INTR   = (uint32) 0x009F0000;      // 禁用所有中断并清除挂起位
     c34:	400217b7          	lui	a5,0x40021
     c38:	009f0737          	lui	a4,0x9f0
     c3c:	c798                	sw	a4,8(a5)
C:/Users/86152/Desktop/单车越野/我的/代码调试/Bicycle_Code/libraries/zf_common/zf_common_clock.c:57
}
     c3e:	0001                	nop
     c40:	4432                	lw	s0,12(sp)
     c42:	0141                	addi	sp,sp,16
     c44:	8082                	ret

00000c46 <clock_set_freq>:
clock_set_freq():
C:/Users/86152/Desktop/单车越野/我的/代码调试/Bicycle_Code/libraries/zf_common/zf_common_clock.c:65
// 函数简介      核心时钟设置
// 参数说明     clock           时钟频率 推荐使用 zf_common_clock.h 中 system_clock_enum 定义的选项
// 返回参数     void
//-------------------------------------------------------------------------------------------------------------------
static void clock_set_freq(uint32 clock)
{
     c46:	7179                	addi	sp,sp,-48
     c48:	d622                	sw	s0,44(sp)
     c4a:	1800                	addi	s0,sp,48
     c4c:	fca42e23          	sw	a0,-36(s0)
C:/Users/86152/Desktop/单车越野/我的/代码调试/Bicycle_Code/libraries/zf_common/zf_common_clock.c:66
    __IO uint32_t StartUpCounter = 0, HSEStatus = 0;
     c50:	fe042623          	sw	zero,-20(s0)
     c54:	fe042423          	sw	zero,-24(s0)
C:/Users/86152/Desktop/单车越野/我的/代码调试/Bicycle_Code/libraries/zf_common/zf_common_clock.c:68

    RCC->CTLR |= ((uint32_t) RCC_HSEON);
     c58:	400217b7          	lui	a5,0x40021
     c5c:	4394                	lw	a3,0(a5)
     c5e:	400217b7          	lui	a5,0x40021
     c62:	6741                	lui	a4,0x10
     c64:	8f55                	or	a4,a4,a3
     c66:	c398                	sw	a4,0(a5)
C:/Users/86152/Desktop/单车越野/我的/代码调试/Bicycle_Code/libraries/zf_common/zf_common_clock.c:72 (discriminator 2)

    /* Wait till HSE is ready and if Time out is reached exit */
    do {
        HSEStatus = RCC->CTLR & RCC_HSERDY;
     c68:	400217b7          	lui	a5,0x40021
     c6c:	4398                	lw	a4,0(a5)
     c6e:	000207b7          	lui	a5,0x20
     c72:	8ff9                	and	a5,a5,a4
     c74:	fef42423          	sw	a5,-24(s0)
C:/Users/86152/Desktop/单车越野/我的/代码调试/Bicycle_Code/libraries/zf_common/zf_common_clock.c:73 (discriminator 2)
        StartUpCounter++;
     c78:	fec42783          	lw	a5,-20(s0)
     c7c:	0785                	addi	a5,a5,1
     c7e:	fef42623          	sw	a5,-20(s0)
C:/Users/86152/Desktop/单车越野/我的/代码调试/Bicycle_Code/libraries/zf_common/zf_common_clock.c:74 (discriminator 2)
    } while ((HSEStatus == 0) && (StartUpCounter != HSE_STARTUP_TIMEOUT));
     c82:	fe842783          	lw	a5,-24(s0)
     c86:	e791                	bnez	a5,c92 <clock_set_freq+0x4c>
C:/Users/86152/Desktop/单车越野/我的/代码调试/Bicycle_Code/libraries/zf_common/zf_common_clock.c:74 (discriminator 1)
     c88:	fec42703          	lw	a4,-20(s0)
     c8c:	6785                	lui	a5,0x1
     c8e:	fcf71de3          	bne	a4,a5,c68 <clock_set_freq+0x22>
C:/Users/86152/Desktop/单车越野/我的/代码调试/Bicycle_Code/libraries/zf_common/zf_common_clock.c:76

    if ((RCC->CTLR & RCC_HSERDY) != RESET)
     c92:	400217b7          	lui	a5,0x40021
     c96:	4398                	lw	a4,0(a5)
     c98:	000207b7          	lui	a5,0x20
     c9c:	8ff9                	and	a5,a5,a4
     c9e:	c789                	beqz	a5,ca8 <clock_set_freq+0x62>
C:/Users/86152/Desktop/单车越野/我的/代码调试/Bicycle_Code/libraries/zf_common/zf_common_clock.c:78
    {
        HSEStatus = (uint32_t) 0x01;
     ca0:	4785                	li	a5,1
     ca2:	fef42423          	sw	a5,-24(s0)
     ca6:	a019                	j	cac <clock_set_freq+0x66>
C:/Users/86152/Desktop/单车越野/我的/代码调试/Bicycle_Code/libraries/zf_common/zf_common_clock.c:82
    }
    else
    {
        HSEStatus = (uint32_t) 0x00;
     ca8:	fe042423          	sw	zero,-24(s0)
C:/Users/86152/Desktop/单车越野/我的/代码调试/Bicycle_Code/libraries/zf_common/zf_common_clock.c:85
    }

    if (HSEStatus == (uint32_t) 0x01)
     cac:	fe842703          	lw	a4,-24(s0)
     cb0:	4785                	li	a5,1
     cb2:	16f71263          	bne	a4,a5,e16 <clock_set_freq+0x1d0>
C:/Users/86152/Desktop/单车越野/我的/代码调试/Bicycle_Code/libraries/zf_common/zf_common_clock.c:96
//        /* Flash 2 wait state */
//        FLASH->ACTLR &= (uint32_t)((uint32_t)~FLASH_ACTLR_LATENCY);   ((uint8_t)0x03)
//        FLASH->ACTLR |= (uint32_t)FLASH_ACTLR_LATENCY_2;              ((uint8_t)0x02)

        /* HCLK = SYSCLK */
        RCC->CFGR0 |= (uint32_t) RCC_HPRE_DIV1;
     cb6:	40021737          	lui	a4,0x40021
     cba:	400217b7          	lui	a5,0x40021
     cbe:	4358                	lw	a4,4(a4)
     cc0:	c3d8                	sw	a4,4(a5)
C:/Users/86152/Desktop/单车越野/我的/代码调试/Bicycle_Code/libraries/zf_common/zf_common_clock.c:98
        /* PCLK2 = HCLK */
        RCC->CFGR0 |= (uint32_t) RCC_PPRE2_DIV1;
     cc2:	40021737          	lui	a4,0x40021
     cc6:	400217b7          	lui	a5,0x40021
     cca:	4358                	lw	a4,4(a4)
     ccc:	c3d8                	sw	a4,4(a5)
C:/Users/86152/Desktop/单车越野/我的/代码调试/Bicycle_Code/libraries/zf_common/zf_common_clock.c:100
        /* PCLK1 = HCLK */
        RCC->CFGR0 |= (uint32_t) RCC_PPRE1_DIV1;
     cce:	40021737          	lui	a4,0x40021
     cd2:	400217b7          	lui	a5,0x40021
     cd6:	4358                	lw	a4,4(a4)
     cd8:	c3d8                	sw	a4,4(a5)
C:/Users/86152/Desktop/单车越野/我的/代码调试/Bicycle_Code/libraries/zf_common/zf_common_clock.c:103

        /*  PLL configuration: PLLCLK = HSE * ? = ? MHz */
        RCC->CFGR0 &= (uint32) ((uint32) ~(RCC_PLLSRC | RCC_PLLXTPRE
     cda:	400217b7          	lui	a5,0x40021
     cde:	43d4                	lw	a3,4(a5)
     ce0:	400217b7          	lui	a5,0x40021
     ce4:	ffc10737          	lui	a4,0xffc10
     ce8:	177d                	addi	a4,a4,-1
     cea:	8f75                	and	a4,a4,a3
     cec:	c3d8                	sw	a4,4(a5)
C:/Users/86152/Desktop/单车越野/我的/代码调试/Bicycle_Code/libraries/zf_common/zf_common_clock.c:106
                | RCC_PLLMULL));

        if (clock == SYSTEM_CLOCK_144M)
     cee:	fdc42703          	lw	a4,-36(s0)
     cf2:	089547b7          	lui	a5,0x8954
     cf6:	40078793          	addi	a5,a5,1024 # 8954400 <_data_lma+0x89497ac>
     cfa:	00f71b63          	bne	a4,a5,d10 <clock_set_freq+0xca>
C:/Users/86152/Desktop/单车越野/我的/代码调试/Bicycle_Code/libraries/zf_common/zf_common_clock.c:107
            RCC->CFGR0 |= (uint32) (RCC_PLLSRC_HSE | RCC_PLLXTPRE_HSE
     cfe:	400217b7          	lui	a5,0x40021
     d02:	43d4                	lw	a3,4(a5)
     d04:	400217b7          	lui	a5,0x40021
     d08:	6741                	lui	a4,0x10
     d0a:	8f55                	or	a4,a4,a3
     d0c:	c3d8                	sw	a4,4(a5)
     d0e:	a855                	j	dc2 <clock_set_freq+0x17c>
C:/Users/86152/Desktop/单车越野/我的/代码调试/Bicycle_Code/libraries/zf_common/zf_common_clock.c:109
                    | RCC_PLLMULL18_EXTEN);
        else if (clock == SYSTEM_CLOCK_120M)
     d10:	fdc42703          	lw	a4,-36(s0)
     d14:	072717b7          	lui	a5,0x7271
     d18:	e0078793          	addi	a5,a5,-512 # 7270e00 <_data_lma+0x72661ac>
     d1c:	00f71c63          	bne	a4,a5,d34 <clock_set_freq+0xee>
C:/Users/86152/Desktop/单车越野/我的/代码调试/Bicycle_Code/libraries/zf_common/zf_common_clock.c:110
            RCC->CFGR0 |= (uint32) (RCC_PLLSRC_HSE | RCC_PLLXTPRE_HSE
     d20:	400217b7          	lui	a5,0x40021
     d24:	43d4                	lw	a3,4(a5)
     d26:	400217b7          	lui	a5,0x40021
     d2a:	00390737          	lui	a4,0x390
     d2e:	8f55                	or	a4,a4,a3
     d30:	c3d8                	sw	a4,4(a5)
     d32:	a841                	j	dc2 <clock_set_freq+0x17c>
C:/Users/86152/Desktop/单车越野/我的/代码调试/Bicycle_Code/libraries/zf_common/zf_common_clock.c:112
                    | RCC_PLLMULL15_EXTEN);
        else if (clock == SYSTEM_CLOCK_96M)
     d34:	fdc42703          	lw	a4,-36(s0)
     d38:	05b8e7b7          	lui	a5,0x5b8e
     d3c:	80078793          	addi	a5,a5,-2048 # 5b8d800 <_data_lma+0x5b82bac>
     d40:	00f71c63          	bne	a4,a5,d58 <clock_set_freq+0x112>
C:/Users/86152/Desktop/单车越野/我的/代码调试/Bicycle_Code/libraries/zf_common/zf_common_clock.c:113
            RCC->CFGR0 |= (uint32) (RCC_PLLSRC_HSE | RCC_PLLXTPRE_HSE
     d44:	400217b7          	lui	a5,0x40021
     d48:	43d4                	lw	a3,4(a5)
     d4a:	400217b7          	lui	a5,0x40021
     d4e:	00290737          	lui	a4,0x290
     d52:	8f55                	or	a4,a4,a3
     d54:	c3d8                	sw	a4,4(a5)
     d56:	a0b5                	j	dc2 <clock_set_freq+0x17c>
C:/Users/86152/Desktop/单车越野/我的/代码调试/Bicycle_Code/libraries/zf_common/zf_common_clock.c:115
                    | RCC_PLLMULL12_EXTEN);
        else if (clock == SYSTEM_CLOCK_72M)
     d58:	fdc42703          	lw	a4,-36(s0)
     d5c:	044aa7b7          	lui	a5,0x44aa
     d60:	20078793          	addi	a5,a5,512 # 44aa200 <_data_lma+0x449f5ac>
     d64:	00f71c63          	bne	a4,a5,d7c <clock_set_freq+0x136>
C:/Users/86152/Desktop/单车越野/我的/代码调试/Bicycle_Code/libraries/zf_common/zf_common_clock.c:116
            RCC->CFGR0 |= (uint32) (RCC_PLLSRC_HSE | RCC_PLLXTPRE_HSE
     d68:	400217b7          	lui	a5,0x40021
     d6c:	43d4                	lw	a3,4(a5)
     d6e:	400217b7          	lui	a5,0x40021
     d72:	001d0737          	lui	a4,0x1d0
     d76:	8f55                	or	a4,a4,a3
     d78:	c3d8                	sw	a4,4(a5)
     d7a:	a0a1                	j	dc2 <clock_set_freq+0x17c>
C:/Users/86152/Desktop/单车越野/我的/代码调试/Bicycle_Code/libraries/zf_common/zf_common_clock.c:118
                    | RCC_PLLMULL9_EXTEN);
        else if (clock == SYSTEM_CLOCK_48M)
     d7c:	fdc42703          	lw	a4,-36(s0)
     d80:	02dc77b7          	lui	a5,0x2dc7
     d84:	c0078793          	addi	a5,a5,-1024 # 2dc6c00 <_data_lma+0x2dbbfac>
     d88:	00f71c63          	bne	a4,a5,da0 <clock_set_freq+0x15a>
C:/Users/86152/Desktop/单车越野/我的/代码调试/Bicycle_Code/libraries/zf_common/zf_common_clock.c:119
            RCC->CFGR0 |= (uint32) (RCC_PLLSRC_HSE | RCC_PLLXTPRE_HSE
     d8c:	400217b7          	lui	a5,0x40021
     d90:	43d4                	lw	a3,4(a5)
     d92:	400217b7          	lui	a5,0x40021
     d96:	00110737          	lui	a4,0x110
     d9a:	8f55                	or	a4,a4,a3
     d9c:	c3d8                	sw	a4,4(a5)
     d9e:	a015                	j	dc2 <clock_set_freq+0x17c>
C:/Users/86152/Desktop/单车越野/我的/代码调试/Bicycle_Code/libraries/zf_common/zf_common_clock.c:121
                    | RCC_PLLMULL6_EXTEN);
        else if (clock == SYSTEM_CLOCK_24M)
     da0:	fdc42703          	lw	a4,-36(s0)
     da4:	016e37b7          	lui	a5,0x16e3
     da8:	60078793          	addi	a5,a5,1536 # 16e3600 <_data_lma+0x16d89ac>
     dac:	00f71b63          	bne	a4,a5,dc2 <clock_set_freq+0x17c>
C:/Users/86152/Desktop/单车越野/我的/代码调试/Bicycle_Code/libraries/zf_common/zf_common_clock.c:122
            RCC->CFGR0 |= (uint32) (RCC_PLLSRC_HSE | RCC_PLLXTPRE_HSE
     db0:	400217b7          	lui	a5,0x40021
     db4:	43d4                	lw	a3,4(a5)
     db6:	400217b7          	lui	a5,0x40021
     dba:	00050737          	lui	a4,0x50
     dbe:	8f55                	or	a4,a4,a3
     dc0:	c3d8                	sw	a4,4(a5)
C:/Users/86152/Desktop/单车越野/我的/代码调试/Bicycle_Code/libraries/zf_common/zf_common_clock.c:126
                    | RCC_PLLMULL3_EXTEN);

        /* Enable PLL */
        RCC->CTLR |= RCC_PLLON;
     dc2:	400217b7          	lui	a5,0x40021
     dc6:	4394                	lw	a3,0(a5)
     dc8:	400217b7          	lui	a5,0x40021
     dcc:	01000737          	lui	a4,0x1000
     dd0:	8f55                	or	a4,a4,a3
     dd2:	c398                	sw	a4,0(a5)
C:/Users/86152/Desktop/单车越野/我的/代码调试/Bicycle_Code/libraries/zf_common/zf_common_clock.c:128
        /* Wait till PLL is ready */
        while((RCC->CTLR & RCC_PLLRDY) == 0)
     dd4:	0001                	nop
C:/Users/86152/Desktop/单车越野/我的/代码调试/Bicycle_Code/libraries/zf_common/zf_common_clock.c:128 (discriminator 1)
     dd6:	400217b7          	lui	a5,0x40021
     dda:	4398                	lw	a4,0(a5)
     ddc:	020007b7          	lui	a5,0x2000
     de0:	8ff9                	and	a5,a5,a4
     de2:	dbf5                	beqz	a5,dd6 <clock_set_freq+0x190>
C:/Users/86152/Desktop/单车越野/我的/代码调试/Bicycle_Code/libraries/zf_common/zf_common_clock.c:132
        {
        }
        /* Select PLL as system clock source */
        RCC->CFGR0 &= (uint32_t) ((uint32_t) ~(RCC_SW));
     de4:	400217b7          	lui	a5,0x40021
     de8:	43d8                	lw	a4,4(a5)
     dea:	400217b7          	lui	a5,0x40021
     dee:	9b71                	andi	a4,a4,-4
     df0:	c3d8                	sw	a4,4(a5)
C:/Users/86152/Desktop/单车越野/我的/代码调试/Bicycle_Code/libraries/zf_common/zf_common_clock.c:133
        RCC->CFGR0 |= (uint32_t) RCC_SW_PLL;
     df2:	400217b7          	lui	a5,0x40021
     df6:	43d8                	lw	a4,4(a5)
     df8:	400217b7          	lui	a5,0x40021
     dfc:	00276713          	ori	a4,a4,2
     e00:	c3d8                	sw	a4,4(a5)
C:/Users/86152/Desktop/单车越野/我的/代码调试/Bicycle_Code/libraries/zf_common/zf_common_clock.c:135
        /* Wait till PLL is used as system clock source */
        while ((RCC->CFGR0 & (uint32_t)RCC_SWS) != (uint32_t)0x08)
     e02:	0001                	nop
C:/Users/86152/Desktop/单车越野/我的/代码调试/Bicycle_Code/libraries/zf_common/zf_common_clock.c:135 (discriminator 1)
     e04:	400217b7          	lui	a5,0x40021
     e08:	43dc                	lw	a5,4(a5)
     e0a:	00c7f713          	andi	a4,a5,12
     e0e:	47a1                	li	a5,8
     e10:	fef71ae3          	bne	a4,a5,e04 <clock_set_freq+0x1be>
C:/Users/86152/Desktop/单车越野/我的/代码调试/Bicycle_Code/libraries/zf_common/zf_common_clock.c:148
        /*
         * If HSE fails to start-up, the application will have wrong clock
         * configuration. User can add here some code to deal with this error
         */
    }
}
     e14:	a011                	j	e18 <clock_set_freq+0x1d2>
C:/Users/86152/Desktop/单车越野/我的/代码调试/Bicycle_Code/libraries/zf_common/zf_common_clock.c:141 (discriminator 1)
        while(1);
     e16:	a001                	j	e16 <clock_set_freq+0x1d0>
C:/Users/86152/Desktop/单车越野/我的/代码调试/Bicycle_Code/libraries/zf_common/zf_common_clock.c:148
}
     e18:	5432                	lw	s0,44(sp)
     e1a:	6145                	addi	sp,sp,48
     e1c:	8082                	ret

00000e1e <clock_init>:
clock_init():
C:/Users/86152/Desktop/单车越野/我的/代码调试/Bicycle_Code/libraries/zf_common/zf_common_clock.c:157
// 参数说明     clock           时钟频率 推荐使用 zf_common_clock.h 中 system_clock_enum 定义的选项
// 返回参数     void
// 使用示例     clock_init(SYSTEM_CLOCK_144M);                   // 初始化核心时钟为 144MHz
//-------------------------------------------------------------------------------------------------------------------
void clock_init(uint32 clock)
{
     e1e:	1101                	addi	sp,sp,-32
     e20:	ce06                	sw	ra,28(sp)
     e22:	cc22                	sw	s0,24(sp)
     e24:	1000                	addi	s0,sp,32
     e26:	fea42623          	sw	a0,-20(s0)
C:/Users/86152/Desktop/单车越野/我的/代码调试/Bicycle_Code/libraries/zf_common/zf_common_clock.c:159

    system_clock = clock;                                            // 记录核心时钟频率
     e2a:	fec42703          	lw	a4,-20(s0)
     e2e:	80e1a623          	sw	a4,-2036(gp) # 20000244 <system_clock>
C:/Users/86152/Desktop/单车越野/我的/代码调试/Bicycle_Code/libraries/zf_common/zf_common_clock.c:160
    clock_reset();
     e32:	3b79                	jal	bd0 <clock_reset>
C:/Users/86152/Desktop/单车越野/我的/代码调试/Bicycle_Code/libraries/zf_common/zf_common_clock.c:161
    clock_set_freq(clock);
     e34:	fec42503          	lw	a0,-20(s0)
     e38:	3539                	jal	c46 <clock_set_freq>
C:/Users/86152/Desktop/单车越野/我的/代码调试/Bicycle_Code/libraries/zf_common/zf_common_clock.c:163

    interrupt_init();
     e3a:	002010ef          	jal	ra,1e3c <interrupt_init>
C:/Users/86152/Desktop/单车越野/我的/代码调试/Bicycle_Code/libraries/zf_common/zf_common_clock.c:166


}
     e3e:	0001                	nop
     e40:	40f2                	lw	ra,28(sp)
     e42:	4462                	lw	s0,24(sp)
     e44:	6105                	addi	sp,sp,32
     e46:	8082                	ret

00000e48 <__NOP>:
__NOP():
C:\Users\86152\Desktop\单车越野\我的\代码调试\Bicycle_Code\libraries\sdk\Core/core_riscv.h:148
 * @brief   nop
 *
 * @return  none
 */
RV_STATIC_INLINE void __NOP()
{
     e48:	1141                	addi	sp,sp,-16
     e4a:	c622                	sw	s0,12(sp)
     e4c:	0800                	addi	s0,sp,16
C:\Users\86152\Desktop\单车越野\我的\代码调试\Bicycle_Code\libraries\sdk\Core/core_riscv.h:149
  __asm volatile ("nop");
     e4e:	0001                	nop
C:\Users\86152\Desktop\单车越野\我的\代码调试\Bicycle_Code\libraries\sdk\Core/core_riscv.h:150
}
     e50:	0001                	nop
     e52:	4432                	lw	s0,12(sp)
     e54:	0141                	addi	sp,sp,16
     e56:	8082                	ret

00000e58 <debug_delay>:
debug_delay():
C:/Users/86152/Desktop/单车越野/我的/代码调试/Bicycle_Code/libraries/zf_common/zf_common_debug.c:61
// 参数说明     *file       文件名
// 参数说明     line        目标行数
// 返回参数     void
//-------------------------------------------------------------------------------------------------------------------
static void debug_delay (void)
{
     e58:	1101                	addi	sp,sp,-32
     e5a:	ce06                	sw	ra,28(sp)
     e5c:	cc22                	sw	s0,24(sp)
     e5e:	1000                	addi	s0,sp,32
C:/Users/86152/Desktop/单车越野/我的/代码调试/Bicycle_Code/libraries/zf_common/zf_common_debug.c:62
    vuint32 loop_1 = 0, loop_2 = 0;
     e60:	fe042623          	sw	zero,-20(s0)
     e64:	fe042423          	sw	zero,-24(s0)
C:/Users/86152/Desktop/单车越野/我的/代码调试/Bicycle_Code/libraries/zf_common/zf_common_debug.c:63
    for(loop_1 = 0; loop_1 <= 0xFF; loop_1 ++)
     e68:	fe042623          	sw	zero,-20(s0)
     e6c:	a025                	j	e94 <debug_delay+0x3c>
C:/Users/86152/Desktop/单车越野/我的/代码调试/Bicycle_Code/libraries/zf_common/zf_common_debug.c:64
        for(loop_2 = 0; loop_2 <= 0xFFFF; loop_2 ++)
     e6e:	fe042423          	sw	zero,-24(s0)
     e72:	a039                	j	e80 <debug_delay+0x28>
C:/Users/86152/Desktop/单车越野/我的/代码调试/Bicycle_Code/libraries/zf_common/zf_common_debug.c:65 (discriminator 3)
            __NOP();
     e74:	3fd1                	jal	e48 <__NOP>
C:/Users/86152/Desktop/单车越野/我的/代码调试/Bicycle_Code/libraries/zf_common/zf_common_debug.c:64 (discriminator 3)
        for(loop_2 = 0; loop_2 <= 0xFFFF; loop_2 ++)
     e76:	fe842783          	lw	a5,-24(s0)
     e7a:	0785                	addi	a5,a5,1
     e7c:	fef42423          	sw	a5,-24(s0)
C:/Users/86152/Desktop/单车越野/我的/代码调试/Bicycle_Code/libraries/zf_common/zf_common_debug.c:64 (discriminator 1)
     e80:	fe842703          	lw	a4,-24(s0)
     e84:	67c1                	lui	a5,0x10
     e86:	fef767e3          	bltu	a4,a5,e74 <debug_delay+0x1c>
C:/Users/86152/Desktop/单车越野/我的/代码调试/Bicycle_Code/libraries/zf_common/zf_common_debug.c:63 (discriminator 2)
    for(loop_1 = 0; loop_1 <= 0xFF; loop_1 ++)
     e8a:	fec42783          	lw	a5,-20(s0)
     e8e:	0785                	addi	a5,a5,1
     e90:	fef42623          	sw	a5,-20(s0)
C:/Users/86152/Desktop/单车越野/我的/代码调试/Bicycle_Code/libraries/zf_common/zf_common_debug.c:63 (discriminator 1)
     e94:	fec42703          	lw	a4,-20(s0)
     e98:	0ff00793          	li	a5,255
     e9c:	fce7f9e3          	bgeu	a5,a4,e6e <debug_delay+0x16>
C:/Users/86152/Desktop/单车越野/我的/代码调试/Bicycle_Code/libraries/zf_common/zf_common_debug.c:66
}
     ea0:	0001                	nop
     ea2:	40f2                	lw	ra,28(sp)
     ea4:	4462                	lw	s0,24(sp)
     ea6:	6105                	addi	sp,sp,32
     ea8:	8082                	ret

00000eaa <debug_protective_handler>:
debug_protective_handler():
C:/Users/86152/Desktop/单车越野/我的/代码调试/Bicycle_Code/libraries/zf_common/zf_common_debug.c:77
// 返回参数     void
// 使用示例     debug_protective_handler();
// 备注信息     本函数在文件内部调用 用户不用关注 也不可修改
//-------------------------------------------------------------------------------------------------------------------
static void debug_protective_handler (void)
{
     eaa:	1141                	addi	sp,sp,-16
     eac:	c622                	sw	s0,12(sp)
     eae:	0800                	addi	s0,sp,16
C:/Users/86152/Desktop/单车越野/我的/代码调试/Bicycle_Code/libraries/zf_common/zf_common_debug.c:79
   // 暂未更新
}
     eb0:	0001                	nop
     eb2:	4432                	lw	s0,12(sp)
     eb4:	0141                	addi	sp,sp,16
     eb6:	8082                	ret

00000eb8 <debug_uart_str_output>:
debug_uart_str_output():
C:/Users/86152/Desktop/单车越野/我的/代码调试/Bicycle_Code/libraries/zf_common/zf_common_debug.c:89
// 返回参数     void
// 使用示例     debug_uart_str_output("Log message");
// 备注信息     本函数在文件内部调用 用户不用关注 也不可修改
//-------------------------------------------------------------------------------------------------------------------
static void debug_uart_str_output (const char *str)
{
     eb8:	1101                	addi	sp,sp,-32
     eba:	ce06                	sw	ra,28(sp)
     ebc:	cc22                	sw	s0,24(sp)
     ebe:	1000                	addi	s0,sp,32
     ec0:	fea42623          	sw	a0,-20(s0)
C:/Users/86152/Desktop/单车越野/我的/代码调试/Bicycle_Code/libraries/zf_common/zf_common_debug.c:90
    uart_write_string(DEBUG_UART_INDEX, str);
     ec4:	fec42583          	lw	a1,-20(s0)
     ec8:	4509                	li	a0,2
     eca:	d90ff0ef          	jal	ra,45a <uart_write_string>
C:/Users/86152/Desktop/单车越野/我的/代码调试/Bicycle_Code/libraries/zf_common/zf_common_debug.c:91
}
     ece:	0001                	nop
     ed0:	40f2                	lw	ra,28(sp)
     ed2:	4462                	lw	s0,24(sp)
     ed4:	6105                	addi	sp,sp,32
     ed6:	8082                	ret

00000ed8 <debug_output>:
debug_output():
C:/Users/86152/Desktop/单车越野/我的/代码调试/Bicycle_Code/libraries/zf_common/zf_common_debug.c:104
// 返回参数     void
// 使用示例     debug_output("Log message", file, line, str);
// 备注信息     本函数在文件内部调用 用户不用关注 也不可修改
//-------------------------------------------------------------------------------------------------------------------
static void debug_output (char *type, char *file, int line, char *str)
{
     ed8:	d9010113          	addi	sp,sp,-624
     edc:	26112623          	sw	ra,620(sp)
     ee0:	26812423          	sw	s0,616(sp)
     ee4:	26912223          	sw	s1,612(sp)
     ee8:	1c80                	addi	s0,sp,624
     eea:	d8a42e23          	sw	a0,-612(s0)
     eee:	d8b42c23          	sw	a1,-616(s0)
     ef2:	d8c42a23          	sw	a2,-620(s0)
     ef6:	d8d42823          	sw	a3,-624(s0)
C:/Users/86152/Desktop/单车越野/我的/代码调试/Bicycle_Code/libraries/zf_common/zf_common_debug.c:106
    char *file_str;
    vuint16 i = 0, j = 0;
     efa:	fe041523          	sh	zero,-22(s0)
     efe:	fe041423          	sh	zero,-24(s0)
C:/Users/86152/Desktop/单车越野/我的/代码调试/Bicycle_Code/libraries/zf_common/zf_common_debug.c:107
    vint16 len_origin = 0;
     f02:	fe041323          	sh	zero,-26(s0)
C:/Users/86152/Desktop/单车越野/我的/代码调试/Bicycle_Code/libraries/zf_common/zf_common_debug.c:108
    vint16 show_len = 0;
     f06:	fe041223          	sh	zero,-28(s0)
C:/Users/86152/Desktop/单车越野/我的/代码调试/Bicycle_Code/libraries/zf_common/zf_common_debug.c:109
    vint16 show_line_index = 0;
     f0a:	fe041123          	sh	zero,-30(s0)
C:/Users/86152/Desktop/单车越野/我的/代码调试/Bicycle_Code/libraries/zf_common/zf_common_debug.c:110
    len_origin = strlen(file);
     f0e:	d9842503          	lw	a0,-616(s0)
     f12:	22b060ef          	jal	ra,793c <strlen>
     f16:	87aa                	mv	a5,a0
     f18:	07c2                	slli	a5,a5,0x10
     f1a:	87c1                	srai	a5,a5,0x10
     f1c:	fef41323          	sh	a5,-26(s0)
C:/Users/86152/Desktop/单车越野/我的/代码调试/Bicycle_Code/libraries/zf_common/zf_common_debug.c:115

    char output_buffer[256];
    char file_path_buffer[64];

    if(debug_output_info.type_index)
     f20:	98c1d783          	lhu	a5,-1652(gp) # 200003c4 <debug_output_info>
     f24:	c789                	beqz	a5,f2e <debug_output+0x56>
C:/Users/86152/Desktop/单车越野/我的/代码调试/Bicycle_Code/libraries/zf_common/zf_common_debug.c:117
    {
        debug_output_info.output_screen_clear();
     f26:	98c18793          	addi	a5,gp,-1652 # 200003c4 <debug_output_info>
     f2a:	4b9c                	lw	a5,16(a5)
     f2c:	9782                	jalr	a5
C:/Users/86152/Desktop/单车越野/我的/代码调试/Bicycle_Code/libraries/zf_common/zf_common_debug.c:120
    }

    if(zf_debug_init_flag)
     f2e:	83c1c783          	lbu	a5,-1988(gp) # 20000274 <zf_debug_init_flag>
     f32:	0ff7f793          	andi	a5,a5,255
     f36:	4a078d63          	beqz	a5,13f0 <debug_output+0x518>
C:/Users/86152/Desktop/单车越野/我的/代码调试/Bicycle_Code/libraries/zf_common/zf_common_debug.c:122
    {
        if(debug_output_info.type_index)
     f3a:	98c1d783          	lhu	a5,-1652(gp) # 200003c4 <debug_output_info>
     f3e:	44078763          	beqz	a5,138c <debug_output+0x4b4>
C:/Users/86152/Desktop/单车越野/我的/代码调试/Bicycle_Code/libraries/zf_common/zf_common_debug.c:127
        {
            // 需要分行将文件的路径和行数输出
            // <不输出完整路径 只输出一级目录 例如 src/main.c>
            // 输出 line : xxxx
            debug_output_info.output_screen(0, show_line_index ++, type);
     f42:	98c18793          	addi	a5,gp,-1652 # 200003c4 <debug_output_info>
     f46:	47d4                	lw	a3,12(a5)
     f48:	fe245783          	lhu	a5,-30(s0)
     f4c:	01079713          	slli	a4,a5,0x10
     f50:	8741                	srai	a4,a4,0x10
     f52:	01071793          	slli	a5,a4,0x10
     f56:	83c1                	srli	a5,a5,0x10
     f58:	0785                	addi	a5,a5,1
     f5a:	07c2                	slli	a5,a5,0x10
     f5c:	83c1                	srli	a5,a5,0x10
     f5e:	07c2                	slli	a5,a5,0x10
     f60:	87c1                	srai	a5,a5,0x10
     f62:	fef41123          	sh	a5,-30(s0)
     f66:	01071793          	slli	a5,a4,0x10
     f6a:	83c1                	srli	a5,a5,0x10
     f6c:	d9c42603          	lw	a2,-612(s0)
     f70:	85be                	mv	a1,a5
     f72:	4501                	li	a0,0
     f74:	9682                	jalr	a3
C:/Users/86152/Desktop/单车越野/我的/代码调试/Bicycle_Code/libraries/zf_common/zf_common_debug.c:129

            file_str = file;
     f76:	d9842783          	lw	a5,-616(s0)
     f7a:	fef42623          	sw	a5,-20(s0)
C:/Users/86152/Desktop/单车越野/我的/代码调试/Bicycle_Code/libraries/zf_common/zf_common_debug.c:130
            len_origin = strlen(file);
     f7e:	d9842503          	lw	a0,-616(s0)
     f82:	1bb060ef          	jal	ra,793c <strlen>
     f86:	87aa                	mv	a5,a0
     f88:	07c2                	slli	a5,a5,0x10
     f8a:	87c1                	srai	a5,a5,0x10
     f8c:	fef41323          	sh	a5,-26(s0)
C:/Users/86152/Desktop/单车越野/我的/代码调试/Bicycle_Code/libraries/zf_common/zf_common_debug.c:131
            show_len = (debug_output_info.display_x_max / debug_output_info.font_x_size);
     f90:	98c18793          	addi	a5,gp,-1652 # 200003c4 <debug_output_info>
     f94:	0027d783          	lhu	a5,2(a5) # 10002 <_data_lma+0x53ae>
     f98:	873e                	mv	a4,a5
     f9a:	98c18793          	addi	a5,gp,-1652 # 200003c4 <debug_output_info>
     f9e:	0067c783          	lbu	a5,6(a5)
     fa2:	02f747b3          	div	a5,a4,a5
     fa6:	07c2                	slli	a5,a5,0x10
     fa8:	87c1                	srai	a5,a5,0x10
     faa:	fef41223          	sh	a5,-28(s0)
C:/Users/86152/Desktop/单车越野/我的/代码调试/Bicycle_Code/libraries/zf_common/zf_common_debug.c:133

            while(*file_str++ != '\0');
     fae:	0001                	nop
C:/Users/86152/Desktop/单车越野/我的/代码调试/Bicycle_Code/libraries/zf_common/zf_common_debug.c:133 (discriminator 1)
     fb0:	fec42783          	lw	a5,-20(s0)
     fb4:	00178713          	addi	a4,a5,1
     fb8:	fee42623          	sw	a4,-20(s0)
     fbc:	00078783          	lb	a5,0(a5)
     fc0:	fbe5                	bnez	a5,fb0 <debug_output+0xd8>
C:/Users/86152/Desktop/单车越野/我的/代码调试/Bicycle_Code/libraries/zf_common/zf_common_debug.c:136

            // 只取一级目录 如果文件放在盘符根目录 或者 MDK 的工程根目录 就会直接输出当前目录
            for(j = 0; (j < 2) && (len_origin >= 0); len_origin --)             // 查找两个 '/'
     fc2:	fe041423          	sh	zero,-24(s0)
     fc6:	a8a1                	j	101e <debug_output+0x146>
C:/Users/86152/Desktop/单车越野/我的/代码调试/Bicycle_Code/libraries/zf_common/zf_common_debug.c:138
            {
                file_str --;
     fc8:	fec42783          	lw	a5,-20(s0)
     fcc:	17fd                	addi	a5,a5,-1
     fce:	fef42623          	sw	a5,-20(s0)
C:/Users/86152/Desktop/单车越野/我的/代码调试/Bicycle_Code/libraries/zf_common/zf_common_debug.c:139
                if((*file_str == '/') || (*file_str == 0x5C))
     fd2:	fec42783          	lw	a5,-20(s0)
     fd6:	00078703          	lb	a4,0(a5)
     fda:	02f00793          	li	a5,47
     fde:	00f70a63          	beq	a4,a5,ff2 <debug_output+0x11a>
C:/Users/86152/Desktop/单车越野/我的/代码调试/Bicycle_Code/libraries/zf_common/zf_common_debug.c:139 (discriminator 1)
     fe2:	fec42783          	lw	a5,-20(s0)
     fe6:	00078703          	lb	a4,0(a5)
     fea:	05c00793          	li	a5,92
     fee:	00f71b63          	bne	a4,a5,1004 <debug_output+0x12c>
C:/Users/86152/Desktop/单车越野/我的/代码调试/Bicycle_Code/libraries/zf_common/zf_common_debug.c:141
                {
                    j ++;
     ff2:	fe845783          	lhu	a5,-24(s0)
     ff6:	07c2                	slli	a5,a5,0x10
     ff8:	83c1                	srli	a5,a5,0x10
     ffa:	0785                	addi	a5,a5,1
     ffc:	07c2                	slli	a5,a5,0x10
     ffe:	83c1                	srli	a5,a5,0x10
    1000:	fef41423          	sh	a5,-24(s0)
C:/Users/86152/Desktop/单车越野/我的/代码调试/Bicycle_Code/libraries/zf_common/zf_common_debug.c:136 (discriminator 2)
            for(j = 0; (j < 2) && (len_origin >= 0); len_origin --)             // 查找两个 '/'
    1004:	fe645783          	lhu	a5,-26(s0)
    1008:	07c2                	slli	a5,a5,0x10
    100a:	87c1                	srai	a5,a5,0x10
    100c:	07c2                	slli	a5,a5,0x10
    100e:	83c1                	srli	a5,a5,0x10
    1010:	17fd                	addi	a5,a5,-1
    1012:	07c2                	slli	a5,a5,0x10
    1014:	83c1                	srli	a5,a5,0x10
    1016:	07c2                	slli	a5,a5,0x10
    1018:	87c1                	srai	a5,a5,0x10
    101a:	fef41323          	sh	a5,-26(s0)
C:/Users/86152/Desktop/单车越野/我的/代码调试/Bicycle_Code/libraries/zf_common/zf_common_debug.c:136 (discriminator 1)
    101e:	fe845783          	lhu	a5,-24(s0)
    1022:	01079713          	slli	a4,a5,0x10
    1026:	8341                	srli	a4,a4,0x10
    1028:	4785                	li	a5,1
    102a:	00e7e863          	bltu	a5,a4,103a <debug_output+0x162>
C:/Users/86152/Desktop/单车越野/我的/代码调试/Bicycle_Code/libraries/zf_common/zf_common_debug.c:136 (discriminator 3)
    102e:	fe645783          	lhu	a5,-26(s0)
    1032:	07c2                	slli	a5,a5,0x10
    1034:	87c1                	srai	a5,a5,0x10
    1036:	f807d9e3          	bgez	a5,fc8 <debug_output+0xf0>
C:/Users/86152/Desktop/单车越野/我的/代码调试/Bicycle_Code/libraries/zf_common/zf_common_debug.c:146
                }
            }

            // 文件路径保存到数组中
            if(len_origin >= 0)
    103a:	fe645783          	lhu	a5,-26(s0)
    103e:	07c2                	slli	a5,a5,0x10
    1040:	87c1                	srai	a5,a5,0x10
    1042:	0207c263          	bltz	a5,1066 <debug_output+0x18e>
C:/Users/86152/Desktop/单车越野/我的/代码调试/Bicycle_Code/libraries/zf_common/zf_common_debug.c:148
            {
                file_str ++;
    1046:	fec42783          	lw	a5,-20(s0)
    104a:	0785                	addi	a5,a5,1
    104c:	fef42623          	sw	a5,-20(s0)
C:/Users/86152/Desktop/单车越野/我的/代码调试/Bicycle_Code/libraries/zf_common/zf_common_debug.c:149
                sprintf(output_buffer, "file: %s", file_str);
    1050:	ee040713          	addi	a4,s0,-288
    1054:	fec42603          	lw	a2,-20(s0)
    1058:	67a9                	lui	a5,0xa
    105a:	50878593          	addi	a1,a5,1288 # a508 <_sbrk+0x172>
    105e:	853a                	mv	a0,a4
    1060:	097060ef          	jal	ra,78f6 <siprintf>
    1064:	a81d                	j	109a <debug_output+0x1c2>
C:/Users/86152/Desktop/单车越野/我的/代码调试/Bicycle_Code/libraries/zf_common/zf_common_debug.c:153
            }
            else
            {
                if(0 == j)
    1066:	fe845783          	lhu	a5,-24(s0)
    106a:	07c2                	slli	a5,a5,0x10
    106c:	83c1                	srli	a5,a5,0x10
    106e:	ef81                	bnez	a5,1086 <debug_output+0x1ae>
C:/Users/86152/Desktop/单车越野/我的/代码调试/Bicycle_Code/libraries/zf_common/zf_common_debug.c:155
                {
                    sprintf(output_buffer, "file: mdk/%s", file_str);
    1070:	ee040713          	addi	a4,s0,-288
    1074:	fec42603          	lw	a2,-20(s0)
    1078:	67a9                	lui	a5,0xa
    107a:	51478593          	addi	a1,a5,1300 # a514 <_sbrk+0x17e>
    107e:	853a                	mv	a0,a4
    1080:	077060ef          	jal	ra,78f6 <siprintf>
    1084:	a819                	j	109a <debug_output+0x1c2>
C:/Users/86152/Desktop/单车越野/我的/代码调试/Bicycle_Code/libraries/zf_common/zf_common_debug.c:159
                }
                else
                {
                    sprintf(output_buffer, "file: %s", file_str);
    1086:	ee040713          	addi	a4,s0,-288
    108a:	fec42603          	lw	a2,-20(s0)
    108e:	67a9                	lui	a5,0xa
    1090:	50878593          	addi	a1,a5,1288 # a508 <_sbrk+0x172>
    1094:	853a                	mv	a0,a4
    1096:	061060ef          	jal	ra,78f6 <siprintf>
C:/Users/86152/Desktop/单车越野/我的/代码调试/Bicycle_Code/libraries/zf_common/zf_common_debug.c:164
                }
            }

            // 屏幕显示路径
            for(i = 0; i < ((strlen(output_buffer) / show_len) + 1); i ++)
    109a:	fe041523          	sh	zero,-22(s0)
    109e:	aa21                	j	11b6 <debug_output+0x2de>
C:/Users/86152/Desktop/单车越野/我的/代码调试/Bicycle_Code/libraries/zf_common/zf_common_debug.c:166
            {
                for(j = 0; j < show_len; j ++)
    10a0:	fe041423          	sh	zero,-24(s0)
    10a4:	a059                	j	112a <debug_output+0x252>
C:/Users/86152/Desktop/单车越野/我的/代码调试/Bicycle_Code/libraries/zf_common/zf_common_debug.c:168
                {
                    if(strlen(output_buffer) < (j + i * show_len))
    10a6:	ee040793          	addi	a5,s0,-288
    10aa:	853e                	mv	a0,a5
    10ac:	091060ef          	jal	ra,793c <strlen>
    10b0:	872a                	mv	a4,a0
    10b2:	fe845783          	lhu	a5,-24(s0)
    10b6:	07c2                	slli	a5,a5,0x10
    10b8:	83c1                	srli	a5,a5,0x10
    10ba:	86be                	mv	a3,a5
    10bc:	fea45783          	lhu	a5,-22(s0)
    10c0:	07c2                	slli	a5,a5,0x10
    10c2:	83c1                	srli	a5,a5,0x10
    10c4:	863e                	mv	a2,a5
    10c6:	fe445783          	lhu	a5,-28(s0)
    10ca:	07c2                	slli	a5,a5,0x10
    10cc:	87c1                	srai	a5,a5,0x10
    10ce:	02f607b3          	mul	a5,a2,a5
    10d2:	97b6                	add	a5,a5,a3
    10d4:	06f76763          	bltu	a4,a5,1142 <debug_output+0x26a>
C:/Users/86152/Desktop/单车越野/我的/代码调试/Bicycle_Code/libraries/zf_common/zf_common_debug.c:172 (discriminator 2)
                    {
                        break;
                    }
                    file_path_buffer[j] = output_buffer[j + i * show_len];
    10d8:	fe845783          	lhu	a5,-24(s0)
    10dc:	07c2                	slli	a5,a5,0x10
    10de:	83c1                	srli	a5,a5,0x10
    10e0:	873e                	mv	a4,a5
    10e2:	fea45783          	lhu	a5,-22(s0)
    10e6:	07c2                	slli	a5,a5,0x10
    10e8:	83c1                	srli	a5,a5,0x10
    10ea:	86be                	mv	a3,a5
    10ec:	fe445783          	lhu	a5,-28(s0)
    10f0:	07c2                	slli	a5,a5,0x10
    10f2:	87c1                	srai	a5,a5,0x10
    10f4:	02f687b3          	mul	a5,a3,a5
    10f8:	97ba                	add	a5,a5,a4
    10fa:	fe845703          	lhu	a4,-24(s0)
    10fe:	0742                	slli	a4,a4,0x10
    1100:	8341                	srli	a4,a4,0x10
    1102:	86ba                	mv	a3,a4
    1104:	ff040713          	addi	a4,s0,-16
    1108:	97ba                	add	a5,a5,a4
    110a:	ef078703          	lb	a4,-272(a5)
    110e:	ff040793          	addi	a5,s0,-16
    1112:	97b6                	add	a5,a5,a3
    1114:	eae78823          	sb	a4,-336(a5)
C:/Users/86152/Desktop/单车越野/我的/代码调试/Bicycle_Code/libraries/zf_common/zf_common_debug.c:166 (discriminator 2)
                for(j = 0; j < show_len; j ++)
    1118:	fe845783          	lhu	a5,-24(s0)
    111c:	07c2                	slli	a5,a5,0x10
    111e:	83c1                	srli	a5,a5,0x10
    1120:	0785                	addi	a5,a5,1
    1122:	07c2                	slli	a5,a5,0x10
    1124:	83c1                	srli	a5,a5,0x10
    1126:	fef41423          	sh	a5,-24(s0)
C:/Users/86152/Desktop/单车越野/我的/代码调试/Bicycle_Code/libraries/zf_common/zf_common_debug.c:166 (discriminator 1)
    112a:	fe845783          	lhu	a5,-24(s0)
    112e:	07c2                	slli	a5,a5,0x10
    1130:	83c1                	srli	a5,a5,0x10
    1132:	873e                	mv	a4,a5
    1134:	fe445783          	lhu	a5,-28(s0)
    1138:	07c2                	slli	a5,a5,0x10
    113a:	87c1                	srai	a5,a5,0x10
    113c:	f6f745e3          	blt	a4,a5,10a6 <debug_output+0x1ce>
    1140:	a011                	j	1144 <debug_output+0x26c>
C:/Users/86152/Desktop/单车越野/我的/代码调试/Bicycle_Code/libraries/zf_common/zf_common_debug.c:170
                        break;
    1142:	0001                	nop
C:/Users/86152/Desktop/单车越野/我的/代码调试/Bicycle_Code/libraries/zf_common/zf_common_debug.c:175 (discriminator 2)
                }

                file_path_buffer[j] = '\0';                                     // 末尾添加\0
    1144:	fe845783          	lhu	a5,-24(s0)
    1148:	07c2                	slli	a5,a5,0x10
    114a:	83c1                	srli	a5,a5,0x10
    114c:	ff040713          	addi	a4,s0,-16
    1150:	97ba                	add	a5,a5,a4
    1152:	ea078823          	sb	zero,-336(a5)
C:/Users/86152/Desktop/单车越野/我的/代码调试/Bicycle_Code/libraries/zf_common/zf_common_debug.c:177 (discriminator 2)

                debug_output_info.output_screen(0, debug_output_info.font_y_size * show_line_index ++, file_path_buffer);
    1156:	98c18793          	addi	a5,gp,-1652 # 200003c4 <debug_output_info>
    115a:	00c7a803          	lw	a6,12(a5)
    115e:	98c18793          	addi	a5,gp,-1652 # 200003c4 <debug_output_info>
    1162:	0077c783          	lbu	a5,7(a5)
    1166:	01079713          	slli	a4,a5,0x10
    116a:	8341                	srli	a4,a4,0x10
    116c:	fe245783          	lhu	a5,-30(s0)
    1170:	01079693          	slli	a3,a5,0x10
    1174:	86c1                	srai	a3,a3,0x10
    1176:	01069793          	slli	a5,a3,0x10
    117a:	83c1                	srli	a5,a5,0x10
    117c:	0785                	addi	a5,a5,1
    117e:	07c2                	slli	a5,a5,0x10
    1180:	83c1                	srli	a5,a5,0x10
    1182:	07c2                	slli	a5,a5,0x10
    1184:	87c1                	srai	a5,a5,0x10
    1186:	fef41123          	sh	a5,-30(s0)
    118a:	01069793          	slli	a5,a3,0x10
    118e:	83c1                	srli	a5,a5,0x10
    1190:	02f707b3          	mul	a5,a4,a5
    1194:	07c2                	slli	a5,a5,0x10
    1196:	83c1                	srli	a5,a5,0x10
    1198:	ea040713          	addi	a4,s0,-352
    119c:	863a                	mv	a2,a4
    119e:	85be                	mv	a1,a5
    11a0:	4501                	li	a0,0
    11a2:	9802                	jalr	a6
C:/Users/86152/Desktop/单车越野/我的/代码调试/Bicycle_Code/libraries/zf_common/zf_common_debug.c:164 (discriminator 2)
            for(i = 0; i < ((strlen(output_buffer) / show_len) + 1); i ++)
    11a4:	fea45783          	lhu	a5,-22(s0)
    11a8:	07c2                	slli	a5,a5,0x10
    11aa:	83c1                	srli	a5,a5,0x10
    11ac:	0785                	addi	a5,a5,1
    11ae:	07c2                	slli	a5,a5,0x10
    11b0:	83c1                	srli	a5,a5,0x10
    11b2:	fef41523          	sh	a5,-22(s0)
C:/Users/86152/Desktop/单车越野/我的/代码调试/Bicycle_Code/libraries/zf_common/zf_common_debug.c:164 (discriminator 1)
    11b6:	fea45783          	lhu	a5,-22(s0)
    11ba:	07c2                	slli	a5,a5,0x10
    11bc:	83c1                	srli	a5,a5,0x10
    11be:	84be                	mv	s1,a5
    11c0:	ee040793          	addi	a5,s0,-288
    11c4:	853e                	mv	a0,a5
    11c6:	776060ef          	jal	ra,793c <strlen>
    11ca:	872a                	mv	a4,a0
    11cc:	fe445783          	lhu	a5,-28(s0)
    11d0:	07c2                	slli	a5,a5,0x10
    11d2:	87c1                	srai	a5,a5,0x10
    11d4:	02f757b3          	divu	a5,a4,a5
    11d8:	0785                	addi	a5,a5,1
    11da:	ecf4e3e3          	bltu	s1,a5,10a0 <debug_output+0x1c8>
C:/Users/86152/Desktop/单车越野/我的/代码调试/Bicycle_Code/libraries/zf_common/zf_common_debug.c:181
            }

            // 屏幕显示行号
            sprintf(output_buffer, "line: %d", line);
    11de:	ee040713          	addi	a4,s0,-288
    11e2:	d9442603          	lw	a2,-620(s0)
    11e6:	67a9                	lui	a5,0xa
    11e8:	52478593          	addi	a1,a5,1316 # a524 <_sbrk+0x18e>
    11ec:	853a                	mv	a0,a4
    11ee:	708060ef          	jal	ra,78f6 <siprintf>
C:/Users/86152/Desktop/单车越野/我的/代码调试/Bicycle_Code/libraries/zf_common/zf_common_debug.c:182
            debug_output_info.output_screen(0, debug_output_info.font_y_size * show_line_index ++, output_buffer);
    11f2:	98c18793          	addi	a5,gp,-1652 # 200003c4 <debug_output_info>
    11f6:	00c7a803          	lw	a6,12(a5)
    11fa:	98c18793          	addi	a5,gp,-1652 # 200003c4 <debug_output_info>
    11fe:	0077c783          	lbu	a5,7(a5)
    1202:	01079713          	slli	a4,a5,0x10
    1206:	8341                	srli	a4,a4,0x10
    1208:	fe245783          	lhu	a5,-30(s0)
    120c:	01079693          	slli	a3,a5,0x10
    1210:	86c1                	srai	a3,a3,0x10
    1212:	01069793          	slli	a5,a3,0x10
    1216:	83c1                	srli	a5,a5,0x10
    1218:	0785                	addi	a5,a5,1
    121a:	07c2                	slli	a5,a5,0x10
    121c:	83c1                	srli	a5,a5,0x10
    121e:	07c2                	slli	a5,a5,0x10
    1220:	87c1                	srai	a5,a5,0x10
    1222:	fef41123          	sh	a5,-30(s0)
    1226:	01069793          	slli	a5,a3,0x10
    122a:	83c1                	srli	a5,a5,0x10
    122c:	02f707b3          	mul	a5,a4,a5
    1230:	07c2                	slli	a5,a5,0x10
    1232:	83c1                	srli	a5,a5,0x10
    1234:	ee040713          	addi	a4,s0,-288
    1238:	863a                	mv	a2,a4
    123a:	85be                	mv	a1,a5
    123c:	4501                	li	a0,0
    123e:	9802                	jalr	a6
C:/Users/86152/Desktop/单车越野/我的/代码调试/Bicycle_Code/libraries/zf_common/zf_common_debug.c:185

            // 屏幕显示 Log 如果有的话
            if(NULL != str)
    1240:	d9042783          	lw	a5,-624(s0)
    1244:	1a078663          	beqz	a5,13f0 <debug_output+0x518>
C:/Users/86152/Desktop/单车越野/我的/代码调试/Bicycle_Code/libraries/zf_common/zf_common_debug.c:187
            {
                for(i = 0; i < ((strlen(str) / show_len) + 1); i ++)
    1248:	fe041523          	sh	zero,-22(s0)
    124c:	aa21                	j	1364 <debug_output+0x48c>
C:/Users/86152/Desktop/单车越野/我的/代码调试/Bicycle_Code/libraries/zf_common/zf_common_debug.c:189
                {
                    for(j = 0; j < show_len; j ++)
    124e:	fe041423          	sh	zero,-24(s0)
    1252:	a059                	j	12d8 <debug_output+0x400>
C:/Users/86152/Desktop/单车越野/我的/代码调试/Bicycle_Code/libraries/zf_common/zf_common_debug.c:191
                    {
                        if(strlen(str) < (j + i * show_len))
    1254:	d9042503          	lw	a0,-624(s0)
    1258:	6e4060ef          	jal	ra,793c <strlen>
    125c:	872a                	mv	a4,a0
    125e:	fe845783          	lhu	a5,-24(s0)
    1262:	07c2                	slli	a5,a5,0x10
    1264:	83c1                	srli	a5,a5,0x10
    1266:	86be                	mv	a3,a5
    1268:	fea45783          	lhu	a5,-22(s0)
    126c:	07c2                	slli	a5,a5,0x10
    126e:	83c1                	srli	a5,a5,0x10
    1270:	863e                	mv	a2,a5
    1272:	fe445783          	lhu	a5,-28(s0)
    1276:	07c2                	slli	a5,a5,0x10
    1278:	87c1                	srai	a5,a5,0x10
    127a:	02f607b3          	mul	a5,a2,a5
    127e:	97b6                	add	a5,a5,a3
    1280:	06f76863          	bltu	a4,a5,12f0 <debug_output+0x418>
C:/Users/86152/Desktop/单车越野/我的/代码调试/Bicycle_Code/libraries/zf_common/zf_common_debug.c:195 (discriminator 2)
                        {
                            break;
                        }
                        file_path_buffer[j] = str[j + i * show_len];
    1284:	fe845783          	lhu	a5,-24(s0)
    1288:	07c2                	slli	a5,a5,0x10
    128a:	83c1                	srli	a5,a5,0x10
    128c:	873e                	mv	a4,a5
    128e:	fea45783          	lhu	a5,-22(s0)
    1292:	07c2                	slli	a5,a5,0x10
    1294:	83c1                	srli	a5,a5,0x10
    1296:	86be                	mv	a3,a5
    1298:	fe445783          	lhu	a5,-28(s0)
    129c:	07c2                	slli	a5,a5,0x10
    129e:	87c1                	srai	a5,a5,0x10
    12a0:	02f687b3          	mul	a5,a3,a5
    12a4:	97ba                	add	a5,a5,a4
    12a6:	873e                	mv	a4,a5
    12a8:	d9042783          	lw	a5,-624(s0)
    12ac:	97ba                	add	a5,a5,a4
    12ae:	fe845703          	lhu	a4,-24(s0)
    12b2:	0742                	slli	a4,a4,0x10
    12b4:	8341                	srli	a4,a4,0x10
    12b6:	86ba                	mv	a3,a4
    12b8:	00078703          	lb	a4,0(a5)
    12bc:	ff040793          	addi	a5,s0,-16
    12c0:	97b6                	add	a5,a5,a3
    12c2:	eae78823          	sb	a4,-336(a5)
C:/Users/86152/Desktop/单车越野/我的/代码调试/Bicycle_Code/libraries/zf_common/zf_common_debug.c:189 (discriminator 2)
                    for(j = 0; j < show_len; j ++)
    12c6:	fe845783          	lhu	a5,-24(s0)
    12ca:	07c2                	slli	a5,a5,0x10
    12cc:	83c1                	srli	a5,a5,0x10
    12ce:	0785                	addi	a5,a5,1
    12d0:	07c2                	slli	a5,a5,0x10
    12d2:	83c1                	srli	a5,a5,0x10
    12d4:	fef41423          	sh	a5,-24(s0)
C:/Users/86152/Desktop/单车越野/我的/代码调试/Bicycle_Code/libraries/zf_common/zf_common_debug.c:189 (discriminator 1)
    12d8:	fe845783          	lhu	a5,-24(s0)
    12dc:	07c2                	slli	a5,a5,0x10
    12de:	83c1                	srli	a5,a5,0x10
    12e0:	873e                	mv	a4,a5
    12e2:	fe445783          	lhu	a5,-28(s0)
    12e6:	07c2                	slli	a5,a5,0x10
    12e8:	87c1                	srai	a5,a5,0x10
    12ea:	f6f745e3          	blt	a4,a5,1254 <debug_output+0x37c>
    12ee:	a011                	j	12f2 <debug_output+0x41a>
C:/Users/86152/Desktop/单车越野/我的/代码调试/Bicycle_Code/libraries/zf_common/zf_common_debug.c:193
                            break;
    12f0:	0001                	nop
C:/Users/86152/Desktop/单车越野/我的/代码调试/Bicycle_Code/libraries/zf_common/zf_common_debug.c:198 (discriminator 2)
                    }

                    file_path_buffer[j] = '\0';                                 // 末尾添加\0
    12f2:	fe845783          	lhu	a5,-24(s0)
    12f6:	07c2                	slli	a5,a5,0x10
    12f8:	83c1                	srli	a5,a5,0x10
    12fa:	ff040713          	addi	a4,s0,-16
    12fe:	97ba                	add	a5,a5,a4
    1300:	ea078823          	sb	zero,-336(a5)
C:/Users/86152/Desktop/单车越野/我的/代码调试/Bicycle_Code/libraries/zf_common/zf_common_debug.c:200 (discriminator 2)

                    debug_output_info.output_screen(0, debug_output_info.font_y_size * show_line_index ++, file_path_buffer);
    1304:	98c18793          	addi	a5,gp,-1652 # 200003c4 <debug_output_info>
    1308:	00c7a803          	lw	a6,12(a5)
    130c:	98c18793          	addi	a5,gp,-1652 # 200003c4 <debug_output_info>
    1310:	0077c783          	lbu	a5,7(a5)
    1314:	01079713          	slli	a4,a5,0x10
    1318:	8341                	srli	a4,a4,0x10
    131a:	fe245783          	lhu	a5,-30(s0)
    131e:	01079693          	slli	a3,a5,0x10
    1322:	86c1                	srai	a3,a3,0x10
    1324:	01069793          	slli	a5,a3,0x10
    1328:	83c1                	srli	a5,a5,0x10
    132a:	0785                	addi	a5,a5,1
    132c:	07c2                	slli	a5,a5,0x10
    132e:	83c1                	srli	a5,a5,0x10
    1330:	07c2                	slli	a5,a5,0x10
    1332:	87c1                	srai	a5,a5,0x10
    1334:	fef41123          	sh	a5,-30(s0)
    1338:	01069793          	slli	a5,a3,0x10
    133c:	83c1                	srli	a5,a5,0x10
    133e:	02f707b3          	mul	a5,a4,a5
    1342:	07c2                	slli	a5,a5,0x10
    1344:	83c1                	srli	a5,a5,0x10
    1346:	ea040713          	addi	a4,s0,-352
    134a:	863a                	mv	a2,a4
    134c:	85be                	mv	a1,a5
    134e:	4501                	li	a0,0
    1350:	9802                	jalr	a6
C:/Users/86152/Desktop/单车越野/我的/代码调试/Bicycle_Code/libraries/zf_common/zf_common_debug.c:187 (discriminator 2)
                for(i = 0; i < ((strlen(str) / show_len) + 1); i ++)
    1352:	fea45783          	lhu	a5,-22(s0)
    1356:	07c2                	slli	a5,a5,0x10
    1358:	83c1                	srli	a5,a5,0x10
    135a:	0785                	addi	a5,a5,1
    135c:	07c2                	slli	a5,a5,0x10
    135e:	83c1                	srli	a5,a5,0x10
    1360:	fef41523          	sh	a5,-22(s0)
C:/Users/86152/Desktop/单车越野/我的/代码调试/Bicycle_Code/libraries/zf_common/zf_common_debug.c:187 (discriminator 1)
    1364:	fea45783          	lhu	a5,-22(s0)
    1368:	07c2                	slli	a5,a5,0x10
    136a:	83c1                	srli	a5,a5,0x10
    136c:	84be                	mv	s1,a5
    136e:	d9042503          	lw	a0,-624(s0)
    1372:	5ca060ef          	jal	ra,793c <strlen>
    1376:	872a                	mv	a4,a0
    1378:	fe445783          	lhu	a5,-28(s0)
    137c:	07c2                	slli	a5,a5,0x10
    137e:	87c1                	srai	a5,a5,0x10
    1380:	02f757b3          	divu	a5,a4,a5
    1384:	0785                	addi	a5,a5,1
    1386:	ecf4e4e3          	bltu	s1,a5,124e <debug_output+0x376>
C:/Users/86152/Desktop/单车越野/我的/代码调试/Bicycle_Code/libraries/zf_common/zf_common_debug.c:220
                sprintf(output_buffer, "\r\nfile %s line %d.\r\n", file, line);
            }
            debug_output_info.output_uart(output_buffer);
        }
    }
}
    138a:	a09d                	j	13f0 <debug_output+0x518>
C:/Users/86152/Desktop/单车越野/我的/代码调试/Bicycle_Code/libraries/zf_common/zf_common_debug.c:207
            memset(output_buffer, 0, 256);
    138c:	da040793          	addi	a5,s0,-608
    1390:	10000613          	li	a2,256
    1394:	4581                	li	a1,0
    1396:	853e                	mv	a0,a5
    1398:	e69fe0ef          	jal	ra,200 <memset>
C:/Users/86152/Desktop/单车越野/我的/代码调试/Bicycle_Code/libraries/zf_common/zf_common_debug.c:208
            debug_output_info.output_uart(type);
    139c:	98c18793          	addi	a5,gp,-1652 # 200003c4 <debug_output_info>
    13a0:	479c                	lw	a5,8(a5)
    13a2:	d9c42503          	lw	a0,-612(s0)
    13a6:	9782                	jalr	a5
C:/Users/86152/Desktop/单车越野/我的/代码调试/Bicycle_Code/libraries/zf_common/zf_common_debug.c:209
            if(NULL != str)
    13a8:	d9042783          	lw	a5,-624(s0)
    13ac:	cf99                	beqz	a5,13ca <debug_output+0x4f2>
C:/Users/86152/Desktop/单车越野/我的/代码调试/Bicycle_Code/libraries/zf_common/zf_common_debug.c:211
                sprintf(output_buffer, "\r\nfile %s line %d: %s.\r\n", file, line, str);
    13ae:	da040513          	addi	a0,s0,-608
    13b2:	d9042703          	lw	a4,-624(s0)
    13b6:	d9442683          	lw	a3,-620(s0)
    13ba:	d9842603          	lw	a2,-616(s0)
    13be:	67a9                	lui	a5,0xa
    13c0:	53078593          	addi	a1,a5,1328 # a530 <_sbrk+0x19a>
    13c4:	532060ef          	jal	ra,78f6 <siprintf>
    13c8:	a829                	j	13e2 <debug_output+0x50a>
C:/Users/86152/Desktop/单车越野/我的/代码调试/Bicycle_Code/libraries/zf_common/zf_common_debug.c:215
                sprintf(output_buffer, "\r\nfile %s line %d.\r\n", file, line);
    13ca:	da040713          	addi	a4,s0,-608
    13ce:	d9442683          	lw	a3,-620(s0)
    13d2:	d9842603          	lw	a2,-616(s0)
    13d6:	67a9                	lui	a5,0xa
    13d8:	54c78593          	addi	a1,a5,1356 # a54c <_sbrk+0x1b6>
    13dc:	853a                	mv	a0,a4
    13de:	518060ef          	jal	ra,78f6 <siprintf>
C:/Users/86152/Desktop/单车越野/我的/代码调试/Bicycle_Code/libraries/zf_common/zf_common_debug.c:217 (discriminator 2)
            debug_output_info.output_uart(output_buffer);
    13e2:	98c18793          	addi	a5,gp,-1652 # 200003c4 <debug_output_info>
    13e6:	4798                	lw	a4,8(a5)
    13e8:	da040793          	addi	a5,s0,-608
    13ec:	853e                	mv	a0,a5
    13ee:	9702                	jalr	a4
C:/Users/86152/Desktop/单车越野/我的/代码调试/Bicycle_Code/libraries/zf_common/zf_common_debug.c:220
}
    13f0:	0001                	nop
    13f2:	26c12083          	lw	ra,620(sp)
    13f6:	26812403          	lw	s0,616(sp)
    13fa:	26412483          	lw	s1,612(sp)
    13fe:	27010113          	addi	sp,sp,624
    1402:	8082                	ret

00001404 <_write>:
_write():
C:/Users/86152/Desktop/单车越野/我的/代码调试/Bicycle_Code/libraries/zf_common/zf_common_debug.c:267
//  @since      v1.0
// 备注信息              重定向printf到DEBUG串口上
//-------------------------------------------------------------------------------------------------------------------
#if (1 == PRINTF_ENABLE)
int _write(int fd, char *buf, int size)
{
    1404:	7179                	addi	sp,sp,-48
    1406:	d606                	sw	ra,44(sp)
    1408:	d422                	sw	s0,40(sp)
    140a:	1800                	addi	s0,sp,48
    140c:	fca42e23          	sw	a0,-36(s0)
    1410:	fcb42c23          	sw	a1,-40(s0)
    1414:	fcc42a23          	sw	a2,-44(s0)
C:/Users/86152/Desktop/单车越野/我的/代码调试/Bicycle_Code/libraries/zf_common/zf_common_debug.c:269
    int i;
    for(i=0; i<size; i++)
    1418:	fe042623          	sw	zero,-20(s0)
    141c:	a0a9                	j	1466 <_write+0x62>
C:/Users/86152/Desktop/单车越野/我的/代码调试/Bicycle_Code/libraries/zf_common/zf_common_debug.c:271
    {
        while (USART_GetFlagStatus((USART_TypeDef*)uart_index[DEBUG_UART_INDEX], USART_FLAG_TC) == RESET);
    141e:	0001                	nop
C:/Users/86152/Desktop/单车越野/我的/代码调试/Bicycle_Code/libraries/zf_common/zf_common_debug.c:271 (discriminator 1)
    1420:	67a9                	lui	a5,0xa
    1422:	62478793          	addi	a5,a5,1572 # a624 <uart_index>
    1426:	479c                	lw	a5,8(a5)
    1428:	04000593          	li	a1,64
    142c:	853e                	mv	a0,a5
    142e:	2ac020ef          	jal	ra,36da <USART_GetFlagStatus>
    1432:	87aa                	mv	a5,a0
    1434:	d7f5                	beqz	a5,1420 <_write+0x1c>
C:/Users/86152/Desktop/单车越野/我的/代码调试/Bicycle_Code/libraries/zf_common/zf_common_debug.c:272 (discriminator 2)
        USART_SendData((USART_TypeDef*)uart_index[DEBUG_UART_INDEX], *buf++);
    1436:	67a9                	lui	a5,0xa
    1438:	62478793          	addi	a5,a5,1572 # a624 <uart_index>
    143c:	479c                	lw	a5,8(a5)
    143e:	86be                	mv	a3,a5
    1440:	fd842783          	lw	a5,-40(s0)
    1444:	00178713          	addi	a4,a5,1
    1448:	fce42c23          	sw	a4,-40(s0)
    144c:	00078783          	lb	a5,0(a5)
    1450:	07c2                	slli	a5,a5,0x10
    1452:	83c1                	srli	a5,a5,0x10
    1454:	85be                	mv	a1,a5
    1456:	8536                	mv	a0,a3
    1458:	254020ef          	jal	ra,36ac <USART_SendData>
C:/Users/86152/Desktop/单车越野/我的/代码调试/Bicycle_Code/libraries/zf_common/zf_common_debug.c:269 (discriminator 2)
    for(i=0; i<size; i++)
    145c:	fec42783          	lw	a5,-20(s0)
    1460:	0785                	addi	a5,a5,1
    1462:	fef42623          	sw	a5,-20(s0)
C:/Users/86152/Desktop/单车越野/我的/代码调试/Bicycle_Code/libraries/zf_common/zf_common_debug.c:269 (discriminator 1)
    1466:	fec42703          	lw	a4,-20(s0)
    146a:	fd442783          	lw	a5,-44(s0)
    146e:	faf748e3          	blt	a4,a5,141e <_write+0x1a>
C:/Users/86152/Desktop/单车越野/我的/代码调试/Bicycle_Code/libraries/zf_common/zf_common_debug.c:274
    }
    return size;
    1472:	fd442783          	lw	a5,-44(s0)
C:/Users/86152/Desktop/单车越野/我的/代码调试/Bicycle_Code/libraries/zf_common/zf_common_debug.c:275
}
    1476:	853e                	mv	a0,a5
    1478:	50b2                	lw	ra,44(sp)
    147a:	5422                	lw	s0,40(sp)
    147c:	6145                	addi	sp,sp,48
    147e:	8082                	ret

00001480 <debug_assert_handler>:
debug_assert_handler():
C:/Users/86152/Desktop/单车越野/我的/代码调试/Bicycle_Code/libraries/zf_common/zf_common_debug.c:314
// 使用示例     zf_assert(0);
// 备注信息     这个函数不是直接调用的 此部分不允许用户更改
//              使用 zf_commmon_debug.h 中的 zf_assert(x) 接口
//-------------------------------------------------------------------------------------------------------------------
void debug_assert_handler (uint8 pass, char *file, int line)
{
    1480:	1101                	addi	sp,sp,-32
    1482:	ce06                	sw	ra,28(sp)
    1484:	cc22                	sw	s0,24(sp)
    1486:	1000                	addi	s0,sp,32
    1488:	87aa                	mv	a5,a0
    148a:	feb42423          	sw	a1,-24(s0)
    148e:	fec42223          	sw	a2,-28(s0)
    1492:	fef407a3          	sb	a5,-17(s0)
C:/Users/86152/Desktop/单车越野/我的/代码调试/Bicycle_Code/libraries/zf_common/zf_common_debug.c:317
    do
    {
       if(pass || !zf_debug_assert_enable)
    1496:	fef44783          	lbu	a5,-17(s0)
    149a:	e3a1                	bnez	a5,14da <debug_assert_handler+0x5a>
C:/Users/86152/Desktop/单车越野/我的/代码调试/Bicycle_Code/libraries/zf_common/zf_common_debug.c:317 (discriminator 1)
    149c:	8101c783          	lbu	a5,-2032(gp) # 20000248 <zf_debug_assert_enable>
    14a0:	0ff7f793          	andi	a5,a5,255
    14a4:	cb9d                	beqz	a5,14da <debug_assert_handler+0x5a>
C:/Users/86152/Desktop/单车越野/我的/代码调试/Bicycle_Code/libraries/zf_common/zf_common_debug.c:324
           break;
       }

       static uint8 assert_nest_index = 0;

       if(0 != assert_nest_index)
    14a6:	83d1c783          	lbu	a5,-1987(gp) # 20000275 <assert_nest_index.5018>
    14aa:	c391                	beqz	a5,14ae <debug_assert_handler+0x2e>
C:/Users/86152/Desktop/单车越野/我的/代码调试/Bicycle_Code/libraries/zf_common/zf_common_debug.c:326 (discriminator 1)
       {
           while(1);
    14ac:	a001                	j	14ac <debug_assert_handler+0x2c>
C:/Users/86152/Desktop/单车越野/我的/代码调试/Bicycle_Code/libraries/zf_common/zf_common_debug.c:328
       }
       assert_nest_index ++;
    14ae:	83d1c783          	lbu	a5,-1987(gp) # 20000275 <assert_nest_index.5018>
    14b2:	0785                	addi	a5,a5,1
    14b4:	0ff7f713          	andi	a4,a5,255
    14b8:	82e18ea3          	sb	a4,-1987(gp) # 20000275 <assert_nest_index.5018>
C:/Users/86152/Desktop/单车越野/我的/代码调试/Bicycle_Code/libraries/zf_common/zf_common_debug.c:330

       interrupt_global_disable();
    14bc:	157000ef          	jal	ra,1e12 <interrupt_global_disable>
C:/Users/86152/Desktop/单车越野/我的/代码调试/Bicycle_Code/libraries/zf_common/zf_common_debug.c:331
       debug_protective_handler();
    14c0:	32ed                	jal	eaa <debug_protective_handler>
C:/Users/86152/Desktop/单车越野/我的/代码调试/Bicycle_Code/libraries/zf_common/zf_common_debug.c:348 (discriminator 1)
           // 那就看看这个 file 的字符串值和 line 的行数
           // 那代表报错的文件路径名称和对应报错行数

           // 再去调试看看是为什么参数出错

           debug_output("Assert error", file, line, NULL);
    14c2:	4681                	li	a3,0
    14c4:	fe442603          	lw	a2,-28(s0)
    14c8:	fe842583          	lw	a1,-24(s0)
    14cc:	67a9                	lui	a5,0xa
    14ce:	56478513          	addi	a0,a5,1380 # a564 <_sbrk+0x1ce>
    14d2:	3419                	jal	ed8 <debug_output>
C:/Users/86152/Desktop/单车越野/我的/代码调试/Bicycle_Code/libraries/zf_common/zf_common_debug.c:349 (discriminator 1)
           debug_delay();
    14d4:	985ff0ef          	jal	ra,e58 <debug_delay>
C:/Users/86152/Desktop/单车越野/我的/代码调试/Bicycle_Code/libraries/zf_common/zf_common_debug.c:348 (discriminator 1)
           debug_output("Assert error", file, line, NULL);
    14d8:	b7ed                	j	14c2 <debug_assert_handler+0x42>
C:/Users/86152/Desktop/单车越野/我的/代码调试/Bicycle_Code/libraries/zf_common/zf_common_debug.c:352
       }
   }while(0);
}
    14da:	0001                	nop
    14dc:	40f2                	lw	ra,28(sp)
    14de:	4462                	lw	s0,24(sp)
    14e0:	6105                	addi	sp,sp,32
    14e2:	8082                	ret

000014e4 <debug_output_struct_init>:
debug_output_struct_init():
C:/Users/86152/Desktop/单车越野/我的/代码调试/Bicycle_Code/libraries/zf_common/zf_common_debug.c:388
// 参数说明     *info       debug 输出的信息结构体
// 返回参数     void
// Sample usage:            debug_output_struct_init(info);
//-------------------------------------------------------------------------------------------------------------------
void debug_output_struct_init (debug_output_struct *info)
{
    14e4:	1101                	addi	sp,sp,-32
    14e6:	ce22                	sw	s0,28(sp)
    14e8:	1000                	addi	s0,sp,32
    14ea:	fea42623          	sw	a0,-20(s0)
C:/Users/86152/Desktop/单车越野/我的/代码调试/Bicycle_Code/libraries/zf_common/zf_common_debug.c:389
    info->type_index            = 0;
    14ee:	fec42783          	lw	a5,-20(s0)
    14f2:	00079023          	sh	zero,0(a5)
C:/Users/86152/Desktop/单车越野/我的/代码调试/Bicycle_Code/libraries/zf_common/zf_common_debug.c:391

    info->display_x_max         = 0xFFFF;
    14f6:	fec42783          	lw	a5,-20(s0)
    14fa:	577d                	li	a4,-1
    14fc:	00e79123          	sh	a4,2(a5)
C:/Users/86152/Desktop/单车越野/我的/代码调试/Bicycle_Code/libraries/zf_common/zf_common_debug.c:392
    info->display_y_max         = 0xFFFF;
    1500:	fec42783          	lw	a5,-20(s0)
    1504:	577d                	li	a4,-1
    1506:	00e79223          	sh	a4,4(a5)
C:/Users/86152/Desktop/单车越野/我的/代码调试/Bicycle_Code/libraries/zf_common/zf_common_debug.c:394

    info->font_x_size           = 0xFF;
    150a:	fec42783          	lw	a5,-20(s0)
    150e:	577d                	li	a4,-1
    1510:	00e78323          	sb	a4,6(a5)
C:/Users/86152/Desktop/单车越野/我的/代码调试/Bicycle_Code/libraries/zf_common/zf_common_debug.c:395
    info->font_y_size           = 0xFF;
    1514:	fec42783          	lw	a5,-20(s0)
    1518:	577d                	li	a4,-1
    151a:	00e783a3          	sb	a4,7(a5)
C:/Users/86152/Desktop/单车越野/我的/代码调试/Bicycle_Code/libraries/zf_common/zf_common_debug.c:397

    info->output_uart           = NULL;
    151e:	fec42783          	lw	a5,-20(s0)
    1522:	0007a423          	sw	zero,8(a5)
C:/Users/86152/Desktop/单车越野/我的/代码调试/Bicycle_Code/libraries/zf_common/zf_common_debug.c:398
    info->output_screen         = NULL;
    1526:	fec42783          	lw	a5,-20(s0)
    152a:	0007a623          	sw	zero,12(a5)
C:/Users/86152/Desktop/单车越野/我的/代码调试/Bicycle_Code/libraries/zf_common/zf_common_debug.c:399
    info->output_screen_clear   = NULL;
    152e:	fec42783          	lw	a5,-20(s0)
    1532:	0007a823          	sw	zero,16(a5)
C:/Users/86152/Desktop/单车越野/我的/代码调试/Bicycle_Code/libraries/zf_common/zf_common_debug.c:400
}
    1536:	0001                	nop
    1538:	4472                	lw	s0,28(sp)
    153a:	6105                	addi	sp,sp,32
    153c:	8082                	ret

0000153e <debug_output_init>:
debug_output_init():
C:/Users/86152/Desktop/单车越野/我的/代码调试/Bicycle_Code/libraries/zf_common/zf_common_debug.c:410
// 返回参数     void
// 使用示例     debug_output_init(info);
// 备注信息     这个函数一般不由用户调用
//-------------------------------------------------------------------------------------------------------------------
void debug_output_init (debug_output_struct *info)
{
    153e:	1101                	addi	sp,sp,-32
    1540:	ce22                	sw	s0,28(sp)
    1542:	1000                	addi	s0,sp,32
    1544:	fea42623          	sw	a0,-20(s0)
C:/Users/86152/Desktop/单车越野/我的/代码调试/Bicycle_Code/libraries/zf_common/zf_common_debug.c:411
    debug_output_info.type_index            = info->type_index;
    1548:	fec42783          	lw	a5,-20(s0)
    154c:	0007d703          	lhu	a4,0(a5)
    1550:	98e19623          	sh	a4,-1652(gp) # 200003c4 <debug_output_info>
C:/Users/86152/Desktop/单车越野/我的/代码调试/Bicycle_Code/libraries/zf_common/zf_common_debug.c:413

    debug_output_info.display_x_max         = info->display_x_max;
    1554:	fec42783          	lw	a5,-20(s0)
    1558:	0027d703          	lhu	a4,2(a5)
    155c:	98c18793          	addi	a5,gp,-1652 # 200003c4 <debug_output_info>
    1560:	00e79123          	sh	a4,2(a5)
C:/Users/86152/Desktop/单车越野/我的/代码调试/Bicycle_Code/libraries/zf_common/zf_common_debug.c:414
    debug_output_info.display_y_max         = info->display_y_max;
    1564:	fec42783          	lw	a5,-20(s0)
    1568:	0047d703          	lhu	a4,4(a5)
    156c:	98c18793          	addi	a5,gp,-1652 # 200003c4 <debug_output_info>
    1570:	00e79223          	sh	a4,4(a5)
C:/Users/86152/Desktop/单车越野/我的/代码调试/Bicycle_Code/libraries/zf_common/zf_common_debug.c:416

    debug_output_info.font_x_size           = info->font_x_size;
    1574:	fec42783          	lw	a5,-20(s0)
    1578:	0067c703          	lbu	a4,6(a5)
    157c:	98c18793          	addi	a5,gp,-1652 # 200003c4 <debug_output_info>
    1580:	00e78323          	sb	a4,6(a5)
C:/Users/86152/Desktop/单车越野/我的/代码调试/Bicycle_Code/libraries/zf_common/zf_common_debug.c:417
    debug_output_info.font_y_size           = info->font_y_size;
    1584:	fec42783          	lw	a5,-20(s0)
    1588:	0077c703          	lbu	a4,7(a5)
    158c:	98c18793          	addi	a5,gp,-1652 # 200003c4 <debug_output_info>
    1590:	00e783a3          	sb	a4,7(a5)
C:/Users/86152/Desktop/单车越野/我的/代码调试/Bicycle_Code/libraries/zf_common/zf_common_debug.c:419

    debug_output_info.output_uart           = info->output_uart;
    1594:	fec42783          	lw	a5,-20(s0)
    1598:	4798                	lw	a4,8(a5)
    159a:	98c18793          	addi	a5,gp,-1652 # 200003c4 <debug_output_info>
    159e:	c798                	sw	a4,8(a5)
C:/Users/86152/Desktop/单车越野/我的/代码调试/Bicycle_Code/libraries/zf_common/zf_common_debug.c:420
    debug_output_info.output_screen         = info->output_screen;
    15a0:	fec42783          	lw	a5,-20(s0)
    15a4:	47d8                	lw	a4,12(a5)
    15a6:	98c18793          	addi	a5,gp,-1652 # 200003c4 <debug_output_info>
    15aa:	c7d8                	sw	a4,12(a5)
C:/Users/86152/Desktop/单车越野/我的/代码调试/Bicycle_Code/libraries/zf_common/zf_common_debug.c:421
    debug_output_info.output_screen_clear   = info->output_screen_clear;
    15ac:	fec42783          	lw	a5,-20(s0)
    15b0:	4b98                	lw	a4,16(a5)
    15b2:	98c18793          	addi	a5,gp,-1652 # 200003c4 <debug_output_info>
    15b6:	cb98                	sw	a4,16(a5)
C:/Users/86152/Desktop/单车越野/我的/代码调试/Bicycle_Code/libraries/zf_common/zf_common_debug.c:423

    zf_debug_init_flag = 1;
    15b8:	4705                	li	a4,1
    15ba:	82e18e23          	sb	a4,-1988(gp) # 20000274 <zf_debug_init_flag>
C:/Users/86152/Desktop/单车越野/我的/代码调试/Bicycle_Code/libraries/zf_common/zf_common_debug.c:424
}
    15be:	0001                	nop
    15c0:	4472                	lw	s0,28(sp)
    15c2:	6105                	addi	sp,sp,32
    15c4:	8082                	ret

000015c6 <debug_init>:
debug_init():
C:/Users/86152/Desktop/单车越野/我的/代码调试/Bicycle_Code/libraries/zf_common/zf_common_debug.c:434
// 返回参数     void
// 使用示例     debug_init();
// 备注信息     开源库示例默认调用 但默认禁用中断接收
//-------------------------------------------------------------------------------------------------------------------
void debug_init (void)
{
    15c6:	7179                	addi	sp,sp,-48
    15c8:	d606                	sw	ra,44(sp)
    15ca:	d422                	sw	s0,40(sp)
    15cc:	1800                	addi	s0,sp,48
C:/Users/86152/Desktop/单车越野/我的/代码调试/Bicycle_Code/libraries/zf_common/zf_common_debug.c:436
    debug_output_struct info;
    debug_output_struct_init(&info);
    15ce:	fdc40793          	addi	a5,s0,-36
    15d2:	853e                	mv	a0,a5
    15d4:	3f01                	jal	14e4 <debug_output_struct_init>
C:/Users/86152/Desktop/单车越野/我的/代码调试/Bicycle_Code/libraries/zf_common/zf_common_debug.c:437
    info.output_uart = debug_uart_str_output;
    15d6:	000017b7          	lui	a5,0x1
    15da:	eb878793          	addi	a5,a5,-328 # eb8 <debug_uart_str_output>
    15de:	fef42223          	sw	a5,-28(s0)
C:/Users/86152/Desktop/单车越野/我的/代码调试/Bicycle_Code/libraries/zf_common/zf_common_debug.c:438
    debug_output_init(&info);
    15e2:	fdc40793          	addi	a5,s0,-36
    15e6:	853e                	mv	a0,a5
    15e8:	3f99                	jal	153e <debug_output_init>
C:/Users/86152/Desktop/单车越野/我的/代码调试/Bicycle_Code/libraries/zf_common/zf_common_debug.c:440

    uart_init(
    15ea:	6789                	lui	a5,0x2
    15ec:	02b78693          	addi	a3,a5,43 # 202b <UART4_IRQHandler+0x4d>
    15f0:	6789                	lui	a5,0x2
    15f2:	02a78613          	addi	a2,a5,42 # 202a <UART4_IRQHandler+0x4c>
    15f6:	67f1                	lui	a5,0x1c
    15f8:	20078593          	addi	a1,a5,512 # 1c200 <_data_lma+0x115ac>
    15fc:	4509                	li	a0,2
    15fe:	f1bfe0ef          	jal	ra,518 <uart_init>
C:/Users/86152/Desktop/单车越野/我的/代码调试/Bicycle_Code/libraries/zf_common/zf_common_debug.c:450

#if DEBUG_UART_USE_INTERRUPT                                                    // 条件编译 只有在启用串口中断才编译
    fifo_init(&debug_uart_fifo, FIFO_DATA_8BIT, debug_uart_buffer, DEBUG_RING_BUFFER_LEN);
    uart_rx_interrupt(DEBUG_UART_INDEX, 1);                                     // 使能对应串口接收中断
#endif
}
    1602:	0001                	nop
    1604:	50b2                	lw	ra,44(sp)
    1606:	5422                	lw	s0,40(sp)
    1608:	6145                	addi	sp,sp,48
    160a:	8082                	ret

0000160c <fifo_head_offset>:
fifo_head_offset():
C:/Users/86152/Desktop/单车越野/我的/代码调试/Bicycle_Code/libraries/zf_common/zf_common_fifo.c:48
// 返回参数     void
// 使用示例     fifo_head_offset(fifo, 1);
// 备注信息     本函数在文件内部调用 用户不用关注 也不可修改
//-------------------------------------------------------------------------------------------------------------------
static void fifo_head_offset (fifo_struct *fifo, uint32 offset)
{
    160c:	1101                	addi	sp,sp,-32
    160e:	ce22                	sw	s0,28(sp)
    1610:	1000                	addi	s0,sp,32
    1612:	fea42623          	sw	a0,-20(s0)
    1616:	feb42423          	sw	a1,-24(s0)
C:/Users/86152/Desktop/单车越野/我的/代码调试/Bicycle_Code/libraries/zf_common/zf_common_fifo.c:49
    fifo->head += offset;
    161a:	fec42783          	lw	a5,-20(s0)
    161e:	47d8                	lw	a4,12(a5)
    1620:	fe842783          	lw	a5,-24(s0)
    1624:	973e                	add	a4,a4,a5
    1626:	fec42783          	lw	a5,-20(s0)
    162a:	c7d8                	sw	a4,12(a5)
C:/Users/86152/Desktop/单车越野/我的/代码调试/Bicycle_Code/libraries/zf_common/zf_common_fifo.c:51
    
    while(fifo->max <= fifo->head)                                              // 如果范围超过则减缓冲区大小 直到小于最大缓冲区大小
    162c:	a819                	j	1642 <fifo_head_offset+0x36>
C:/Users/86152/Desktop/单车越野/我的/代码调试/Bicycle_Code/libraries/zf_common/zf_common_fifo.c:53
    {
        fifo->head -= fifo->max;
    162e:	fec42783          	lw	a5,-20(s0)
    1632:	47d8                	lw	a4,12(a5)
    1634:	fec42783          	lw	a5,-20(s0)
    1638:	4f9c                	lw	a5,24(a5)
    163a:	8f1d                	sub	a4,a4,a5
    163c:	fec42783          	lw	a5,-20(s0)
    1640:	c7d8                	sw	a4,12(a5)
C:/Users/86152/Desktop/单车越野/我的/代码调试/Bicycle_Code/libraries/zf_common/zf_common_fifo.c:51
    while(fifo->max <= fifo->head)                                              // 如果范围超过则减缓冲区大小 直到小于最大缓冲区大小
    1642:	fec42783          	lw	a5,-20(s0)
    1646:	4f98                	lw	a4,24(a5)
    1648:	fec42783          	lw	a5,-20(s0)
    164c:	47dc                	lw	a5,12(a5)
    164e:	fee7f0e3          	bgeu	a5,a4,162e <fifo_head_offset+0x22>
C:/Users/86152/Desktop/单车越野/我的/代码调试/Bicycle_Code/libraries/zf_common/zf_common_fifo.c:55
    }
}
    1652:	0001                	nop
    1654:	4472                	lw	s0,28(sp)
    1656:	6105                	addi	sp,sp,32
    1658:	8082                	ret

0000165a <fifo_end_offset>:
fifo_end_offset():
C:/Users/86152/Desktop/单车越野/我的/代码调试/Bicycle_Code/libraries/zf_common/zf_common_fifo.c:66
// 返回参数     void
// 使用示例     fifo_end_offset(fifo, 1);
// 备注信息     本函数在文件内部调用 用户不用关注 也不可修改
//-------------------------------------------------------------------------------------------------------------------
static void fifo_end_offset (fifo_struct *fifo, uint32 offset)
{
    165a:	1101                	addi	sp,sp,-32
    165c:	ce22                	sw	s0,28(sp)
    165e:	1000                	addi	s0,sp,32
    1660:	fea42623          	sw	a0,-20(s0)
    1664:	feb42423          	sw	a1,-24(s0)
C:/Users/86152/Desktop/单车越野/我的/代码调试/Bicycle_Code/libraries/zf_common/zf_common_fifo.c:67
    fifo->end += offset;
    1668:	fec42783          	lw	a5,-20(s0)
    166c:	4b98                	lw	a4,16(a5)
    166e:	fe842783          	lw	a5,-24(s0)
    1672:	973e                	add	a4,a4,a5
    1674:	fec42783          	lw	a5,-20(s0)
    1678:	cb98                	sw	a4,16(a5)
C:/Users/86152/Desktop/单车越野/我的/代码调试/Bicycle_Code/libraries/zf_common/zf_common_fifo.c:69
    
    while(fifo->max <= fifo->end)                                               // 如果范围超过则减缓冲区大小 直到小于最大缓冲区大小
    167a:	a819                	j	1690 <fifo_end_offset+0x36>
C:/Users/86152/Desktop/单车越野/我的/代码调试/Bicycle_Code/libraries/zf_common/zf_common_fifo.c:71
    {
        fifo->end -= fifo->max;
    167c:	fec42783          	lw	a5,-20(s0)
    1680:	4b98                	lw	a4,16(a5)
    1682:	fec42783          	lw	a5,-20(s0)
    1686:	4f9c                	lw	a5,24(a5)
    1688:	8f1d                	sub	a4,a4,a5
    168a:	fec42783          	lw	a5,-20(s0)
    168e:	cb98                	sw	a4,16(a5)
C:/Users/86152/Desktop/单车越野/我的/代码调试/Bicycle_Code/libraries/zf_common/zf_common_fifo.c:69
    while(fifo->max <= fifo->end)                                               // 如果范围超过则减缓冲区大小 直到小于最大缓冲区大小
    1690:	fec42783          	lw	a5,-20(s0)
    1694:	4f98                	lw	a4,24(a5)
    1696:	fec42783          	lw	a5,-20(s0)
    169a:	4b9c                	lw	a5,16(a5)
    169c:	fee7f0e3          	bgeu	a5,a4,167c <fifo_end_offset+0x22>
C:/Users/86152/Desktop/单车越野/我的/代码调试/Bicycle_Code/libraries/zf_common/zf_common_fifo.c:73
    }
}
    16a0:	0001                	nop
    16a2:	4472                	lw	s0,28(sp)
    16a4:	6105                	addi	sp,sp,32
    16a6:	8082                	ret

000016a8 <fifo_clear>:
fifo_clear():
C:/Users/86152/Desktop/单车越野/我的/代码调试/Bicycle_Code/libraries/zf_common/zf_common_fifo.c:83
// 返回参数     void
// 使用示例     fifo_clear(fifo);
// 备注信息     清空当前 FIFO 对象的内存
//-------------------------------------------------------------------------------------------------------------------
fifo_state_enum fifo_clear (fifo_struct *fifo)
{
    16a8:	7179                	addi	sp,sp,-48
    16aa:	d606                	sw	ra,44(sp)
    16ac:	d422                	sw	s0,40(sp)
    16ae:	1800                	addi	s0,sp,48
    16b0:	fca42e23          	sw	a0,-36(s0)
C:/Users/86152/Desktop/单车越野/我的/代码调试/Bicycle_Code/libraries/zf_common/zf_common_fifo.c:84
    zf_assert(fifo != NULL);
    16b4:	fdc42783          	lw	a5,-36(s0)
    16b8:	00f037b3          	snez	a5,a5
    16bc:	0ff7f793          	andi	a5,a5,255
    16c0:	873e                	mv	a4,a5
    16c2:	05400613          	li	a2,84
    16c6:	67a9                	lui	a5,0xa
    16c8:	58078593          	addi	a1,a5,1408 # a580 <_sbrk+0x1ea>
    16cc:	853a                	mv	a0,a4
    16ce:	3b4d                	jal	1480 <debug_assert_handler>
C:/Users/86152/Desktop/单车越野/我的/代码调试/Bicycle_Code/libraries/zf_common/zf_common_fifo.c:85
    fifo_state_enum return_state = FIFO_SUCCESS;
    16d0:	fe042623          	sw	zero,-20(s0)
C:/Users/86152/Desktop/单车越野/我的/代码调试/Bicycle_Code/libraries/zf_common/zf_common_fifo.c:88
    do
    {
        if(FIFO_CLEAR & fifo->execution)
    16d4:	fdc42783          	lw	a5,-36(s0)
    16d8:	0007c783          	lbu	a5,0(a5)
    16dc:	8b85                	andi	a5,a5,1
    16de:	0ff7f793          	andi	a5,a5,255
    16e2:	c789                	beqz	a5,16ec <fifo_clear+0x44>
C:/Users/86152/Desktop/单车越野/我的/代码调试/Bicycle_Code/libraries/zf_common/zf_common_fifo.c:90
        {
            return_state = FIFO_CLEAR_UNDO;
    16e4:	4789                	li	a5,2
    16e6:	fef42623          	sw	a5,-20(s0)
C:/Users/86152/Desktop/单车越野/我的/代码调试/Bicycle_Code/libraries/zf_common/zf_common_fifo.c:91
            break;
    16ea:	a07d                	j	1798 <fifo_clear+0xf0>
C:/Users/86152/Desktop/单车越野/我的/代码调试/Bicycle_Code/libraries/zf_common/zf_common_fifo.c:93
        }
        fifo->execution |= FIFO_CLEAR;
    16ec:	fdc42783          	lw	a5,-36(s0)
    16f0:	0007c783          	lbu	a5,0(a5)
    16f4:	0017e793          	ori	a5,a5,1
    16f8:	0ff7f713          	andi	a4,a5,255
    16fc:	fdc42783          	lw	a5,-36(s0)
    1700:	00e78023          	sb	a4,0(a5)
C:/Users/86152/Desktop/单车越野/我的/代码调试/Bicycle_Code/libraries/zf_common/zf_common_fifo.c:94
        fifo->head      = 0;
    1704:	fdc42783          	lw	a5,-36(s0)
    1708:	0007a623          	sw	zero,12(a5)
C:/Users/86152/Desktop/单车越野/我的/代码调试/Bicycle_Code/libraries/zf_common/zf_common_fifo.c:95
        fifo->end       = 0;
    170c:	fdc42783          	lw	a5,-36(s0)
    1710:	0007a823          	sw	zero,16(a5)
C:/Users/86152/Desktop/单车越野/我的/代码调试/Bicycle_Code/libraries/zf_common/zf_common_fifo.c:96
        fifo->size      = fifo->max;
    1714:	fdc42783          	lw	a5,-36(s0)
    1718:	4f98                	lw	a4,24(a5)
    171a:	fdc42783          	lw	a5,-36(s0)
    171e:	cbd8                	sw	a4,20(a5)
C:/Users/86152/Desktop/单车越野/我的/代码调试/Bicycle_Code/libraries/zf_common/zf_common_fifo.c:97
        switch(fifo->type)
    1720:	fdc42783          	lw	a5,-36(s0)
    1724:	43dc                	lw	a5,4(a5)
    1726:	4705                	li	a4,1
    1728:	02e78363          	beq	a5,a4,174e <fifo_clear+0xa6>
    172c:	c789                	beqz	a5,1736 <fifo_clear+0x8e>
    172e:	4709                	li	a4,2
    1730:	02e78c63          	beq	a5,a4,1768 <fifo_clear+0xc0>
    1734:	a0b9                	j	1782 <fifo_clear+0xda>
C:/Users/86152/Desktop/单车越野/我的/代码调试/Bicycle_Code/libraries/zf_common/zf_common_fifo.c:100
        {
            case FIFO_DATA_8BIT:
                memset(fifo->buffer, 0, fifo->max);
    1736:	fdc42783          	lw	a5,-36(s0)
    173a:	4798                	lw	a4,8(a5)
    173c:	fdc42783          	lw	a5,-36(s0)
    1740:	4f9c                	lw	a5,24(a5)
    1742:	863e                	mv	a2,a5
    1744:	4581                	li	a1,0
    1746:	853a                	mv	a0,a4
    1748:	ab9fe0ef          	jal	ra,200 <memset>
C:/Users/86152/Desktop/单车越野/我的/代码调试/Bicycle_Code/libraries/zf_common/zf_common_fifo.c:101
                break;
    174c:	a81d                	j	1782 <fifo_clear+0xda>
C:/Users/86152/Desktop/单车越野/我的/代码调试/Bicycle_Code/libraries/zf_common/zf_common_fifo.c:103
            case FIFO_DATA_16BIT:
                memset(fifo->buffer, 0, fifo->max * 2);
    174e:	fdc42783          	lw	a5,-36(s0)
    1752:	4798                	lw	a4,8(a5)
    1754:	fdc42783          	lw	a5,-36(s0)
    1758:	4f9c                	lw	a5,24(a5)
    175a:	0786                	slli	a5,a5,0x1
    175c:	863e                	mv	a2,a5
    175e:	4581                	li	a1,0
    1760:	853a                	mv	a0,a4
    1762:	a9ffe0ef          	jal	ra,200 <memset>
C:/Users/86152/Desktop/单车越野/我的/代码调试/Bicycle_Code/libraries/zf_common/zf_common_fifo.c:104
                break;
    1766:	a831                	j	1782 <fifo_clear+0xda>
C:/Users/86152/Desktop/单车越野/我的/代码调试/Bicycle_Code/libraries/zf_common/zf_common_fifo.c:106
            case FIFO_DATA_32BIT:
                memset(fifo->buffer, 0, fifo->max * 4);
    1768:	fdc42783          	lw	a5,-36(s0)
    176c:	4798                	lw	a4,8(a5)
    176e:	fdc42783          	lw	a5,-36(s0)
    1772:	4f9c                	lw	a5,24(a5)
    1774:	078a                	slli	a5,a5,0x2
    1776:	863e                	mv	a2,a5
    1778:	4581                	li	a1,0
    177a:	853a                	mv	a0,a4
    177c:	a85fe0ef          	jal	ra,200 <memset>
C:/Users/86152/Desktop/单车越野/我的/代码调试/Bicycle_Code/libraries/zf_common/zf_common_fifo.c:107
                break;
    1780:	0001                	nop
C:/Users/86152/Desktop/单车越野/我的/代码调试/Bicycle_Code/libraries/zf_common/zf_common_fifo.c:110
        }
//        memset(fifo->buffer, 0, fifo->max);
        fifo->execution &= ~FIFO_CLEAR;
    1782:	fdc42783          	lw	a5,-36(s0)
    1786:	0007c783          	lbu	a5,0(a5)
    178a:	9bf9                	andi	a5,a5,-2
    178c:	0ff7f713          	andi	a4,a5,255
    1790:	fdc42783          	lw	a5,-36(s0)
    1794:	00e78023          	sb	a4,0(a5)
C:/Users/86152/Desktop/单车越野/我的/代码调试/Bicycle_Code/libraries/zf_common/zf_common_fifo.c:112
    }while(0);
    return return_state;
    1798:	fec42783          	lw	a5,-20(s0)
C:/Users/86152/Desktop/单车越野/我的/代码调试/Bicycle_Code/libraries/zf_common/zf_common_fifo.c:113
}
    179c:	853e                	mv	a0,a5
    179e:	50b2                	lw	ra,44(sp)
    17a0:	5422                	lw	s0,40(sp)
    17a2:	6145                	addi	sp,sp,48
    17a4:	8082                	ret

000017a6 <fifo_used>:
fifo_used():
C:/Users/86152/Desktop/单车越野/我的/代码调试/Bicycle_Code/libraries/zf_common/zf_common_fifo.c:123
// 返回参数     uint32              已使用长度
// 使用示例     uint32 len = fifo_used(fifo);
// 备注信息
//-------------------------------------------------------------------------------------------------------------------
uint32 fifo_used (fifo_struct *fifo)
{
    17a6:	1101                	addi	sp,sp,-32
    17a8:	ce06                	sw	ra,28(sp)
    17aa:	cc22                	sw	s0,24(sp)
    17ac:	1000                	addi	s0,sp,32
    17ae:	fea42623          	sw	a0,-20(s0)
C:/Users/86152/Desktop/单车越野/我的/代码调试/Bicycle_Code/libraries/zf_common/zf_common_fifo.c:124
    zf_assert(fifo != NULL);
    17b2:	fec42783          	lw	a5,-20(s0)
    17b6:	00f037b3          	snez	a5,a5
    17ba:	0ff7f793          	andi	a5,a5,255
    17be:	873e                	mv	a4,a5
    17c0:	07c00613          	li	a2,124
    17c4:	67a9                	lui	a5,0xa
    17c6:	58078593          	addi	a1,a5,1408 # a580 <_sbrk+0x1ea>
    17ca:	853a                	mv	a0,a4
    17cc:	3955                	jal	1480 <debug_assert_handler>
C:/Users/86152/Desktop/单车越野/我的/代码调试/Bicycle_Code/libraries/zf_common/zf_common_fifo.c:125
    return (fifo->max - fifo->size);
    17ce:	fec42783          	lw	a5,-20(s0)
    17d2:	4f98                	lw	a4,24(a5)
    17d4:	fec42783          	lw	a5,-20(s0)
    17d8:	4bdc                	lw	a5,20(a5)
    17da:	40f707b3          	sub	a5,a4,a5
C:/Users/86152/Desktop/单车越野/我的/代码调试/Bicycle_Code/libraries/zf_common/zf_common_fifo.c:126
}
    17de:	853e                	mv	a0,a5
    17e0:	40f2                	lw	ra,28(sp)
    17e2:	4462                	lw	s0,24(sp)
    17e4:	6105                	addi	sp,sp,32
    17e6:	8082                	ret

000017e8 <fifo_write_buffer>:
fifo_write_buffer():
C:/Users/86152/Desktop/单车越野/我的/代码调试/Bicycle_Code/libraries/zf_common/zf_common_fifo.c:187
// 返回参数     fifo_state_enum     操作状态
// 使用示例     zf_log(fifo_write_buffer(&fifo, data, 32) == FIFO_SUCCESS, "fifo_write_buffer error");
// 备注信息
//-------------------------------------------------------------------------------------------------------------------
fifo_state_enum fifo_write_buffer (fifo_struct *fifo, void *dat, uint32 length)
{
    17e8:	7179                	addi	sp,sp,-48
    17ea:	d606                	sw	ra,44(sp)
    17ec:	d422                	sw	s0,40(sp)
    17ee:	1800                	addi	s0,sp,48
    17f0:	fca42e23          	sw	a0,-36(s0)
    17f4:	fcb42c23          	sw	a1,-40(s0)
    17f8:	fcc42a23          	sw	a2,-44(s0)
C:/Users/86152/Desktop/单车越野/我的/代码调试/Bicycle_Code/libraries/zf_common/zf_common_fifo.c:188
    zf_assert(fifo != NULL);
    17fc:	fdc42783          	lw	a5,-36(s0)
    1800:	00f037b3          	snez	a5,a5
    1804:	0ff7f793          	andi	a5,a5,255
    1808:	873e                	mv	a4,a5
    180a:	0bc00613          	li	a2,188
    180e:	67a9                	lui	a5,0xa
    1810:	58078593          	addi	a1,a5,1408 # a580 <_sbrk+0x1ea>
    1814:	853a                	mv	a0,a4
    1816:	31ad                	jal	1480 <debug_assert_handler>
C:/Users/86152/Desktop/单车越野/我的/代码调试/Bicycle_Code/libraries/zf_common/zf_common_fifo.c:189
    fifo_state_enum return_state = FIFO_SUCCESS;
    1818:	fe042623          	sw	zero,-20(s0)
C:/Users/86152/Desktop/单车越野/我的/代码调试/Bicycle_Code/libraries/zf_common/zf_common_fifo.c:190
    uint32 temp_length = 0;
    181c:	fe042423          	sw	zero,-24(s0)
C:/Users/86152/Desktop/单车越野/我的/代码调试/Bicycle_Code/libraries/zf_common/zf_common_fifo.c:194
    
    do
    {
        if(NULL == dat)
    1820:	fd842783          	lw	a5,-40(s0)
    1824:	e789                	bnez	a5,182e <fifo_write_buffer+0x46>
C:/Users/86152/Desktop/单车越野/我的/代码调试/Bicycle_Code/libraries/zf_common/zf_common_fifo.c:196
        {
            return_state = FIFO_BUFFER_NULL;
    1826:	478d                	li	a5,3
    1828:	fef42623          	sw	a5,-20(s0)
C:/Users/86152/Desktop/单车越野/我的/代码调试/Bicycle_Code/libraries/zf_common/zf_common_fifo.c:197
            break;
    182c:	ac79                	j	1aca <fifo_write_buffer+0x2e2>
C:/Users/86152/Desktop/单车越野/我的/代码调试/Bicycle_Code/libraries/zf_common/zf_common_fifo.c:199
        }
        if(FIFO_WRITE & fifo->execution)
    182e:	fdc42783          	lw	a5,-36(s0)
    1832:	0007c783          	lbu	a5,0(a5)
    1836:	8b89                	andi	a5,a5,2
    1838:	0ff7f793          	andi	a5,a5,255
    183c:	c789                	beqz	a5,1846 <fifo_write_buffer+0x5e>
C:/Users/86152/Desktop/单车越野/我的/代码调试/Bicycle_Code/libraries/zf_common/zf_common_fifo.c:201
        {
            return_state = FIFO_WRITE_UNDO;
    183e:	4785                	li	a5,1
    1840:	fef42623          	sw	a5,-20(s0)
C:/Users/86152/Desktop/单车越野/我的/代码调试/Bicycle_Code/libraries/zf_common/zf_common_fifo.c:202
            break;
    1844:	a459                	j	1aca <fifo_write_buffer+0x2e2>
C:/Users/86152/Desktop/单车越野/我的/代码调试/Bicycle_Code/libraries/zf_common/zf_common_fifo.c:204
        }
        fifo->execution |= FIFO_WRITE;
    1846:	fdc42783          	lw	a5,-36(s0)
    184a:	0007c783          	lbu	a5,0(a5)
    184e:	0027e793          	ori	a5,a5,2
    1852:	0ff7f713          	andi	a4,a5,255
    1856:	fdc42783          	lw	a5,-36(s0)
    185a:	00e78023          	sb	a4,0(a5)
C:/Users/86152/Desktop/单车越野/我的/代码调试/Bicycle_Code/libraries/zf_common/zf_common_fifo.c:206

        if(length <= fifo->size)                                                 // 剩余空间足够装下本次数据
    185e:	fdc42783          	lw	a5,-36(s0)
    1862:	4bdc                	lw	a5,20(a5)
    1864:	fd442703          	lw	a4,-44(s0)
    1868:	24e7e363          	bltu	a5,a4,1aae <fifo_write_buffer+0x2c6>
C:/Users/86152/Desktop/单车越野/我的/代码调试/Bicycle_Code/libraries/zf_common/zf_common_fifo.c:208
        {
            temp_length = fifo->max - fifo->head;                               // 计算头指针距离缓冲区尾还有多少空间
    186c:	fdc42783          	lw	a5,-36(s0)
    1870:	4f98                	lw	a4,24(a5)
    1872:	fdc42783          	lw	a5,-36(s0)
    1876:	47dc                	lw	a5,12(a5)
    1878:	40f707b3          	sub	a5,a4,a5
    187c:	fef42423          	sw	a5,-24(s0)
C:/Users/86152/Desktop/单车越野/我的/代码调试/Bicycle_Code/libraries/zf_common/zf_common_fifo.c:210

            if(length > temp_length)                                            // 距离缓冲区尾长度不足写入数据 环形缓冲区分段操作
    1880:	fd442703          	lw	a4,-44(s0)
    1884:	fe842783          	lw	a5,-24(s0)
    1888:	16e7fc63          	bgeu	a5,a4,1a00 <fifo_write_buffer+0x218>
C:/Users/86152/Desktop/单车越野/我的/代码调试/Bicycle_Code/libraries/zf_common/zf_common_fifo.c:212
            {
                switch(fifo->type)
    188c:	fdc42783          	lw	a5,-36(s0)
    1890:	43dc                	lw	a5,4(a5)
    1892:	4705                	li	a4,1
    1894:	06e78d63          	beq	a5,a4,190e <fifo_write_buffer+0x126>
    1898:	c789                	beqz	a5,18a2 <fifo_write_buffer+0xba>
    189a:	4709                	li	a4,2
    189c:	0ee78563          	beq	a5,a4,1986 <fifo_write_buffer+0x19e>
    18a0:	aaed                	j	1a9a <fifo_write_buffer+0x2b2>
C:/Users/86152/Desktop/单车越野/我的/代码调试/Bicycle_Code/libraries/zf_common/zf_common_fifo.c:216
                {
                    case FIFO_DATA_8BIT:
                        memcpy(
                            &(((uint8 *)fifo->buffer)[fifo->head]),
    18a2:	fdc42783          	lw	a5,-36(s0)
    18a6:	4798                	lw	a4,8(a5)
    18a8:	fdc42783          	lw	a5,-36(s0)
    18ac:	47dc                	lw	a5,12(a5)
C:/Users/86152/Desktop/单车越野/我的/代码调试/Bicycle_Code/libraries/zf_common/zf_common_fifo.c:215
                        memcpy(
    18ae:	97ba                	add	a5,a5,a4
    18b0:	fe842603          	lw	a2,-24(s0)
    18b4:	fd842583          	lw	a1,-40(s0)
    18b8:	853e                	mv	a0,a5
    18ba:	54e050ef          	jal	ra,6e08 <memcpy>
C:/Users/86152/Desktop/单车越野/我的/代码调试/Bicycle_Code/libraries/zf_common/zf_common_fifo.c:218
                            dat, temp_length);                                  // 拷贝第一段数据
                        fifo_head_offset(fifo, temp_length);                    // 头指针偏移
    18be:	fe842583          	lw	a1,-24(s0)
    18c2:	fdc42503          	lw	a0,-36(s0)
    18c6:	3399                	jal	160c <fifo_head_offset>
C:/Users/86152/Desktop/单车越野/我的/代码调试/Bicycle_Code/libraries/zf_common/zf_common_fifo.c:220
                        memcpy(
                            &(((uint8 *)fifo->buffer)[fifo->head]),
    18c8:	fdc42783          	lw	a5,-36(s0)
    18cc:	4798                	lw	a4,8(a5)
    18ce:	fdc42783          	lw	a5,-36(s0)
    18d2:	47dc                	lw	a5,12(a5)
C:/Users/86152/Desktop/单车越野/我的/代码调试/Bicycle_Code/libraries/zf_common/zf_common_fifo.c:219
                        memcpy(
    18d4:	00f706b3          	add	a3,a4,a5
    18d8:	fd842703          	lw	a4,-40(s0)
    18dc:	fe842783          	lw	a5,-24(s0)
    18e0:	00f705b3          	add	a1,a4,a5
    18e4:	fd442703          	lw	a4,-44(s0)
    18e8:	fe842783          	lw	a5,-24(s0)
    18ec:	40f707b3          	sub	a5,a4,a5
    18f0:	863e                	mv	a2,a5
    18f2:	8536                	mv	a0,a3
    18f4:	514050ef          	jal	ra,6e08 <memcpy>
C:/Users/86152/Desktop/单车越野/我的/代码调试/Bicycle_Code/libraries/zf_common/zf_common_fifo.c:223
                            &(((uint8 *)dat)[temp_length]),
                            length - temp_length);                              // 拷贝第二段数据
                        fifo_head_offset(fifo, length - temp_length);           // 头指针偏移
    18f8:	fd442703          	lw	a4,-44(s0)
    18fc:	fe842783          	lw	a5,-24(s0)
    1900:	40f707b3          	sub	a5,a4,a5
    1904:	85be                	mv	a1,a5
    1906:	fdc42503          	lw	a0,-36(s0)
    190a:	3309                	jal	160c <fifo_head_offset>
C:/Users/86152/Desktop/单车越野/我的/代码调试/Bicycle_Code/libraries/zf_common/zf_common_fifo.c:224
                        break;
    190c:	a279                	j	1a9a <fifo_write_buffer+0x2b2>
C:/Users/86152/Desktop/单车越野/我的/代码调试/Bicycle_Code/libraries/zf_common/zf_common_fifo.c:227
                    case FIFO_DATA_16BIT:
                        memcpy(
                            &(((uint16 *)fifo->buffer)[fifo->head]),
    190e:	fdc42783          	lw	a5,-36(s0)
    1912:	4798                	lw	a4,8(a5)
    1914:	fdc42783          	lw	a5,-36(s0)
    1918:	47dc                	lw	a5,12(a5)
    191a:	0786                	slli	a5,a5,0x1
C:/Users/86152/Desktop/单车越野/我的/代码调试/Bicycle_Code/libraries/zf_common/zf_common_fifo.c:226
                        memcpy(
    191c:	973e                	add	a4,a4,a5
    191e:	fe842783          	lw	a5,-24(s0)
    1922:	0786                	slli	a5,a5,0x1
    1924:	863e                	mv	a2,a5
    1926:	fd842583          	lw	a1,-40(s0)
    192a:	853a                	mv	a0,a4
    192c:	4dc050ef          	jal	ra,6e08 <memcpy>
C:/Users/86152/Desktop/单车越野/我的/代码调试/Bicycle_Code/libraries/zf_common/zf_common_fifo.c:229
                            dat, temp_length * 2);                              // 拷贝第一段数据
                        fifo_head_offset(fifo, temp_length);                    // 头指针偏移
    1930:	fe842583          	lw	a1,-24(s0)
    1934:	fdc42503          	lw	a0,-36(s0)
    1938:	39d1                	jal	160c <fifo_head_offset>
C:/Users/86152/Desktop/单车越野/我的/代码调试/Bicycle_Code/libraries/zf_common/zf_common_fifo.c:231
                        memcpy(
                            &(((uint16 *)fifo->buffer)[fifo->head]),
    193a:	fdc42783          	lw	a5,-36(s0)
    193e:	4798                	lw	a4,8(a5)
    1940:	fdc42783          	lw	a5,-36(s0)
    1944:	47dc                	lw	a5,12(a5)
    1946:	0786                	slli	a5,a5,0x1
C:/Users/86152/Desktop/单车越野/我的/代码调试/Bicycle_Code/libraries/zf_common/zf_common_fifo.c:230
                        memcpy(
    1948:	00f706b3          	add	a3,a4,a5
C:/Users/86152/Desktop/单车越野/我的/代码调试/Bicycle_Code/libraries/zf_common/zf_common_fifo.c:232
                            &(((uint16 *)dat)[temp_length]),
    194c:	fe842783          	lw	a5,-24(s0)
    1950:	0786                	slli	a5,a5,0x1
C:/Users/86152/Desktop/单车越野/我的/代码调试/Bicycle_Code/libraries/zf_common/zf_common_fifo.c:230
                        memcpy(
    1952:	fd842703          	lw	a4,-40(s0)
    1956:	00f705b3          	add	a1,a4,a5
C:/Users/86152/Desktop/单车越野/我的/代码调试/Bicycle_Code/libraries/zf_common/zf_common_fifo.c:233
                            (length - temp_length) * 2);                        // 拷贝第二段数据
    195a:	fd442703          	lw	a4,-44(s0)
    195e:	fe842783          	lw	a5,-24(s0)
    1962:	40f707b3          	sub	a5,a4,a5
C:/Users/86152/Desktop/单车越野/我的/代码调试/Bicycle_Code/libraries/zf_common/zf_common_fifo.c:230
                        memcpy(
    1966:	0786                	slli	a5,a5,0x1
    1968:	863e                	mv	a2,a5
    196a:	8536                	mv	a0,a3
    196c:	49c050ef          	jal	ra,6e08 <memcpy>
C:/Users/86152/Desktop/单车越野/我的/代码调试/Bicycle_Code/libraries/zf_common/zf_common_fifo.c:234
                        fifo_head_offset(fifo, length - temp_length);           // 头指针偏移
    1970:	fd442703          	lw	a4,-44(s0)
    1974:	fe842783          	lw	a5,-24(s0)
    1978:	40f707b3          	sub	a5,a4,a5
    197c:	85be                	mv	a1,a5
    197e:	fdc42503          	lw	a0,-36(s0)
    1982:	3169                	jal	160c <fifo_head_offset>
C:/Users/86152/Desktop/单车越野/我的/代码调试/Bicycle_Code/libraries/zf_common/zf_common_fifo.c:235
                        break;
    1984:	aa19                	j	1a9a <fifo_write_buffer+0x2b2>
C:/Users/86152/Desktop/单车越野/我的/代码调试/Bicycle_Code/libraries/zf_common/zf_common_fifo.c:238
                    case FIFO_DATA_32BIT:
                        memcpy(
                            &(((uint32 *)fifo->buffer)[fifo->head]),
    1986:	fdc42783          	lw	a5,-36(s0)
    198a:	4798                	lw	a4,8(a5)
    198c:	fdc42783          	lw	a5,-36(s0)
    1990:	47dc                	lw	a5,12(a5)
    1992:	078a                	slli	a5,a5,0x2
C:/Users/86152/Desktop/单车越野/我的/代码调试/Bicycle_Code/libraries/zf_common/zf_common_fifo.c:237
                        memcpy(
    1994:	973e                	add	a4,a4,a5
    1996:	fe842783          	lw	a5,-24(s0)
    199a:	078a                	slli	a5,a5,0x2
    199c:	863e                	mv	a2,a5
    199e:	fd842583          	lw	a1,-40(s0)
    19a2:	853a                	mv	a0,a4
    19a4:	464050ef          	jal	ra,6e08 <memcpy>
C:/Users/86152/Desktop/单车越野/我的/代码调试/Bicycle_Code/libraries/zf_common/zf_common_fifo.c:240
                            dat, temp_length * 4);                              // 拷贝第一段数据
                        fifo_head_offset(fifo, temp_length);                    // 头指针偏移
    19a8:	fe842583          	lw	a1,-24(s0)
    19ac:	fdc42503          	lw	a0,-36(s0)
    19b0:	39b1                	jal	160c <fifo_head_offset>
C:/Users/86152/Desktop/单车越野/我的/代码调试/Bicycle_Code/libraries/zf_common/zf_common_fifo.c:242
                        memcpy(
                            &(((uint32 *)fifo->buffer)[fifo->head]),
    19b2:	fdc42783          	lw	a5,-36(s0)
    19b6:	4798                	lw	a4,8(a5)
    19b8:	fdc42783          	lw	a5,-36(s0)
    19bc:	47dc                	lw	a5,12(a5)
    19be:	078a                	slli	a5,a5,0x2
C:/Users/86152/Desktop/单车越野/我的/代码调试/Bicycle_Code/libraries/zf_common/zf_common_fifo.c:241
                        memcpy(
    19c0:	00f706b3          	add	a3,a4,a5
C:/Users/86152/Desktop/单车越野/我的/代码调试/Bicycle_Code/libraries/zf_common/zf_common_fifo.c:243
                            &(((uint32 *)dat)[temp_length]),
    19c4:	fe842783          	lw	a5,-24(s0)
    19c8:	078a                	slli	a5,a5,0x2
C:/Users/86152/Desktop/单车越野/我的/代码调试/Bicycle_Code/libraries/zf_common/zf_common_fifo.c:241
                        memcpy(
    19ca:	fd842703          	lw	a4,-40(s0)
    19ce:	00f705b3          	add	a1,a4,a5
C:/Users/86152/Desktop/单车越野/我的/代码调试/Bicycle_Code/libraries/zf_common/zf_common_fifo.c:244
                            (length - temp_length) * 4);                        // 拷贝第二段数据
    19d2:	fd442703          	lw	a4,-44(s0)
    19d6:	fe842783          	lw	a5,-24(s0)
    19da:	40f707b3          	sub	a5,a4,a5
C:/Users/86152/Desktop/单车越野/我的/代码调试/Bicycle_Code/libraries/zf_common/zf_common_fifo.c:241
                        memcpy(
    19de:	078a                	slli	a5,a5,0x2
    19e0:	863e                	mv	a2,a5
    19e2:	8536                	mv	a0,a3
    19e4:	424050ef          	jal	ra,6e08 <memcpy>
C:/Users/86152/Desktop/单车越野/我的/代码调试/Bicycle_Code/libraries/zf_common/zf_common_fifo.c:245
                        fifo_head_offset(fifo, length - temp_length);           // 头指针偏移
    19e8:	fd442703          	lw	a4,-44(s0)
    19ec:	fe842783          	lw	a5,-24(s0)
    19f0:	40f707b3          	sub	a5,a4,a5
    19f4:	85be                	mv	a1,a5
    19f6:	fdc42503          	lw	a0,-36(s0)
    19fa:	3909                	jal	160c <fifo_head_offset>
C:/Users/86152/Desktop/单车越野/我的/代码调试/Bicycle_Code/libraries/zf_common/zf_common_fifo.c:246
                        break;
    19fc:	0001                	nop
    19fe:	a871                	j	1a9a <fifo_write_buffer+0x2b2>
C:/Users/86152/Desktop/单车越野/我的/代码调试/Bicycle_Code/libraries/zf_common/zf_common_fifo.c:251
                }
            }
            else
            {
                switch(fifo->type)
    1a00:	fdc42783          	lw	a5,-36(s0)
    1a04:	43dc                	lw	a5,4(a5)
    1a06:	4705                	li	a4,1
    1a08:	02e78b63          	beq	a5,a4,1a3e <fifo_write_buffer+0x256>
    1a0c:	c789                	beqz	a5,1a16 <fifo_write_buffer+0x22e>
    1a0e:	4709                	li	a4,2
    1a10:	04e78e63          	beq	a5,a4,1a6c <fifo_write_buffer+0x284>
    1a14:	a059                	j	1a9a <fifo_write_buffer+0x2b2>
C:/Users/86152/Desktop/单车越野/我的/代码调试/Bicycle_Code/libraries/zf_common/zf_common_fifo.c:255
                {
                    case FIFO_DATA_8BIT:
                        memcpy(
                            &(((uint8 *)fifo->buffer)[fifo->head]),
    1a16:	fdc42783          	lw	a5,-36(s0)
    1a1a:	4798                	lw	a4,8(a5)
    1a1c:	fdc42783          	lw	a5,-36(s0)
    1a20:	47dc                	lw	a5,12(a5)
C:/Users/86152/Desktop/单车越野/我的/代码调试/Bicycle_Code/libraries/zf_common/zf_common_fifo.c:254
                        memcpy(
    1a22:	97ba                	add	a5,a5,a4
    1a24:	fd442603          	lw	a2,-44(s0)
    1a28:	fd842583          	lw	a1,-40(s0)
    1a2c:	853e                	mv	a0,a5
    1a2e:	3da050ef          	jal	ra,6e08 <memcpy>
C:/Users/86152/Desktop/单车越野/我的/代码调试/Bicycle_Code/libraries/zf_common/zf_common_fifo.c:257
                            dat, length);                                       // 一次完整写入
                        fifo_head_offset(fifo, length);                         // 头指针偏移
    1a32:	fd442583          	lw	a1,-44(s0)
    1a36:	fdc42503          	lw	a0,-36(s0)
    1a3a:	3ec9                	jal	160c <fifo_head_offset>
C:/Users/86152/Desktop/单车越野/我的/代码调试/Bicycle_Code/libraries/zf_common/zf_common_fifo.c:258
                        break;
    1a3c:	a8b9                	j	1a9a <fifo_write_buffer+0x2b2>
C:/Users/86152/Desktop/单车越野/我的/代码调试/Bicycle_Code/libraries/zf_common/zf_common_fifo.c:261
                    case FIFO_DATA_16BIT:
                        memcpy(
                            &(((uint16 *)fifo->buffer)[fifo->head]),
    1a3e:	fdc42783          	lw	a5,-36(s0)
    1a42:	4798                	lw	a4,8(a5)
    1a44:	fdc42783          	lw	a5,-36(s0)
    1a48:	47dc                	lw	a5,12(a5)
    1a4a:	0786                	slli	a5,a5,0x1
C:/Users/86152/Desktop/单车越野/我的/代码调试/Bicycle_Code/libraries/zf_common/zf_common_fifo.c:260
                        memcpy(
    1a4c:	973e                	add	a4,a4,a5
    1a4e:	fd442783          	lw	a5,-44(s0)
    1a52:	0786                	slli	a5,a5,0x1
    1a54:	863e                	mv	a2,a5
    1a56:	fd842583          	lw	a1,-40(s0)
    1a5a:	853a                	mv	a0,a4
    1a5c:	3ac050ef          	jal	ra,6e08 <memcpy>
C:/Users/86152/Desktop/单车越野/我的/代码调试/Bicycle_Code/libraries/zf_common/zf_common_fifo.c:263
                            dat, length * 2);                                   // 一次完整写入
                        fifo_head_offset(fifo, length);                         // 头指针偏移
    1a60:	fd442583          	lw	a1,-44(s0)
    1a64:	fdc42503          	lw	a0,-36(s0)
    1a68:	3655                	jal	160c <fifo_head_offset>
C:/Users/86152/Desktop/单车越野/我的/代码调试/Bicycle_Code/libraries/zf_common/zf_common_fifo.c:264
                        break;
    1a6a:	a805                	j	1a9a <fifo_write_buffer+0x2b2>
C:/Users/86152/Desktop/单车越野/我的/代码调试/Bicycle_Code/libraries/zf_common/zf_common_fifo.c:267
                    case FIFO_DATA_32BIT:
                        memcpy(
                            &(((uint32 *)fifo->buffer)[fifo->head]),
    1a6c:	fdc42783          	lw	a5,-36(s0)
    1a70:	4798                	lw	a4,8(a5)
    1a72:	fdc42783          	lw	a5,-36(s0)
    1a76:	47dc                	lw	a5,12(a5)
    1a78:	078a                	slli	a5,a5,0x2
C:/Users/86152/Desktop/单车越野/我的/代码调试/Bicycle_Code/libraries/zf_common/zf_common_fifo.c:266
                        memcpy(
    1a7a:	973e                	add	a4,a4,a5
    1a7c:	fd442783          	lw	a5,-44(s0)
    1a80:	078a                	slli	a5,a5,0x2
    1a82:	863e                	mv	a2,a5
    1a84:	fd842583          	lw	a1,-40(s0)
    1a88:	853a                	mv	a0,a4
    1a8a:	37e050ef          	jal	ra,6e08 <memcpy>
C:/Users/86152/Desktop/单车越野/我的/代码调试/Bicycle_Code/libraries/zf_common/zf_common_fifo.c:269
                            dat, length * 4);                                   // 一次完整写入
                        fifo_head_offset(fifo, length);                         // 头指针偏移
    1a8e:	fd442583          	lw	a1,-44(s0)
    1a92:	fdc42503          	lw	a0,-36(s0)
    1a96:	3e9d                	jal	160c <fifo_head_offset>
C:/Users/86152/Desktop/单车越野/我的/代码调试/Bicycle_Code/libraries/zf_common/zf_common_fifo.c:270
                        break;
    1a98:	0001                	nop
C:/Users/86152/Desktop/单车越野/我的/代码调试/Bicycle_Code/libraries/zf_common/zf_common_fifo.c:276
                }
//                memcpy(&fifo->buffer[fifo->head], dat, length);                 // 一次完整写入
//                fifo_head_offset(fifo, length);                                 // 头指针偏移
            }

            fifo->size -= length;                                               // 缓冲区剩余长度减小
    1a9a:	fdc42783          	lw	a5,-36(s0)
    1a9e:	4bd8                	lw	a4,20(a5)
    1aa0:	fd442783          	lw	a5,-44(s0)
    1aa4:	8f1d                	sub	a4,a4,a5
    1aa6:	fdc42783          	lw	a5,-36(s0)
    1aaa:	cbd8                	sw	a4,20(a5)
    1aac:	a021                	j	1ab4 <fifo_write_buffer+0x2cc>
C:/Users/86152/Desktop/单车越野/我的/代码调试/Bicycle_Code/libraries/zf_common/zf_common_fifo.c:280
        }
        else
        {
            return_state = FIFO_SPACE_NO_ENOUGH;
    1aae:	4791                	li	a5,4
    1ab0:	fef42623          	sw	a5,-20(s0)
C:/Users/86152/Desktop/单车越野/我的/代码调试/Bicycle_Code/libraries/zf_common/zf_common_fifo.c:282
        }
        fifo->execution &= ~FIFO_WRITE;
    1ab4:	fdc42783          	lw	a5,-36(s0)
    1ab8:	0007c783          	lbu	a5,0(a5)
    1abc:	9bf5                	andi	a5,a5,-3
    1abe:	0ff7f713          	andi	a4,a5,255
    1ac2:	fdc42783          	lw	a5,-36(s0)
    1ac6:	00e78023          	sb	a4,0(a5)
C:/Users/86152/Desktop/单车越野/我的/代码调试/Bicycle_Code/libraries/zf_common/zf_common_fifo.c:285
    }while(0);

    return return_state;
    1aca:	fec42783          	lw	a5,-20(s0)
C:/Users/86152/Desktop/单车越野/我的/代码调试/Bicycle_Code/libraries/zf_common/zf_common_fifo.c:286
}
    1ace:	853e                	mv	a0,a5
    1ad0:	50b2                	lw	ra,44(sp)
    1ad2:	5422                	lw	s0,40(sp)
    1ad4:	6145                	addi	sp,sp,48
    1ad6:	8082                	ret

00001ad8 <fifo_read_buffer>:
fifo_read_buffer():
C:/Users/86152/Desktop/单车越野/我的/代码调试/Bicycle_Code/libraries/zf_common/zf_common_fifo.c:358
// 返回参数     fifo_state_enum     操作状态
// 使用示例     zf_log(fifo_read_buffer(&fifo, data, &length, FIFO_READ_ONLY) == FIFO_SUCCESS, "fifo_read_buffer error");
// 备注信息
//-------------------------------------------------------------------------------------------------------------------
fifo_state_enum fifo_read_buffer (fifo_struct *fifo, void *dat, uint32 *length, fifo_operation_enum flag)
{
    1ad8:	7179                	addi	sp,sp,-48
    1ada:	d606                	sw	ra,44(sp)
    1adc:	d422                	sw	s0,40(sp)
    1ade:	1800                	addi	s0,sp,48
    1ae0:	fca42e23          	sw	a0,-36(s0)
    1ae4:	fcb42c23          	sw	a1,-40(s0)
    1ae8:	fcc42a23          	sw	a2,-44(s0)
    1aec:	fcd42823          	sw	a3,-48(s0)
C:/Users/86152/Desktop/单车越野/我的/代码调试/Bicycle_Code/libraries/zf_common/zf_common_fifo.c:359
    zf_assert(fifo != NULL);
    1af0:	fdc42783          	lw	a5,-36(s0)
    1af4:	00f037b3          	snez	a5,a5
    1af8:	0ff7f793          	andi	a5,a5,255
    1afc:	873e                	mv	a4,a5
    1afe:	16700613          	li	a2,359
    1b02:	67a9                	lui	a5,0xa
    1b04:	58078593          	addi	a1,a5,1408 # a580 <_sbrk+0x1ea>
    1b08:	853a                	mv	a0,a4
    1b0a:	977ff0ef          	jal	ra,1480 <debug_assert_handler>
C:/Users/86152/Desktop/单车越野/我的/代码调试/Bicycle_Code/libraries/zf_common/zf_common_fifo.c:360
    zf_assert(length != NULL);
    1b0e:	fd442783          	lw	a5,-44(s0)
    1b12:	00f037b3          	snez	a5,a5
    1b16:	0ff7f793          	andi	a5,a5,255
    1b1a:	873e                	mv	a4,a5
    1b1c:	16800613          	li	a2,360
    1b20:	67a9                	lui	a5,0xa
    1b22:	58078593          	addi	a1,a5,1408 # a580 <_sbrk+0x1ea>
    1b26:	853a                	mv	a0,a4
    1b28:	959ff0ef          	jal	ra,1480 <debug_assert_handler>
C:/Users/86152/Desktop/单车越野/我的/代码调试/Bicycle_Code/libraries/zf_common/zf_common_fifo.c:361
    fifo_state_enum return_state = FIFO_SUCCESS;
    1b2c:	fe042623          	sw	zero,-20(s0)
C:/Users/86152/Desktop/单车越野/我的/代码调试/Bicycle_Code/libraries/zf_common/zf_common_fifo.c:367
    uint32 temp_length;
    uint32 fifo_data_length;

    do
    {
        if(NULL == dat)
    1b30:	fd842783          	lw	a5,-40(s0)
    1b34:	e789                	bnez	a5,1b3e <fifo_read_buffer+0x66>
C:/Users/86152/Desktop/单车越野/我的/代码调试/Bicycle_Code/libraries/zf_common/zf_common_fifo.c:369
        {
            return_state = FIFO_BUFFER_NULL;
    1b36:	478d                	li	a5,3
    1b38:	fef42623          	sw	a5,-20(s0)
C:/Users/86152/Desktop/单车越野/我的/代码调试/Bicycle_Code/libraries/zf_common/zf_common_fifo.c:370
            break;
    1b3c:	ac99                	j	1d92 <fifo_read_buffer+0x2ba>
C:/Users/86152/Desktop/单车越野/我的/代码调试/Bicycle_Code/libraries/zf_common/zf_common_fifo.c:372
        }
        fifo->execution |= FIFO_READ;
    1b3e:	fdc42783          	lw	a5,-36(s0)
    1b42:	0007c783          	lbu	a5,0(a5)
    1b46:	0047e793          	ori	a5,a5,4
    1b4a:	0ff7f713          	andi	a4,a5,255
    1b4e:	fdc42783          	lw	a5,-36(s0)
    1b52:	00e78023          	sb	a4,0(a5)
C:/Users/86152/Desktop/单车越野/我的/代码调试/Bicycle_Code/libraries/zf_common/zf_common_fifo.c:374

        fifo_data_length = fifo_used(fifo);
    1b56:	fdc42503          	lw	a0,-36(s0)
    1b5a:	31b1                	jal	17a6 <fifo_used>
    1b5c:	fea42423          	sw	a0,-24(s0)
C:/Users/86152/Desktop/单车越野/我的/代码调试/Bicycle_Code/libraries/zf_common/zf_common_fifo.c:376

        if(*length > fifo_data_length)
    1b60:	fd442783          	lw	a5,-44(s0)
    1b64:	439c                	lw	a5,0(a5)
    1b66:	fe842703          	lw	a4,-24(s0)
    1b6a:	00f77a63          	bgeu	a4,a5,1b7e <fifo_read_buffer+0xa6>
C:/Users/86152/Desktop/单车越野/我的/代码调试/Bicycle_Code/libraries/zf_common/zf_common_fifo.c:378
        {
            *length = fifo_data_length;                                 // 纠正读取的长度
    1b6e:	fd442783          	lw	a5,-44(s0)
    1b72:	fe842703          	lw	a4,-24(s0)
    1b76:	c398                	sw	a4,0(a5)
C:/Users/86152/Desktop/单车越野/我的/代码调试/Bicycle_Code/libraries/zf_common/zf_common_fifo.c:379
            return_state = FIFO_DATA_NO_ENOUGH;                                 // 标志数据不够
    1b78:	4795                	li	a5,5
    1b7a:	fef42623          	sw	a5,-20(s0)
C:/Users/86152/Desktop/单车越野/我的/代码调试/Bicycle_Code/libraries/zf_common/zf_common_fifo.c:382
        }

        temp_length = fifo->max - fifo->end;                                    // 计算尾指针距离缓冲区尾还有多少空间
    1b7e:	fdc42783          	lw	a5,-36(s0)
    1b82:	4f98                	lw	a4,24(a5)
    1b84:	fdc42783          	lw	a5,-36(s0)
    1b88:	4b9c                	lw	a5,16(a5)
    1b8a:	40f707b3          	sub	a5,a4,a5
    1b8e:	fef42223          	sw	a5,-28(s0)
C:/Users/86152/Desktop/单车越野/我的/代码调试/Bicycle_Code/libraries/zf_common/zf_common_fifo.c:383
        if(*length <= temp_length)                                              // 足够一次性读取完毕
    1b92:	fd442783          	lw	a5,-44(s0)
    1b96:	439c                	lw	a5,0(a5)
    1b98:	fe442703          	lw	a4,-28(s0)
    1b9c:	08f76563          	bltu	a4,a5,1c26 <fifo_read_buffer+0x14e>
C:/Users/86152/Desktop/单车越野/我的/代码调试/Bicycle_Code/libraries/zf_common/zf_common_fifo.c:385
        {
            switch(fifo->type)
    1ba0:	fdc42783          	lw	a5,-36(s0)
    1ba4:	43dc                	lw	a5,4(a5)
    1ba6:	4705                	li	a4,1
    1ba8:	02e78863          	beq	a5,a4,1bd8 <fifo_read_buffer+0x100>
    1bac:	c789                	beqz	a5,1bb6 <fifo_read_buffer+0xde>
    1bae:	4709                	li	a4,2
    1bb0:	04e78763          	beq	a5,a4,1bfe <fifo_read_buffer+0x126>
    1bb4:	a2bd                	j	1d22 <fifo_read_buffer+0x24a>
C:/Users/86152/Desktop/单车越野/我的/代码调试/Bicycle_Code/libraries/zf_common/zf_common_fifo.c:388
            {
                case FIFO_DATA_8BIT:
                    memcpy(dat, &(((uint8 *)fifo->buffer)[fifo->end]), *length);
    1bb6:	fdc42783          	lw	a5,-36(s0)
    1bba:	4798                	lw	a4,8(a5)
    1bbc:	fdc42783          	lw	a5,-36(s0)
    1bc0:	4b9c                	lw	a5,16(a5)
    1bc2:	973e                	add	a4,a4,a5
    1bc4:	fd442783          	lw	a5,-44(s0)
    1bc8:	439c                	lw	a5,0(a5)
    1bca:	863e                	mv	a2,a5
    1bcc:	85ba                	mv	a1,a4
    1bce:	fd842503          	lw	a0,-40(s0)
    1bd2:	236050ef          	jal	ra,6e08 <memcpy>
C:/Users/86152/Desktop/单车越野/我的/代码调试/Bicycle_Code/libraries/zf_common/zf_common_fifo.c:389
                    break;
    1bd6:	a2b1                	j	1d22 <fifo_read_buffer+0x24a>
C:/Users/86152/Desktop/单车越野/我的/代码调试/Bicycle_Code/libraries/zf_common/zf_common_fifo.c:391
                case FIFO_DATA_16BIT:
                    memcpy(dat, &(((uint16 *)fifo->buffer)[fifo->end]), *length * 2);
    1bd8:	fdc42783          	lw	a5,-36(s0)
    1bdc:	4798                	lw	a4,8(a5)
    1bde:	fdc42783          	lw	a5,-36(s0)
    1be2:	4b9c                	lw	a5,16(a5)
    1be4:	0786                	slli	a5,a5,0x1
    1be6:	973e                	add	a4,a4,a5
    1be8:	fd442783          	lw	a5,-44(s0)
    1bec:	439c                	lw	a5,0(a5)
    1bee:	0786                	slli	a5,a5,0x1
    1bf0:	863e                	mv	a2,a5
    1bf2:	85ba                	mv	a1,a4
    1bf4:	fd842503          	lw	a0,-40(s0)
    1bf8:	210050ef          	jal	ra,6e08 <memcpy>
C:/Users/86152/Desktop/单车越野/我的/代码调试/Bicycle_Code/libraries/zf_common/zf_common_fifo.c:392
                    break;
    1bfc:	a21d                	j	1d22 <fifo_read_buffer+0x24a>
C:/Users/86152/Desktop/单车越野/我的/代码调试/Bicycle_Code/libraries/zf_common/zf_common_fifo.c:394
                case FIFO_DATA_32BIT:
                    memcpy(dat, &(((uint32 *)fifo->buffer)[fifo->end]), *length * 4);
    1bfe:	fdc42783          	lw	a5,-36(s0)
    1c02:	4798                	lw	a4,8(a5)
    1c04:	fdc42783          	lw	a5,-36(s0)
    1c08:	4b9c                	lw	a5,16(a5)
    1c0a:	078a                	slli	a5,a5,0x2
    1c0c:	973e                	add	a4,a4,a5
    1c0e:	fd442783          	lw	a5,-44(s0)
    1c12:	439c                	lw	a5,0(a5)
    1c14:	078a                	slli	a5,a5,0x2
    1c16:	863e                	mv	a2,a5
    1c18:	85ba                	mv	a1,a4
    1c1a:	fd842503          	lw	a0,-40(s0)
    1c1e:	1ea050ef          	jal	ra,6e08 <memcpy>
C:/Users/86152/Desktop/单车越野/我的/代码调试/Bicycle_Code/libraries/zf_common/zf_common_fifo.c:395
                    break;
    1c22:	0001                	nop
    1c24:	a8fd                	j	1d22 <fifo_read_buffer+0x24a>
C:/Users/86152/Desktop/单车越野/我的/代码调试/Bicycle_Code/libraries/zf_common/zf_common_fifo.c:400
            }
        }
        else
        {
            switch(fifo->type)
    1c26:	fdc42783          	lw	a5,-36(s0)
    1c2a:	43dc                	lw	a5,4(a5)
    1c2c:	4705                	li	a4,1
    1c2e:	04e78a63          	beq	a5,a4,1c82 <fifo_read_buffer+0x1aa>
    1c32:	c789                	beqz	a5,1c3c <fifo_read_buffer+0x164>
    1c34:	4709                	li	a4,2
    1c36:	08e78e63          	beq	a5,a4,1cd2 <fifo_read_buffer+0x1fa>
    1c3a:	a0e5                	j	1d22 <fifo_read_buffer+0x24a>
C:/Users/86152/Desktop/单车越野/我的/代码调试/Bicycle_Code/libraries/zf_common/zf_common_fifo.c:403
            {
                case FIFO_DATA_8BIT:
                    memcpy(dat, &(((uint8 *)fifo->buffer)[fifo->end]), temp_length);
    1c3c:	fdc42783          	lw	a5,-36(s0)
    1c40:	4798                	lw	a4,8(a5)
    1c42:	fdc42783          	lw	a5,-36(s0)
    1c46:	4b9c                	lw	a5,16(a5)
    1c48:	97ba                	add	a5,a5,a4
    1c4a:	fe442603          	lw	a2,-28(s0)
    1c4e:	85be                	mv	a1,a5
    1c50:	fd842503          	lw	a0,-40(s0)
    1c54:	1b4050ef          	jal	ra,6e08 <memcpy>
C:/Users/86152/Desktop/单车越野/我的/代码调试/Bicycle_Code/libraries/zf_common/zf_common_fifo.c:404
                    memcpy(&(((uint8 *)dat)[temp_length]), fifo->buffer, *length - temp_length);
    1c58:	fd842703          	lw	a4,-40(s0)
    1c5c:	fe442783          	lw	a5,-28(s0)
    1c60:	00f706b3          	add	a3,a4,a5
    1c64:	fdc42783          	lw	a5,-36(s0)
    1c68:	478c                	lw	a1,8(a5)
    1c6a:	fd442783          	lw	a5,-44(s0)
    1c6e:	4398                	lw	a4,0(a5)
    1c70:	fe442783          	lw	a5,-28(s0)
    1c74:	40f707b3          	sub	a5,a4,a5
    1c78:	863e                	mv	a2,a5
    1c7a:	8536                	mv	a0,a3
    1c7c:	18c050ef          	jal	ra,6e08 <memcpy>
C:/Users/86152/Desktop/单车越野/我的/代码调试/Bicycle_Code/libraries/zf_common/zf_common_fifo.c:405
                    break;
    1c80:	a04d                	j	1d22 <fifo_read_buffer+0x24a>
C:/Users/86152/Desktop/单车越野/我的/代码调试/Bicycle_Code/libraries/zf_common/zf_common_fifo.c:407
                case FIFO_DATA_16BIT:
                    memcpy(dat, &(((uint16 *)fifo->buffer)[fifo->end]), temp_length * 2);
    1c82:	fdc42783          	lw	a5,-36(s0)
    1c86:	4798                	lw	a4,8(a5)
    1c88:	fdc42783          	lw	a5,-36(s0)
    1c8c:	4b9c                	lw	a5,16(a5)
    1c8e:	0786                	slli	a5,a5,0x1
    1c90:	973e                	add	a4,a4,a5
    1c92:	fe442783          	lw	a5,-28(s0)
    1c96:	0786                	slli	a5,a5,0x1
    1c98:	863e                	mv	a2,a5
    1c9a:	85ba                	mv	a1,a4
    1c9c:	fd842503          	lw	a0,-40(s0)
    1ca0:	168050ef          	jal	ra,6e08 <memcpy>
C:/Users/86152/Desktop/单车越野/我的/代码调试/Bicycle_Code/libraries/zf_common/zf_common_fifo.c:408
                    memcpy(&(((uint16 *)dat)[temp_length]), fifo->buffer, (*length - temp_length) * 2);
    1ca4:	fe442783          	lw	a5,-28(s0)
    1ca8:	0786                	slli	a5,a5,0x1
    1caa:	fd842703          	lw	a4,-40(s0)
    1cae:	00f706b3          	add	a3,a4,a5
    1cb2:	fdc42783          	lw	a5,-36(s0)
    1cb6:	478c                	lw	a1,8(a5)
    1cb8:	fd442783          	lw	a5,-44(s0)
    1cbc:	4398                	lw	a4,0(a5)
    1cbe:	fe442783          	lw	a5,-28(s0)
    1cc2:	40f707b3          	sub	a5,a4,a5
    1cc6:	0786                	slli	a5,a5,0x1
    1cc8:	863e                	mv	a2,a5
    1cca:	8536                	mv	a0,a3
    1ccc:	13c050ef          	jal	ra,6e08 <memcpy>
C:/Users/86152/Desktop/单车越野/我的/代码调试/Bicycle_Code/libraries/zf_common/zf_common_fifo.c:409
                    break;
    1cd0:	a889                	j	1d22 <fifo_read_buffer+0x24a>
C:/Users/86152/Desktop/单车越野/我的/代码调试/Bicycle_Code/libraries/zf_common/zf_common_fifo.c:411
                case FIFO_DATA_32BIT:
                    memcpy(dat, &(((uint32 *)fifo->buffer)[fifo->end]), temp_length * 4);
    1cd2:	fdc42783          	lw	a5,-36(s0)
    1cd6:	4798                	lw	a4,8(a5)
    1cd8:	fdc42783          	lw	a5,-36(s0)
    1cdc:	4b9c                	lw	a5,16(a5)
    1cde:	078a                	slli	a5,a5,0x2
    1ce0:	973e                	add	a4,a4,a5
    1ce2:	fe442783          	lw	a5,-28(s0)
    1ce6:	078a                	slli	a5,a5,0x2
    1ce8:	863e                	mv	a2,a5
    1cea:	85ba                	mv	a1,a4
    1cec:	fd842503          	lw	a0,-40(s0)
    1cf0:	118050ef          	jal	ra,6e08 <memcpy>
C:/Users/86152/Desktop/单车越野/我的/代码调试/Bicycle_Code/libraries/zf_common/zf_common_fifo.c:412
                    memcpy(&(((uint32 *)dat)[temp_length]), fifo->buffer, (*length - temp_length) * 4);
    1cf4:	fe442783          	lw	a5,-28(s0)
    1cf8:	078a                	slli	a5,a5,0x2
    1cfa:	fd842703          	lw	a4,-40(s0)
    1cfe:	00f706b3          	add	a3,a4,a5
    1d02:	fdc42783          	lw	a5,-36(s0)
    1d06:	478c                	lw	a1,8(a5)
    1d08:	fd442783          	lw	a5,-44(s0)
    1d0c:	4398                	lw	a4,0(a5)
    1d0e:	fe442783          	lw	a5,-28(s0)
    1d12:	40f707b3          	sub	a5,a4,a5
    1d16:	078a                	slli	a5,a5,0x2
    1d18:	863e                	mv	a2,a5
    1d1a:	8536                	mv	a0,a3
    1d1c:	0ec050ef          	jal	ra,6e08 <memcpy>
C:/Users/86152/Desktop/单车越野/我的/代码调试/Bicycle_Code/libraries/zf_common/zf_common_fifo.c:413
                    break;
    1d20:	0001                	nop
C:/Users/86152/Desktop/单车越野/我的/代码调试/Bicycle_Code/libraries/zf_common/zf_common_fifo.c:417
            }
        }

        if(flag == FIFO_READ_AND_CLEAN)                                         // 如果选择读取并更改 FIFO 状态
    1d22:	fd042783          	lw	a5,-48(s0)
    1d26:	e7b5                	bnez	a5,1d92 <fifo_read_buffer+0x2ba>
C:/Users/86152/Desktop/单车越野/我的/代码调试/Bicycle_Code/libraries/zf_common/zf_common_fifo.c:419
        {
            if(FIFO_CLEAR & fifo->execution)
    1d28:	fdc42783          	lw	a5,-36(s0)
    1d2c:	0007c783          	lbu	a5,0(a5)
    1d30:	8b85                	andi	a5,a5,1
    1d32:	0ff7f793          	andi	a5,a5,255
    1d36:	c789                	beqz	a5,1d40 <fifo_read_buffer+0x268>
C:/Users/86152/Desktop/单车越野/我的/代码调试/Bicycle_Code/libraries/zf_common/zf_common_fifo.c:421
            {
                return_state = FIFO_CLEAR_UNDO;
    1d38:	4789                	li	a5,2
    1d3a:	fef42623          	sw	a5,-20(s0)
C:/Users/86152/Desktop/单车越野/我的/代码调试/Bicycle_Code/libraries/zf_common/zf_common_fifo.c:422
                break;
    1d3e:	a891                	j	1d92 <fifo_read_buffer+0x2ba>
C:/Users/86152/Desktop/单车越野/我的/代码调试/Bicycle_Code/libraries/zf_common/zf_common_fifo.c:424
            }
            fifo->execution |= FIFO_CLEAR;
    1d40:	fdc42783          	lw	a5,-36(s0)
    1d44:	0007c783          	lbu	a5,0(a5)
    1d48:	0017e793          	ori	a5,a5,1
    1d4c:	0ff7f713          	andi	a4,a5,255
    1d50:	fdc42783          	lw	a5,-36(s0)
    1d54:	00e78023          	sb	a4,0(a5)
C:/Users/86152/Desktop/单车越野/我的/代码调试/Bicycle_Code/libraries/zf_common/zf_common_fifo.c:425
            fifo_end_offset(fifo, *length);                                     // 移动 FIFO 头指针
    1d58:	fd442783          	lw	a5,-44(s0)
    1d5c:	439c                	lw	a5,0(a5)
    1d5e:	85be                	mv	a1,a5
    1d60:	fdc42503          	lw	a0,-36(s0)
    1d64:	8f7ff0ef          	jal	ra,165a <fifo_end_offset>
C:/Users/86152/Desktop/单车越野/我的/代码调试/Bicycle_Code/libraries/zf_common/zf_common_fifo.c:426
            fifo->size += *length;
    1d68:	fdc42783          	lw	a5,-36(s0)
    1d6c:	4bd8                	lw	a4,20(a5)
    1d6e:	fd442783          	lw	a5,-44(s0)
    1d72:	439c                	lw	a5,0(a5)
    1d74:	973e                	add	a4,a4,a5
    1d76:	fdc42783          	lw	a5,-36(s0)
    1d7a:	cbd8                	sw	a4,20(a5)
C:/Users/86152/Desktop/单车越野/我的/代码调试/Bicycle_Code/libraries/zf_common/zf_common_fifo.c:427
            fifo->execution &= ~FIFO_CLEAR;
    1d7c:	fdc42783          	lw	a5,-36(s0)
    1d80:	0007c783          	lbu	a5,0(a5)
    1d84:	9bf9                	andi	a5,a5,-2
    1d86:	0ff7f713          	andi	a4,a5,255
    1d8a:	fdc42783          	lw	a5,-36(s0)
    1d8e:	00e78023          	sb	a4,0(a5)
C:/Users/86152/Desktop/单车越野/我的/代码调试/Bicycle_Code/libraries/zf_common/zf_common_fifo.c:430
        }
    }while(0);
    fifo->execution &= FIFO_READ;
    1d92:	fdc42783          	lw	a5,-36(s0)
    1d96:	0007c783          	lbu	a5,0(a5)
    1d9a:	8b91                	andi	a5,a5,4
    1d9c:	0ff7f713          	andi	a4,a5,255
    1da0:	fdc42783          	lw	a5,-36(s0)
    1da4:	00e78023          	sb	a4,0(a5)
C:/Users/86152/Desktop/单车越野/我的/代码调试/Bicycle_Code/libraries/zf_common/zf_common_fifo.c:432

    return return_state;
    1da8:	fec42783          	lw	a5,-20(s0)
C:/Users/86152/Desktop/单车越野/我的/代码调试/Bicycle_Code/libraries/zf_common/zf_common_fifo.c:433
}
    1dac:	853e                	mv	a0,a5
    1dae:	50b2                	lw	ra,44(sp)
    1db0:	5422                	lw	s0,40(sp)
    1db2:	6145                	addi	sp,sp,48
    1db4:	8082                	ret

00001db6 <__enable_irq>:
__enable_irq():
C:\Users\86152\Desktop\单车越野\我的\代码调试\Bicycle_Code\libraries\sdk\Core/core_riscv.h:124
{
    1db6:	1141                	addi	sp,sp,-16
    1db8:	c622                	sw	s0,12(sp)
    1dba:	0800                	addi	s0,sp,16
C:\Users\86152\Desktop\单车越野\我的\代码调试\Bicycle_Code\libraries\sdk\Core/core_riscv.h:125
  __asm volatile ("csrw 0x800, %0" : : "r" (0x6088) );
    1dbc:	6799                	lui	a5,0x6
    1dbe:	08878793          	addi	a5,a5,136 # 6088 <__muldf3+0x602>
    1dc2:	80079073          	csrw	0x800,a5
C:\Users\86152\Desktop\单车越野\我的\代码调试\Bicycle_Code\libraries\sdk\Core/core_riscv.h:126
}
    1dc6:	0001                	nop
    1dc8:	4432                	lw	s0,12(sp)
    1dca:	0141                	addi	sp,sp,16
    1dcc:	8082                	ret

00001dce <__disable_irq>:
__disable_irq():
C:\Users\86152\Desktop\单车越野\我的\代码调试\Bicycle_Code\libraries\sdk\Core/core_riscv.h:136
{
    1dce:	1141                	addi	sp,sp,-16
    1dd0:	c622                	sw	s0,12(sp)
    1dd2:	0800                	addi	s0,sp,16
C:\Users\86152\Desktop\单车越野\我的\代码调试\Bicycle_Code\libraries\sdk\Core/core_riscv.h:137
  __asm volatile ("csrw 0x800, %0" : : "r" (0x6000) );
    1dd4:	6799                	lui	a5,0x6
    1dd6:	80079073          	csrw	0x800,a5
C:\Users\86152\Desktop\单车越野\我的\代码调试\Bicycle_Code\libraries\sdk\Core/core_riscv.h:138
}
    1dda:	0001                	nop
    1ddc:	4432                	lw	s0,12(sp)
    1dde:	0141                	addi	sp,sp,16
    1de0:	8082                	ret

00001de2 <interrupt_global_enable>:
interrupt_global_enable():
C:/Users/86152/Desktop/单车越野/我的/代码调试/Bicycle_Code/libraries/zf_common/zf_common_interrupt.c:97
// 参数说明     void            还原的嵌套层 如果传入 0 则直接清空嵌套层数开启总中断
// 返回参数     void
// 使用示例     interrupt_global_enable();
//-------------------------------------------------------------------------------------------------------------------
void interrupt_global_enable (uint32 primask)
{
    1de2:	1101                	addi	sp,sp,-32
    1de4:	ce06                	sw	ra,28(sp)
    1de6:	cc22                	sw	s0,24(sp)
    1de8:	1000                	addi	s0,sp,32
    1dea:	fea42623          	sw	a0,-20(s0)
C:/Users/86152/Desktop/单车越野/我的/代码调试/Bicycle_Code/libraries/zf_common/zf_common_interrupt.c:98
    if(primask)
    1dee:	fec42783          	lw	a5,-20(s0)
    1df2:	c799                	beqz	a5,1e00 <interrupt_global_enable+0x1e>
C:/Users/86152/Desktop/单车越野/我的/代码调试/Bicycle_Code/libraries/zf_common/zf_common_interrupt.c:100
    {
        interrupt_nest_count --;
    1df4:	8401a783          	lw	a5,-1984(gp) # 20000278 <interrupt_nest_count>
    1df8:	fff78713          	addi	a4,a5,-1 # 5fff <__muldf3+0x579>
    1dfc:	84e1a023          	sw	a4,-1984(gp) # 20000278 <interrupt_nest_count>
C:/Users/86152/Desktop/单车越野/我的/代码调试/Bicycle_Code/libraries/zf_common/zf_common_interrupt.c:102
    }
    if(!interrupt_nest_count)
    1e00:	8401a783          	lw	a5,-1984(gp) # 20000278 <interrupt_nest_count>
    1e04:	e391                	bnez	a5,1e08 <interrupt_global_enable+0x26>
C:/Users/86152/Desktop/单车越野/我的/代码调试/Bicycle_Code/libraries/zf_common/zf_common_interrupt.c:104
    {
        __enable_irq();
    1e06:	3f45                	jal	1db6 <__enable_irq>
C:/Users/86152/Desktop/单车越野/我的/代码调试/Bicycle_Code/libraries/zf_common/zf_common_interrupt.c:106
    }
}
    1e08:	0001                	nop
    1e0a:	40f2                	lw	ra,28(sp)
    1e0c:	4462                	lw	s0,24(sp)
    1e0e:	6105                	addi	sp,sp,32
    1e10:	8082                	ret

00001e12 <interrupt_global_disable>:
interrupt_global_disable():
C:/Users/86152/Desktop/单车越野/我的/代码调试/Bicycle_Code/libraries/zf_common/zf_common_interrupt.c:115
// 参数说明     void
// 返回参数     void
// 使用示例     interrupt_disable_all();
//-------------------------------------------------------------------------------------------------------------------
uint32 interrupt_global_disable (void)
{
    1e12:	1141                	addi	sp,sp,-16
    1e14:	c606                	sw	ra,12(sp)
    1e16:	c422                	sw	s0,8(sp)
    1e18:	0800                	addi	s0,sp,16
C:/Users/86152/Desktop/单车越野/我的/代码调试/Bicycle_Code/libraries/zf_common/zf_common_interrupt.c:117

    if(!interrupt_nest_count)
    1e1a:	8401a783          	lw	a5,-1984(gp) # 20000278 <interrupt_nest_count>
    1e1e:	e391                	bnez	a5,1e22 <interrupt_global_disable+0x10>
C:/Users/86152/Desktop/单车越野/我的/代码调试/Bicycle_Code/libraries/zf_common/zf_common_interrupt.c:119
    {
        __disable_irq();
    1e20:	377d                	jal	1dce <__disable_irq>
C:/Users/86152/Desktop/单车越野/我的/代码调试/Bicycle_Code/libraries/zf_common/zf_common_interrupt.c:121
    }
    interrupt_nest_count ++;
    1e22:	8401a783          	lw	a5,-1984(gp) # 20000278 <interrupt_nest_count>
    1e26:	00178713          	addi	a4,a5,1
    1e2a:	84e1a023          	sw	a4,-1984(gp) # 20000278 <interrupt_nest_count>
C:/Users/86152/Desktop/单车越野/我的/代码调试/Bicycle_Code/libraries/zf_common/zf_common_interrupt.c:122
    return interrupt_nest_count;
    1e2e:	8401a783          	lw	a5,-1984(gp) # 20000278 <interrupt_nest_count>
C:/Users/86152/Desktop/单车越野/我的/代码调试/Bicycle_Code/libraries/zf_common/zf_common_interrupt.c:123
}
    1e32:	853e                	mv	a0,a5
    1e34:	40b2                	lw	ra,12(sp)
    1e36:	4422                	lw	s0,8(sp)
    1e38:	0141                	addi	sp,sp,16
    1e3a:	8082                	ret

00001e3c <interrupt_init>:
interrupt_init():
C:/Users/86152/Desktop/单车越野/我的/代码调试/Bicycle_Code/libraries/zf_common/zf_common_interrupt.c:133
// 返回参数     void
// 使用示例     interrupt_init();
// 备注信息     会在  clock_init 内部调用
//-------------------------------------------------------------------------------------------------------------------
void interrupt_init (void)
{
    1e3c:	1141                	addi	sp,sp,-16
    1e3e:	c606                	sw	ra,12(sp)
    1e40:	c422                	sw	s0,8(sp)
    1e42:	0800                	addi	s0,sp,16
C:/Users/86152/Desktop/单车越野/我的/代码调试/Bicycle_Code/libraries/zf_common/zf_common_interrupt.c:134
    interrupt_global_enable(0);  //使能全局中断
    1e44:	4501                	li	a0,0
    1e46:	3f71                	jal	1de2 <interrupt_global_enable>
C:/Users/86152/Desktop/单车越野/我的/代码调试/Bicycle_Code/libraries/zf_common/zf_common_interrupt.c:135
}
    1e48:	0001                	nop
    1e4a:	40b2                	lw	ra,12(sp)
    1e4c:	4422                	lw	s0,8(sp)
    1e4e:	0141                	addi	sp,sp,16
    1e50:	8082                	ret

00001e52 <USART1_IRQHandler>:
USART1_IRQHandler():
C:/Users/86152/Desktop/单车越野/我的/代码调试/Bicycle_Code/project/user/src/isr.c:81
void EXTI4_IRQHandler(void) __attribute__((interrupt("WCH-Interrupt-fast")));
void EXTI9_5_IRQHandler(void) __attribute__((interrupt("WCH-Interrupt-fast")));
void EXTI15_10_IRQHandler(void) __attribute__((interrupt("WCH-Interrupt-fast")));

void USART1_IRQHandler(void)
{
    1e52:	711d                	addi	sp,sp,-96
    1e54:	cea2                	sw	s0,92(sp)
    1e56:	e682                	fsw	ft0,76(sp)
    1e58:	e486                	fsw	ft1,72(sp)
    1e5a:	e28a                	fsw	ft2,68(sp)
    1e5c:	e08e                	fsw	ft3,64(sp)
    1e5e:	fe12                	fsw	ft4,60(sp)
    1e60:	fc16                	fsw	ft5,56(sp)
    1e62:	fa1a                	fsw	ft6,52(sp)
    1e64:	f81e                	fsw	ft7,48(sp)
    1e66:	f62a                	fsw	fa0,44(sp)
    1e68:	f42e                	fsw	fa1,40(sp)
    1e6a:	f232                	fsw	fa2,36(sp)
    1e6c:	f036                	fsw	fa3,32(sp)
    1e6e:	ee3a                	fsw	fa4,28(sp)
    1e70:	ec3e                	fsw	fa5,24(sp)
    1e72:	ea42                	fsw	fa6,20(sp)
    1e74:	e846                	fsw	fa7,16(sp)
    1e76:	e672                	fsw	ft8,12(sp)
    1e78:	e476                	fsw	ft9,8(sp)
    1e7a:	e27a                	fsw	ft10,4(sp)
    1e7c:	e07e                	fsw	ft11,0(sp)
    1e7e:	1080                	addi	s0,sp,96
C:/Users/86152/Desktop/单车越野/我的/代码调试/Bicycle_Code/project/user/src/isr.c:82
    if(USART_GetITStatus(USART1, USART_IT_RXNE) != RESET)
    1e80:	52500593          	li	a1,1317
    1e84:	400147b7          	lui	a5,0x40014
    1e88:	80078513          	addi	a0,a5,-2048 # 40013800 <_eusrstack+0x20003800>
    1e8c:	095010ef          	jal	ra,3720 <USART_GetITStatus>
    1e90:	87aa                	mv	a5,a0
    1e92:	cb89                	beqz	a5,1ea4 <USART1_IRQHandler+0x52>
C:/Users/86152/Desktop/单车越野/我的/代码调试/Bicycle_Code/project/user/src/isr.c:85
    {

        USART_ClearITPendingBit(USART1, USART_IT_RXNE);
    1e94:	52500593          	li	a1,1317
    1e98:	400147b7          	lui	a5,0x40014
    1e9c:	80078513          	addi	a0,a5,-2048 # 40013800 <_eusrstack+0x20003800>
    1ea0:	183010ef          	jal	ra,3822 <USART_ClearITPendingBit>
C:/Users/86152/Desktop/单车越野/我的/代码调试/Bicycle_Code/project/user/src/isr.c:87
    }
}
    1ea4:	0001                	nop
    1ea6:	4476                	lw	s0,92(sp)
    1ea8:	6036                	flw	ft0,76(sp)
    1eaa:	60a6                	flw	ft1,72(sp)
    1eac:	6116                	flw	ft2,68(sp)
    1eae:	6186                	flw	ft3,64(sp)
    1eb0:	7272                	flw	ft4,60(sp)
    1eb2:	72e2                	flw	ft5,56(sp)
    1eb4:	7352                	flw	ft6,52(sp)
    1eb6:	73c2                	flw	ft7,48(sp)
    1eb8:	7532                	flw	fa0,44(sp)
    1eba:	75a2                	flw	fa1,40(sp)
    1ebc:	7612                	flw	fa2,36(sp)
    1ebe:	7682                	flw	fa3,32(sp)
    1ec0:	6772                	flw	fa4,28(sp)
    1ec2:	67e2                	flw	fa5,24(sp)
    1ec4:	6852                	flw	fa6,20(sp)
    1ec6:	68c2                	flw	fa7,16(sp)
    1ec8:	6e32                	flw	ft8,12(sp)
    1eca:	6ea2                	flw	ft9,8(sp)
    1ecc:	6f12                	flw	ft10,4(sp)
    1ece:	6f82                	flw	ft11,0(sp)
    1ed0:	6125                	addi	sp,sp,96
    1ed2:	30200073          	mret

00001ed6 <USART2_IRQHandler>:
USART2_IRQHandler():
C:/Users/86152/Desktop/单车越野/我的/代码调试/Bicycle_Code/project/user/src/isr.c:89
void USART2_IRQHandler(void)
{
    1ed6:	711d                	addi	sp,sp,-96
    1ed8:	cea2                	sw	s0,92(sp)
    1eda:	e682                	fsw	ft0,76(sp)
    1edc:	e486                	fsw	ft1,72(sp)
    1ede:	e28a                	fsw	ft2,68(sp)
    1ee0:	e08e                	fsw	ft3,64(sp)
    1ee2:	fe12                	fsw	ft4,60(sp)
    1ee4:	fc16                	fsw	ft5,56(sp)
    1ee6:	fa1a                	fsw	ft6,52(sp)
    1ee8:	f81e                	fsw	ft7,48(sp)
    1eea:	f62a                	fsw	fa0,44(sp)
    1eec:	f42e                	fsw	fa1,40(sp)
    1eee:	f232                	fsw	fa2,36(sp)
    1ef0:	f036                	fsw	fa3,32(sp)
    1ef2:	ee3a                	fsw	fa4,28(sp)
    1ef4:	ec3e                	fsw	fa5,24(sp)
    1ef6:	ea42                	fsw	fa6,20(sp)
    1ef8:	e846                	fsw	fa7,16(sp)
    1efa:	e672                	fsw	ft8,12(sp)
    1efc:	e476                	fsw	ft9,8(sp)
    1efe:	e27a                	fsw	ft10,4(sp)
    1f00:	e07e                	fsw	ft11,0(sp)
    1f02:	1080                	addi	s0,sp,96
C:/Users/86152/Desktop/单车越野/我的/代码调试/Bicycle_Code/project/user/src/isr.c:90
    if(USART_GetITStatus(USART2, USART_IT_RXNE) != RESET)
    1f04:	52500593          	li	a1,1317
    1f08:	400047b7          	lui	a5,0x40004
    1f0c:	40078513          	addi	a0,a5,1024 # 40004400 <_eusrstack+0x1fff4400>
    1f10:	011010ef          	jal	ra,3720 <USART_GetITStatus>
    1f14:	87aa                	mv	a5,a0
    1f16:	cb89                	beqz	a5,1f28 <USART2_IRQHandler+0x52>
C:/Users/86152/Desktop/单车越野/我的/代码调试/Bicycle_Code/project/user/src/isr.c:94
    {


        USART_ClearITPendingBit(USART2, USART_IT_RXNE);
    1f18:	52500593          	li	a1,1317
    1f1c:	400047b7          	lui	a5,0x40004
    1f20:	40078513          	addi	a0,a5,1024 # 40004400 <_eusrstack+0x1fff4400>
    1f24:	0ff010ef          	jal	ra,3822 <USART_ClearITPendingBit>
C:/Users/86152/Desktop/单车越野/我的/代码调试/Bicycle_Code/project/user/src/isr.c:96
    }
}
    1f28:	0001                	nop
    1f2a:	4476                	lw	s0,92(sp)
    1f2c:	6036                	flw	ft0,76(sp)
    1f2e:	60a6                	flw	ft1,72(sp)
    1f30:	6116                	flw	ft2,68(sp)
    1f32:	6186                	flw	ft3,64(sp)
    1f34:	7272                	flw	ft4,60(sp)
    1f36:	72e2                	flw	ft5,56(sp)
    1f38:	7352                	flw	ft6,52(sp)
    1f3a:	73c2                	flw	ft7,48(sp)
    1f3c:	7532                	flw	fa0,44(sp)
    1f3e:	75a2                	flw	fa1,40(sp)
    1f40:	7612                	flw	fa2,36(sp)
    1f42:	7682                	flw	fa3,32(sp)
    1f44:	6772                	flw	fa4,28(sp)
    1f46:	67e2                	flw	fa5,24(sp)
    1f48:	6852                	flw	fa6,20(sp)
    1f4a:	68c2                	flw	fa7,16(sp)
    1f4c:	6e32                	flw	ft8,12(sp)
    1f4e:	6ea2                	flw	ft9,8(sp)
    1f50:	6f12                	flw	ft10,4(sp)
    1f52:	6f82                	flw	ft11,0(sp)
    1f54:	6125                	addi	sp,sp,96
    1f56:	30200073          	mret

00001f5a <USART3_IRQHandler>:
USART3_IRQHandler():
C:/Users/86152/Desktop/单车越野/我的/代码调试/Bicycle_Code/project/user/src/isr.c:98
void USART3_IRQHandler(void)
{
    1f5a:	711d                	addi	sp,sp,-96
    1f5c:	cea2                	sw	s0,92(sp)
    1f5e:	e682                	fsw	ft0,76(sp)
    1f60:	e486                	fsw	ft1,72(sp)
    1f62:	e28a                	fsw	ft2,68(sp)
    1f64:	e08e                	fsw	ft3,64(sp)
    1f66:	fe12                	fsw	ft4,60(sp)
    1f68:	fc16                	fsw	ft5,56(sp)
    1f6a:	fa1a                	fsw	ft6,52(sp)
    1f6c:	f81e                	fsw	ft7,48(sp)
    1f6e:	f62a                	fsw	fa0,44(sp)
    1f70:	f42e                	fsw	fa1,40(sp)
    1f72:	f232                	fsw	fa2,36(sp)
    1f74:	f036                	fsw	fa3,32(sp)
    1f76:	ee3a                	fsw	fa4,28(sp)
    1f78:	ec3e                	fsw	fa5,24(sp)
    1f7a:	ea42                	fsw	fa6,20(sp)
    1f7c:	e846                	fsw	fa7,16(sp)
    1f7e:	e672                	fsw	ft8,12(sp)
    1f80:	e476                	fsw	ft9,8(sp)
    1f82:	e27a                	fsw	ft10,4(sp)
    1f84:	e07e                	fsw	ft11,0(sp)
    1f86:	1080                	addi	s0,sp,96
C:/Users/86152/Desktop/单车越野/我的/代码调试/Bicycle_Code/project/user/src/isr.c:99
    if(USART_GetITStatus(USART3, USART_IT_RXNE) != RESET)
    1f88:	52500593          	li	a1,1317
    1f8c:	400057b7          	lui	a5,0x40005
    1f90:	80078513          	addi	a0,a5,-2048 # 40004800 <_eusrstack+0x1fff4800>
    1f94:	78c010ef          	jal	ra,3720 <USART_GetITStatus>
    1f98:	87aa                	mv	a5,a0
    1f9a:	cb89                	beqz	a5,1fac <USART3_IRQHandler+0x52>
C:/Users/86152/Desktop/单车越野/我的/代码调试/Bicycle_Code/project/user/src/isr.c:104
    {
#if DEBUG_UART_USE_INTERRUPT                                                    // 如果开启 debug 串口中断
        debug_interrupr_handler();                                              // 调用 debug 串口接收处理函数 数据会被 debug 环形缓冲区读取
#endif                                                                          // 如果修改了 DEBUG_UART_INDEX 那这段代码需要放到对应的串口中断去
        USART_ClearITPendingBit(USART3, USART_IT_RXNE);
    1f9c:	52500593          	li	a1,1317
    1fa0:	400057b7          	lui	a5,0x40005
    1fa4:	80078513          	addi	a0,a5,-2048 # 40004800 <_eusrstack+0x1fff4800>
    1fa8:	07b010ef          	jal	ra,3822 <USART_ClearITPendingBit>
C:/Users/86152/Desktop/单车越野/我的/代码调试/Bicycle_Code/project/user/src/isr.c:106
    }
}
    1fac:	0001                	nop
    1fae:	4476                	lw	s0,92(sp)
    1fb0:	6036                	flw	ft0,76(sp)
    1fb2:	60a6                	flw	ft1,72(sp)
    1fb4:	6116                	flw	ft2,68(sp)
    1fb6:	6186                	flw	ft3,64(sp)
    1fb8:	7272                	flw	ft4,60(sp)
    1fba:	72e2                	flw	ft5,56(sp)
    1fbc:	7352                	flw	ft6,52(sp)
    1fbe:	73c2                	flw	ft7,48(sp)
    1fc0:	7532                	flw	fa0,44(sp)
    1fc2:	75a2                	flw	fa1,40(sp)
    1fc4:	7612                	flw	fa2,36(sp)
    1fc6:	7682                	flw	fa3,32(sp)
    1fc8:	6772                	flw	fa4,28(sp)
    1fca:	67e2                	flw	fa5,24(sp)
    1fcc:	6852                	flw	fa6,20(sp)
    1fce:	68c2                	flw	fa7,16(sp)
    1fd0:	6e32                	flw	ft8,12(sp)
    1fd2:	6ea2                	flw	ft9,8(sp)
    1fd4:	6f12                	flw	ft10,4(sp)
    1fd6:	6f82                	flw	ft11,0(sp)
    1fd8:	6125                	addi	sp,sp,96
    1fda:	30200073          	mret

00001fde <UART4_IRQHandler>:
UART4_IRQHandler():
C:/Users/86152/Desktop/单车越野/我的/代码调试/Bicycle_Code/project/user/src/isr.c:108
void UART4_IRQHandler (void)
{
    1fde:	711d                	addi	sp,sp,-96
    1fe0:	cea2                	sw	s0,92(sp)
    1fe2:	e682                	fsw	ft0,76(sp)
    1fe4:	e486                	fsw	ft1,72(sp)
    1fe6:	e28a                	fsw	ft2,68(sp)
    1fe8:	e08e                	fsw	ft3,64(sp)
    1fea:	fe12                	fsw	ft4,60(sp)
    1fec:	fc16                	fsw	ft5,56(sp)
    1fee:	fa1a                	fsw	ft6,52(sp)
    1ff0:	f81e                	fsw	ft7,48(sp)
    1ff2:	f62a                	fsw	fa0,44(sp)
    1ff4:	f42e                	fsw	fa1,40(sp)
    1ff6:	f232                	fsw	fa2,36(sp)
    1ff8:	f036                	fsw	fa3,32(sp)
    1ffa:	ee3a                	fsw	fa4,28(sp)
    1ffc:	ec3e                	fsw	fa5,24(sp)
    1ffe:	ea42                	fsw	fa6,20(sp)
    2000:	e846                	fsw	fa7,16(sp)
    2002:	e672                	fsw	ft8,12(sp)
    2004:	e476                	fsw	ft9,8(sp)
    2006:	e27a                	fsw	ft10,4(sp)
    2008:	e07e                	fsw	ft11,0(sp)
    200a:	1080                	addi	s0,sp,96
C:/Users/86152/Desktop/单车越野/我的/代码调试/Bicycle_Code/project/user/src/isr.c:109
    if(USART_GetITStatus(UART4, USART_IT_RXNE) != RESET)
    200c:	52500593          	li	a1,1317
    2010:	400057b7          	lui	a5,0x40005
    2014:	c0078513          	addi	a0,a5,-1024 # 40004c00 <_eusrstack+0x1fff4c00>
    2018:	708010ef          	jal	ra,3720 <USART_GetITStatus>
    201c:	87aa                	mv	a5,a0
    201e:	cb89                	beqz	a5,2030 <UART4_IRQHandler+0x52>
C:/Users/86152/Desktop/单车越野/我的/代码调试/Bicycle_Code/project/user/src/isr.c:112
    {

        USART_ClearITPendingBit(UART4, USART_IT_RXNE);
    2020:	52500593          	li	a1,1317
    2024:	400057b7          	lui	a5,0x40005
    2028:	c0078513          	addi	a0,a5,-1024 # 40004c00 <_eusrstack+0x1fff4c00>
    202c:	7f6010ef          	jal	ra,3822 <USART_ClearITPendingBit>
C:/Users/86152/Desktop/单车越野/我的/代码调试/Bicycle_Code/project/user/src/isr.c:114
    }
}
    2030:	0001                	nop
    2032:	4476                	lw	s0,92(sp)
    2034:	6036                	flw	ft0,76(sp)
    2036:	60a6                	flw	ft1,72(sp)
    2038:	6116                	flw	ft2,68(sp)
    203a:	6186                	flw	ft3,64(sp)
    203c:	7272                	flw	ft4,60(sp)
    203e:	72e2                	flw	ft5,56(sp)
    2040:	7352                	flw	ft6,52(sp)
    2042:	73c2                	flw	ft7,48(sp)
    2044:	7532                	flw	fa0,44(sp)
    2046:	75a2                	flw	fa1,40(sp)
    2048:	7612                	flw	fa2,36(sp)
    204a:	7682                	flw	fa3,32(sp)
    204c:	6772                	flw	fa4,28(sp)
    204e:	67e2                	flw	fa5,24(sp)
    2050:	6852                	flw	fa6,20(sp)
    2052:	68c2                	flw	fa7,16(sp)
    2054:	6e32                	flw	ft8,12(sp)
    2056:	6ea2                	flw	ft9,8(sp)
    2058:	6f12                	flw	ft10,4(sp)
    205a:	6f82                	flw	ft11,0(sp)
    205c:	6125                	addi	sp,sp,96
    205e:	30200073          	mret

00002062 <UART5_IRQHandler>:
UART5_IRQHandler():
C:/Users/86152/Desktop/单车越野/我的/代码调试/Bicycle_Code/project/user/src/isr.c:116
void UART5_IRQHandler (void)
{
    2062:	711d                	addi	sp,sp,-96
    2064:	cea2                	sw	s0,92(sp)
    2066:	e682                	fsw	ft0,76(sp)
    2068:	e486                	fsw	ft1,72(sp)
    206a:	e28a                	fsw	ft2,68(sp)
    206c:	e08e                	fsw	ft3,64(sp)
    206e:	fe12                	fsw	ft4,60(sp)
    2070:	fc16                	fsw	ft5,56(sp)
    2072:	fa1a                	fsw	ft6,52(sp)
    2074:	f81e                	fsw	ft7,48(sp)
    2076:	f62a                	fsw	fa0,44(sp)
    2078:	f42e                	fsw	fa1,40(sp)
    207a:	f232                	fsw	fa2,36(sp)
    207c:	f036                	fsw	fa3,32(sp)
    207e:	ee3a                	fsw	fa4,28(sp)
    2080:	ec3e                	fsw	fa5,24(sp)
    2082:	ea42                	fsw	fa6,20(sp)
    2084:	e846                	fsw	fa7,16(sp)
    2086:	e672                	fsw	ft8,12(sp)
    2088:	e476                	fsw	ft9,8(sp)
    208a:	e27a                	fsw	ft10,4(sp)
    208c:	e07e                	fsw	ft11,0(sp)
    208e:	1080                	addi	s0,sp,96
C:/Users/86152/Desktop/单车越野/我的/代码调试/Bicycle_Code/project/user/src/isr.c:117
    if(USART_GetITStatus(UART5, USART_IT_RXNE) != RESET)
    2090:	52500593          	li	a1,1317
    2094:	40005537          	lui	a0,0x40005
    2098:	688010ef          	jal	ra,3720 <USART_GetITStatus>
    209c:	87aa                	mv	a5,a0
    209e:	cf81                	beqz	a5,20b6 <UART5_IRQHandler+0x54>
C:/Users/86152/Desktop/单车越野/我的/代码调试/Bicycle_Code/project/user/src/isr.c:119
    {
        camera_uart_handler();
    20a0:	200007b7          	lui	a5,0x20000
    20a4:	2387a783          	lw	a5,568(a5) # 20000238 <camera_uart_handler>
    20a8:	9782                	jalr	a5
C:/Users/86152/Desktop/单车越野/我的/代码调试/Bicycle_Code/project/user/src/isr.c:120
        USART_ClearITPendingBit(UART5, USART_IT_RXNE);
    20aa:	52500593          	li	a1,1317
    20ae:	40005537          	lui	a0,0x40005
    20b2:	770010ef          	jal	ra,3822 <USART_ClearITPendingBit>
C:/Users/86152/Desktop/单车越野/我的/代码调试/Bicycle_Code/project/user/src/isr.c:122
    }
}
    20b6:	0001                	nop
    20b8:	4476                	lw	s0,92(sp)
    20ba:	6036                	flw	ft0,76(sp)
    20bc:	60a6                	flw	ft1,72(sp)
    20be:	6116                	flw	ft2,68(sp)
    20c0:	6186                	flw	ft3,64(sp)
    20c2:	7272                	flw	ft4,60(sp)
    20c4:	72e2                	flw	ft5,56(sp)
    20c6:	7352                	flw	ft6,52(sp)
    20c8:	73c2                	flw	ft7,48(sp)
    20ca:	7532                	flw	fa0,44(sp)
    20cc:	75a2                	flw	fa1,40(sp)
    20ce:	7612                	flw	fa2,36(sp)
    20d0:	7682                	flw	fa3,32(sp)
    20d2:	6772                	flw	fa4,28(sp)
    20d4:	67e2                	flw	fa5,24(sp)
    20d6:	6852                	flw	fa6,20(sp)
    20d8:	68c2                	flw	fa7,16(sp)
    20da:	6e32                	flw	ft8,12(sp)
    20dc:	6ea2                	flw	ft9,8(sp)
    20de:	6f12                	flw	ft10,4(sp)
    20e0:	6f82                	flw	ft11,0(sp)
    20e2:	6125                	addi	sp,sp,96
    20e4:	30200073          	mret

000020e8 <UART6_IRQHandler>:
UART6_IRQHandler():
C:/Users/86152/Desktop/单车越野/我的/代码调试/Bicycle_Code/project/user/src/isr.c:124
void UART6_IRQHandler (void)
{
    20e8:	711d                	addi	sp,sp,-96
    20ea:	cea2                	sw	s0,92(sp)
    20ec:	e682                	fsw	ft0,76(sp)
    20ee:	e486                	fsw	ft1,72(sp)
    20f0:	e28a                	fsw	ft2,68(sp)
    20f2:	e08e                	fsw	ft3,64(sp)
    20f4:	fe12                	fsw	ft4,60(sp)
    20f6:	fc16                	fsw	ft5,56(sp)
    20f8:	fa1a                	fsw	ft6,52(sp)
    20fa:	f81e                	fsw	ft7,48(sp)
    20fc:	f62a                	fsw	fa0,44(sp)
    20fe:	f42e                	fsw	fa1,40(sp)
    2100:	f232                	fsw	fa2,36(sp)
    2102:	f036                	fsw	fa3,32(sp)
    2104:	ee3a                	fsw	fa4,28(sp)
    2106:	ec3e                	fsw	fa5,24(sp)
    2108:	ea42                	fsw	fa6,20(sp)
    210a:	e846                	fsw	fa7,16(sp)
    210c:	e672                	fsw	ft8,12(sp)
    210e:	e476                	fsw	ft9,8(sp)
    2110:	e27a                	fsw	ft10,4(sp)
    2112:	e07e                	fsw	ft11,0(sp)
    2114:	1080                	addi	s0,sp,96
C:/Users/86152/Desktop/单车越野/我的/代码调试/Bicycle_Code/project/user/src/isr.c:125
    if(USART_GetITStatus(UART6, USART_IT_RXNE) != RESET)
    2116:	52500593          	li	a1,1317
    211a:	400027b7          	lui	a5,0x40002
    211e:	80078513          	addi	a0,a5,-2048 # 40001800 <_eusrstack+0x1fff1800>
    2122:	5fe010ef          	jal	ra,3720 <USART_GetITStatus>
    2126:	87aa                	mv	a5,a0
    2128:	cb89                	beqz	a5,213a <UART6_IRQHandler+0x52>
C:/Users/86152/Desktop/单车越野/我的/代码调试/Bicycle_Code/project/user/src/isr.c:128
    {

        USART_ClearITPendingBit(UART6, USART_IT_RXNE);
    212a:	52500593          	li	a1,1317
    212e:	400027b7          	lui	a5,0x40002
    2132:	80078513          	addi	a0,a5,-2048 # 40001800 <_eusrstack+0x1fff1800>
    2136:	6ec010ef          	jal	ra,3822 <USART_ClearITPendingBit>
C:/Users/86152/Desktop/单车越野/我的/代码调试/Bicycle_Code/project/user/src/isr.c:130
    }
}
    213a:	0001                	nop
    213c:	4476                	lw	s0,92(sp)
    213e:	6036                	flw	ft0,76(sp)
    2140:	60a6                	flw	ft1,72(sp)
    2142:	6116                	flw	ft2,68(sp)
    2144:	6186                	flw	ft3,64(sp)
    2146:	7272                	flw	ft4,60(sp)
    2148:	72e2                	flw	ft5,56(sp)
    214a:	7352                	flw	ft6,52(sp)
    214c:	73c2                	flw	ft7,48(sp)
    214e:	7532                	flw	fa0,44(sp)
    2150:	75a2                	flw	fa1,40(sp)
    2152:	7612                	flw	fa2,36(sp)
    2154:	7682                	flw	fa3,32(sp)
    2156:	6772                	flw	fa4,28(sp)
    2158:	67e2                	flw	fa5,24(sp)
    215a:	6852                	flw	fa6,20(sp)
    215c:	68c2                	flw	fa7,16(sp)
    215e:	6e32                	flw	ft8,12(sp)
    2160:	6ea2                	flw	ft9,8(sp)
    2162:	6f12                	flw	ft10,4(sp)
    2164:	6f82                	flw	ft11,0(sp)
    2166:	6125                	addi	sp,sp,96
    2168:	30200073          	mret

0000216c <UART7_IRQHandler>:
UART7_IRQHandler():
C:/Users/86152/Desktop/单车越野/我的/代码调试/Bicycle_Code/project/user/src/isr.c:132
void UART7_IRQHandler (void)
{
    216c:	711d                	addi	sp,sp,-96
    216e:	cea2                	sw	s0,92(sp)
    2170:	e682                	fsw	ft0,76(sp)
    2172:	e486                	fsw	ft1,72(sp)
    2174:	e28a                	fsw	ft2,68(sp)
    2176:	e08e                	fsw	ft3,64(sp)
    2178:	fe12                	fsw	ft4,60(sp)
    217a:	fc16                	fsw	ft5,56(sp)
    217c:	fa1a                	fsw	ft6,52(sp)
    217e:	f81e                	fsw	ft7,48(sp)
    2180:	f62a                	fsw	fa0,44(sp)
    2182:	f42e                	fsw	fa1,40(sp)
    2184:	f232                	fsw	fa2,36(sp)
    2186:	f036                	fsw	fa3,32(sp)
    2188:	ee3a                	fsw	fa4,28(sp)
    218a:	ec3e                	fsw	fa5,24(sp)
    218c:	ea42                	fsw	fa6,20(sp)
    218e:	e846                	fsw	fa7,16(sp)
    2190:	e672                	fsw	ft8,12(sp)
    2192:	e476                	fsw	ft9,8(sp)
    2194:	e27a                	fsw	ft10,4(sp)
    2196:	e07e                	fsw	ft11,0(sp)
    2198:	1080                	addi	s0,sp,96
C:/Users/86152/Desktop/单车越野/我的/代码调试/Bicycle_Code/project/user/src/isr.c:133
    if(USART_GetITStatus(UART7, USART_IT_RXNE) != RESET)
    219a:	52500593          	li	a1,1317
    219e:	400027b7          	lui	a5,0x40002
    21a2:	c0078513          	addi	a0,a5,-1024 # 40001c00 <_eusrstack+0x1fff1c00>
    21a6:	57a010ef          	jal	ra,3720 <USART_GetITStatus>
    21aa:	87aa                	mv	a5,a0
    21ac:	cf81                	beqz	a5,21c4 <UART7_IRQHandler+0x58>
C:/Users/86152/Desktop/单车越野/我的/代码调试/Bicycle_Code/project/user/src/isr.c:135
    {
        wireless_module_uart_handler();
    21ae:	8081a783          	lw	a5,-2040(gp) # 20000240 <wireless_module_uart_handler>
    21b2:	9782                	jalr	a5
C:/Users/86152/Desktop/单车越野/我的/代码调试/Bicycle_Code/project/user/src/isr.c:136
        USART_ClearITPendingBit(UART7, USART_IT_RXNE);
    21b4:	52500593          	li	a1,1317
    21b8:	400027b7          	lui	a5,0x40002
    21bc:	c0078513          	addi	a0,a5,-1024 # 40001c00 <_eusrstack+0x1fff1c00>
    21c0:	662010ef          	jal	ra,3822 <USART_ClearITPendingBit>
C:/Users/86152/Desktop/单车越野/我的/代码调试/Bicycle_Code/project/user/src/isr.c:138
    }
}
    21c4:	0001                	nop
    21c6:	4476                	lw	s0,92(sp)
    21c8:	6036                	flw	ft0,76(sp)
    21ca:	60a6                	flw	ft1,72(sp)
    21cc:	6116                	flw	ft2,68(sp)
    21ce:	6186                	flw	ft3,64(sp)
    21d0:	7272                	flw	ft4,60(sp)
    21d2:	72e2                	flw	ft5,56(sp)
    21d4:	7352                	flw	ft6,52(sp)
    21d6:	73c2                	flw	ft7,48(sp)
    21d8:	7532                	flw	fa0,44(sp)
    21da:	75a2                	flw	fa1,40(sp)
    21dc:	7612                	flw	fa2,36(sp)
    21de:	7682                	flw	fa3,32(sp)
    21e0:	6772                	flw	fa4,28(sp)
    21e2:	67e2                	flw	fa5,24(sp)
    21e4:	6852                	flw	fa6,20(sp)
    21e6:	68c2                	flw	fa7,16(sp)
    21e8:	6e32                	flw	ft8,12(sp)
    21ea:	6ea2                	flw	ft9,8(sp)
    21ec:	6f12                	flw	ft10,4(sp)
    21ee:	6f82                	flw	ft11,0(sp)
    21f0:	6125                	addi	sp,sp,96
    21f2:	30200073          	mret

000021f6 <UART8_IRQHandler>:
UART8_IRQHandler():
C:/Users/86152/Desktop/单车越野/我的/代码调试/Bicycle_Code/project/user/src/isr.c:140
void UART8_IRQHandler (void)
{
    21f6:	711d                	addi	sp,sp,-96
    21f8:	cea2                	sw	s0,92(sp)
    21fa:	e682                	fsw	ft0,76(sp)
    21fc:	e486                	fsw	ft1,72(sp)
    21fe:	e28a                	fsw	ft2,68(sp)
    2200:	e08e                	fsw	ft3,64(sp)
    2202:	fe12                	fsw	ft4,60(sp)
    2204:	fc16                	fsw	ft5,56(sp)
    2206:	fa1a                	fsw	ft6,52(sp)
    2208:	f81e                	fsw	ft7,48(sp)
    220a:	f62a                	fsw	fa0,44(sp)
    220c:	f42e                	fsw	fa1,40(sp)
    220e:	f232                	fsw	fa2,36(sp)
    2210:	f036                	fsw	fa3,32(sp)
    2212:	ee3a                	fsw	fa4,28(sp)
    2214:	ec3e                	fsw	fa5,24(sp)
    2216:	ea42                	fsw	fa6,20(sp)
    2218:	e846                	fsw	fa7,16(sp)
    221a:	e672                	fsw	ft8,12(sp)
    221c:	e476                	fsw	ft9,8(sp)
    221e:	e27a                	fsw	ft10,4(sp)
    2220:	e07e                	fsw	ft11,0(sp)
    2222:	1080                	addi	s0,sp,96
C:/Users/86152/Desktop/单车越野/我的/代码调试/Bicycle_Code/project/user/src/isr.c:141
    if(USART_GetITStatus(UART8, USART_IT_RXNE) != RESET)
    2224:	52500593          	li	a1,1317
    2228:	40002537          	lui	a0,0x40002
    222c:	4f4010ef          	jal	ra,3720 <USART_GetITStatus>
    2230:	87aa                	mv	a5,a0
    2232:	cb89                	beqz	a5,2244 <UART8_IRQHandler+0x4e>
C:/Users/86152/Desktop/单车越野/我的/代码调试/Bicycle_Code/project/user/src/isr.c:143
    {
        gps_uart_callback();
    2234:	887fe0ef          	jal	ra,aba <gps_uart_callback>
C:/Users/86152/Desktop/单车越野/我的/代码调试/Bicycle_Code/project/user/src/isr.c:144
        USART_ClearITPendingBit(UART8, USART_IT_RXNE);
    2238:	52500593          	li	a1,1317
    223c:	40002537          	lui	a0,0x40002
    2240:	5e2010ef          	jal	ra,3822 <USART_ClearITPendingBit>
C:/Users/86152/Desktop/单车越野/我的/代码调试/Bicycle_Code/project/user/src/isr.c:147
    }

}
    2244:	0001                	nop
    2246:	4476                	lw	s0,92(sp)
    2248:	6036                	flw	ft0,76(sp)
    224a:	60a6                	flw	ft1,72(sp)
    224c:	6116                	flw	ft2,68(sp)
    224e:	6186                	flw	ft3,64(sp)
    2250:	7272                	flw	ft4,60(sp)
    2252:	72e2                	flw	ft5,56(sp)
    2254:	7352                	flw	ft6,52(sp)
    2256:	73c2                	flw	ft7,48(sp)
    2258:	7532                	flw	fa0,44(sp)
    225a:	75a2                	flw	fa1,40(sp)
    225c:	7612                	flw	fa2,36(sp)
    225e:	7682                	flw	fa3,32(sp)
    2260:	6772                	flw	fa4,28(sp)
    2262:	67e2                	flw	fa5,24(sp)
    2264:	6852                	flw	fa6,20(sp)
    2266:	68c2                	flw	fa7,16(sp)
    2268:	6e32                	flw	ft8,12(sp)
    226a:	6ea2                	flw	ft9,8(sp)
    226c:	6f12                	flw	ft10,4(sp)
    226e:	6f82                	flw	ft11,0(sp)
    2270:	6125                	addi	sp,sp,96
    2272:	30200073          	mret

00002276 <DVP_IRQHandler>:
DVP_IRQHandler():
C:/Users/86152/Desktop/单车越野/我的/代码调试/Bicycle_Code/project/user/src/isr.c:152



void DVP_IRQHandler(void)
{
    2276:	711d                	addi	sp,sp,-96
    2278:	cea2                	sw	s0,92(sp)
    227a:	e682                	fsw	ft0,76(sp)
    227c:	e486                	fsw	ft1,72(sp)
    227e:	e28a                	fsw	ft2,68(sp)
    2280:	e08e                	fsw	ft3,64(sp)
    2282:	fe12                	fsw	ft4,60(sp)
    2284:	fc16                	fsw	ft5,56(sp)
    2286:	fa1a                	fsw	ft6,52(sp)
    2288:	f81e                	fsw	ft7,48(sp)
    228a:	f62a                	fsw	fa0,44(sp)
    228c:	f42e                	fsw	fa1,40(sp)
    228e:	f232                	fsw	fa2,36(sp)
    2290:	f036                	fsw	fa3,32(sp)
    2292:	ee3a                	fsw	fa4,28(sp)
    2294:	ec3e                	fsw	fa5,24(sp)
    2296:	ea42                	fsw	fa6,20(sp)
    2298:	e846                	fsw	fa7,16(sp)
    229a:	e672                	fsw	ft8,12(sp)
    229c:	e476                	fsw	ft9,8(sp)
    229e:	e27a                	fsw	ft10,4(sp)
    22a0:	e07e                	fsw	ft11,0(sp)
    22a2:	1080                	addi	s0,sp,96
C:/Users/86152/Desktop/单车越野/我的/代码调试/Bicycle_Code/project/user/src/isr.c:153
    if (DVP->IFR & RB_DVP_IF_FRM_DONE)
    22a4:	500507b7          	lui	a5,0x50050
    22a8:	0107c783          	lbu	a5,16(a5) # 50050010 <_eusrstack+0x30040010>
    22ac:	0ff7f793          	andi	a5,a5,255
    22b0:	8b91                	andi	a5,a5,4
    22b2:	c39d                	beqz	a5,22d8 <DVP_IRQHandler+0x62>
C:/Users/86152/Desktop/单车越野/我的/代码调试/Bicycle_Code/project/user/src/isr.c:155
    {
        camera_dvp_handler();
    22b4:	200007b7          	lui	a5,0x20000
    22b8:	23c7a783          	lw	a5,572(a5) # 2000023c <camera_dvp_handler>
    22bc:	9782                	jalr	a5
C:/Users/86152/Desktop/单车越野/我的/代码调试/Bicycle_Code/project/user/src/isr.c:156
        DVP->IFR &= ~RB_DVP_IF_FRM_DONE;
    22be:	500507b7          	lui	a5,0x50050
    22c2:	0107c783          	lbu	a5,16(a5) # 50050010 <_eusrstack+0x30040010>
    22c6:	0ff7f713          	andi	a4,a5,255
    22ca:	500507b7          	lui	a5,0x50050
    22ce:	9b6d                	andi	a4,a4,-5
    22d0:	0ff77713          	andi	a4,a4,255
    22d4:	00e78823          	sb	a4,16(a5) # 50050010 <_eusrstack+0x30040010>
C:/Users/86152/Desktop/单车越野/我的/代码调试/Bicycle_Code/project/user/src/isr.c:158
    }
}
    22d8:	0001                	nop
    22da:	4476                	lw	s0,92(sp)
    22dc:	6036                	flw	ft0,76(sp)
    22de:	60a6                	flw	ft1,72(sp)
    22e0:	6116                	flw	ft2,68(sp)
    22e2:	6186                	flw	ft3,64(sp)
    22e4:	7272                	flw	ft4,60(sp)
    22e6:	72e2                	flw	ft5,56(sp)
    22e8:	7352                	flw	ft6,52(sp)
    22ea:	73c2                	flw	ft7,48(sp)
    22ec:	7532                	flw	fa0,44(sp)
    22ee:	75a2                	flw	fa1,40(sp)
    22f0:	7612                	flw	fa2,36(sp)
    22f2:	7682                	flw	fa3,32(sp)
    22f4:	6772                	flw	fa4,28(sp)
    22f6:	67e2                	flw	fa5,24(sp)
    22f8:	6852                	flw	fa6,20(sp)
    22fa:	68c2                	flw	fa7,16(sp)
    22fc:	6e32                	flw	ft8,12(sp)
    22fe:	6ea2                	flw	ft9,8(sp)
    2300:	6f12                	flw	ft10,4(sp)
    2302:	6f82                	flw	ft11,0(sp)
    2304:	6125                	addi	sp,sp,96
    2306:	30200073          	mret

0000230a <EXTI0_IRQHandler>:
EXTI0_IRQHandler():
C:/Users/86152/Desktop/单车越野/我的/代码调试/Bicycle_Code/project/user/src/isr.c:160
void EXTI0_IRQHandler(void)
{
    230a:	711d                	addi	sp,sp,-96
    230c:	cea2                	sw	s0,92(sp)
    230e:	e682                	fsw	ft0,76(sp)
    2310:	e486                	fsw	ft1,72(sp)
    2312:	e28a                	fsw	ft2,68(sp)
    2314:	e08e                	fsw	ft3,64(sp)
    2316:	fe12                	fsw	ft4,60(sp)
    2318:	fc16                	fsw	ft5,56(sp)
    231a:	fa1a                	fsw	ft6,52(sp)
    231c:	f81e                	fsw	ft7,48(sp)
    231e:	f62a                	fsw	fa0,44(sp)
    2320:	f42e                	fsw	fa1,40(sp)
    2322:	f232                	fsw	fa2,36(sp)
    2324:	f036                	fsw	fa3,32(sp)
    2326:	ee3a                	fsw	fa4,28(sp)
    2328:	ec3e                	fsw	fa5,24(sp)
    232a:	ea42                	fsw	fa6,20(sp)
    232c:	e846                	fsw	fa7,16(sp)
    232e:	e672                	fsw	ft8,12(sp)
    2330:	e476                	fsw	ft9,8(sp)
    2332:	e27a                	fsw	ft10,4(sp)
    2334:	e07e                	fsw	ft11,0(sp)
    2336:	1080                	addi	s0,sp,96
C:/Users/86152/Desktop/单车越野/我的/代码调试/Bicycle_Code/project/user/src/isr.c:161
    if(SET == EXTI_GetITStatus(EXTI_Line0))
    2338:	4505                	li	a0,1
    233a:	217000ef          	jal	ra,2d50 <EXTI_GetITStatus>
    233e:	872a                	mv	a4,a0
    2340:	4785                	li	a5,1
    2342:	00f71563          	bne	a4,a5,234c <EXTI0_IRQHandler+0x42>
C:/Users/86152/Desktop/单车越野/我的/代码调试/Bicycle_Code/project/user/src/isr.c:163
    {
        EXTI_ClearITPendingBit(EXTI_Line0);
    2346:	4505                	li	a0,1
    2348:	25f000ef          	jal	ra,2da6 <EXTI_ClearITPendingBit>
C:/Users/86152/Desktop/单车越野/我的/代码调试/Bicycle_Code/project/user/src/isr.c:166

    }
}
    234c:	0001                	nop
    234e:	4476                	lw	s0,92(sp)
    2350:	6036                	flw	ft0,76(sp)
    2352:	60a6                	flw	ft1,72(sp)
    2354:	6116                	flw	ft2,68(sp)
    2356:	6186                	flw	ft3,64(sp)
    2358:	7272                	flw	ft4,60(sp)
    235a:	72e2                	flw	ft5,56(sp)
    235c:	7352                	flw	ft6,52(sp)
    235e:	73c2                	flw	ft7,48(sp)
    2360:	7532                	flw	fa0,44(sp)
    2362:	75a2                	flw	fa1,40(sp)
    2364:	7612                	flw	fa2,36(sp)
    2366:	7682                	flw	fa3,32(sp)
    2368:	6772                	flw	fa4,28(sp)
    236a:	67e2                	flw	fa5,24(sp)
    236c:	6852                	flw	fa6,20(sp)
    236e:	68c2                	flw	fa7,16(sp)
    2370:	6e32                	flw	ft8,12(sp)
    2372:	6ea2                	flw	ft9,8(sp)
    2374:	6f12                	flw	ft10,4(sp)
    2376:	6f82                	flw	ft11,0(sp)
    2378:	6125                	addi	sp,sp,96
    237a:	30200073          	mret

0000237e <EXTI1_IRQHandler>:
EXTI1_IRQHandler():
C:/Users/86152/Desktop/单车越野/我的/代码调试/Bicycle_Code/project/user/src/isr.c:169

void EXTI1_IRQHandler(void)
{
    237e:	711d                	addi	sp,sp,-96
    2380:	cea2                	sw	s0,92(sp)
    2382:	e682                	fsw	ft0,76(sp)
    2384:	e486                	fsw	ft1,72(sp)
    2386:	e28a                	fsw	ft2,68(sp)
    2388:	e08e                	fsw	ft3,64(sp)
    238a:	fe12                	fsw	ft4,60(sp)
    238c:	fc16                	fsw	ft5,56(sp)
    238e:	fa1a                	fsw	ft6,52(sp)
    2390:	f81e                	fsw	ft7,48(sp)
    2392:	f62a                	fsw	fa0,44(sp)
    2394:	f42e                	fsw	fa1,40(sp)
    2396:	f232                	fsw	fa2,36(sp)
    2398:	f036                	fsw	fa3,32(sp)
    239a:	ee3a                	fsw	fa4,28(sp)
    239c:	ec3e                	fsw	fa5,24(sp)
    239e:	ea42                	fsw	fa6,20(sp)
    23a0:	e846                	fsw	fa7,16(sp)
    23a2:	e672                	fsw	ft8,12(sp)
    23a4:	e476                	fsw	ft9,8(sp)
    23a6:	e27a                	fsw	ft10,4(sp)
    23a8:	e07e                	fsw	ft11,0(sp)
    23aa:	1080                	addi	s0,sp,96
C:/Users/86152/Desktop/单车越野/我的/代码调试/Bicycle_Code/project/user/src/isr.c:170
    if(SET == EXTI_GetITStatus(EXTI_Line1))
    23ac:	4509                	li	a0,2
    23ae:	1a3000ef          	jal	ra,2d50 <EXTI_GetITStatus>
    23b2:	872a                	mv	a4,a0
    23b4:	4785                	li	a5,1
    23b6:	00f71563          	bne	a4,a5,23c0 <EXTI1_IRQHandler+0x42>
C:/Users/86152/Desktop/单车越野/我的/代码调试/Bicycle_Code/project/user/src/isr.c:172
    {
        EXTI_ClearITPendingBit(EXTI_Line1);
    23ba:	4509                	li	a0,2
    23bc:	1eb000ef          	jal	ra,2da6 <EXTI_ClearITPendingBit>
C:/Users/86152/Desktop/单车越野/我的/代码调试/Bicycle_Code/project/user/src/isr.c:175

    }
}
    23c0:	0001                	nop
    23c2:	4476                	lw	s0,92(sp)
    23c4:	6036                	flw	ft0,76(sp)
    23c6:	60a6                	flw	ft1,72(sp)
    23c8:	6116                	flw	ft2,68(sp)
    23ca:	6186                	flw	ft3,64(sp)
    23cc:	7272                	flw	ft4,60(sp)
    23ce:	72e2                	flw	ft5,56(sp)
    23d0:	7352                	flw	ft6,52(sp)
    23d2:	73c2                	flw	ft7,48(sp)
    23d4:	7532                	flw	fa0,44(sp)
    23d6:	75a2                	flw	fa1,40(sp)
    23d8:	7612                	flw	fa2,36(sp)
    23da:	7682                	flw	fa3,32(sp)
    23dc:	6772                	flw	fa4,28(sp)
    23de:	67e2                	flw	fa5,24(sp)
    23e0:	6852                	flw	fa6,20(sp)
    23e2:	68c2                	flw	fa7,16(sp)
    23e4:	6e32                	flw	ft8,12(sp)
    23e6:	6ea2                	flw	ft9,8(sp)
    23e8:	6f12                	flw	ft10,4(sp)
    23ea:	6f82                	flw	ft11,0(sp)
    23ec:	6125                	addi	sp,sp,96
    23ee:	30200073          	mret

000023f2 <EXTI2_IRQHandler>:
EXTI2_IRQHandler():
C:/Users/86152/Desktop/单车越野/我的/代码调试/Bicycle_Code/project/user/src/isr.c:178

void EXTI2_IRQHandler(void)
{
    23f2:	711d                	addi	sp,sp,-96
    23f4:	cea2                	sw	s0,92(sp)
    23f6:	e682                	fsw	ft0,76(sp)
    23f8:	e486                	fsw	ft1,72(sp)
    23fa:	e28a                	fsw	ft2,68(sp)
    23fc:	e08e                	fsw	ft3,64(sp)
    23fe:	fe12                	fsw	ft4,60(sp)
    2400:	fc16                	fsw	ft5,56(sp)
    2402:	fa1a                	fsw	ft6,52(sp)
    2404:	f81e                	fsw	ft7,48(sp)
    2406:	f62a                	fsw	fa0,44(sp)
    2408:	f42e                	fsw	fa1,40(sp)
    240a:	f232                	fsw	fa2,36(sp)
    240c:	f036                	fsw	fa3,32(sp)
    240e:	ee3a                	fsw	fa4,28(sp)
    2410:	ec3e                	fsw	fa5,24(sp)
    2412:	ea42                	fsw	fa6,20(sp)
    2414:	e846                	fsw	fa7,16(sp)
    2416:	e672                	fsw	ft8,12(sp)
    2418:	e476                	fsw	ft9,8(sp)
    241a:	e27a                	fsw	ft10,4(sp)
    241c:	e07e                	fsw	ft11,0(sp)
    241e:	1080                	addi	s0,sp,96
C:/Users/86152/Desktop/单车越野/我的/代码调试/Bicycle_Code/project/user/src/isr.c:179
    if(SET == EXTI_GetITStatus(EXTI_Line2))
    2420:	4511                	li	a0,4
    2422:	12f000ef          	jal	ra,2d50 <EXTI_GetITStatus>
    2426:	872a                	mv	a4,a0
    2428:	4785                	li	a5,1
    242a:	00f71563          	bne	a4,a5,2434 <EXTI2_IRQHandler+0x42>
C:/Users/86152/Desktop/单车越野/我的/代码调试/Bicycle_Code/project/user/src/isr.c:181
    {
        EXTI_ClearITPendingBit(EXTI_Line2);
    242e:	4511                	li	a0,4
    2430:	177000ef          	jal	ra,2da6 <EXTI_ClearITPendingBit>
C:/Users/86152/Desktop/单车越野/我的/代码调试/Bicycle_Code/project/user/src/isr.c:184

    }
}
    2434:	0001                	nop
    2436:	4476                	lw	s0,92(sp)
    2438:	6036                	flw	ft0,76(sp)
    243a:	60a6                	flw	ft1,72(sp)
    243c:	6116                	flw	ft2,68(sp)
    243e:	6186                	flw	ft3,64(sp)
    2440:	7272                	flw	ft4,60(sp)
    2442:	72e2                	flw	ft5,56(sp)
    2444:	7352                	flw	ft6,52(sp)
    2446:	73c2                	flw	ft7,48(sp)
    2448:	7532                	flw	fa0,44(sp)
    244a:	75a2                	flw	fa1,40(sp)
    244c:	7612                	flw	fa2,36(sp)
    244e:	7682                	flw	fa3,32(sp)
    2450:	6772                	flw	fa4,28(sp)
    2452:	67e2                	flw	fa5,24(sp)
    2454:	6852                	flw	fa6,20(sp)
    2456:	68c2                	flw	fa7,16(sp)
    2458:	6e32                	flw	ft8,12(sp)
    245a:	6ea2                	flw	ft9,8(sp)
    245c:	6f12                	flw	ft10,4(sp)
    245e:	6f82                	flw	ft11,0(sp)
    2460:	6125                	addi	sp,sp,96
    2462:	30200073          	mret

00002466 <EXTI3_IRQHandler>:
EXTI3_IRQHandler():
C:/Users/86152/Desktop/单车越野/我的/代码调试/Bicycle_Code/project/user/src/isr.c:187

void EXTI3_IRQHandler(void)
{
    2466:	711d                	addi	sp,sp,-96
    2468:	cea2                	sw	s0,92(sp)
    246a:	e682                	fsw	ft0,76(sp)
    246c:	e486                	fsw	ft1,72(sp)
    246e:	e28a                	fsw	ft2,68(sp)
    2470:	e08e                	fsw	ft3,64(sp)
    2472:	fe12                	fsw	ft4,60(sp)
    2474:	fc16                	fsw	ft5,56(sp)
    2476:	fa1a                	fsw	ft6,52(sp)
    2478:	f81e                	fsw	ft7,48(sp)
    247a:	f62a                	fsw	fa0,44(sp)
    247c:	f42e                	fsw	fa1,40(sp)
    247e:	f232                	fsw	fa2,36(sp)
    2480:	f036                	fsw	fa3,32(sp)
    2482:	ee3a                	fsw	fa4,28(sp)
    2484:	ec3e                	fsw	fa5,24(sp)
    2486:	ea42                	fsw	fa6,20(sp)
    2488:	e846                	fsw	fa7,16(sp)
    248a:	e672                	fsw	ft8,12(sp)
    248c:	e476                	fsw	ft9,8(sp)
    248e:	e27a                	fsw	ft10,4(sp)
    2490:	e07e                	fsw	ft11,0(sp)
    2492:	1080                	addi	s0,sp,96
C:/Users/86152/Desktop/单车越野/我的/代码调试/Bicycle_Code/project/user/src/isr.c:188
    if(SET == EXTI_GetITStatus(EXTI_Line3))
    2494:	4521                	li	a0,8
    2496:	0bb000ef          	jal	ra,2d50 <EXTI_GetITStatus>
    249a:	872a                	mv	a4,a0
    249c:	4785                	li	a5,1
    249e:	00f71563          	bne	a4,a5,24a8 <EXTI3_IRQHandler+0x42>
C:/Users/86152/Desktop/单车越野/我的/代码调试/Bicycle_Code/project/user/src/isr.c:190
    {
        EXTI_ClearITPendingBit(EXTI_Line3);
    24a2:	4521                	li	a0,8
    24a4:	103000ef          	jal	ra,2da6 <EXTI_ClearITPendingBit>
C:/Users/86152/Desktop/单车越野/我的/代码调试/Bicycle_Code/project/user/src/isr.c:193

    }
}
    24a8:	0001                	nop
    24aa:	4476                	lw	s0,92(sp)
    24ac:	6036                	flw	ft0,76(sp)
    24ae:	60a6                	flw	ft1,72(sp)
    24b0:	6116                	flw	ft2,68(sp)
    24b2:	6186                	flw	ft3,64(sp)
    24b4:	7272                	flw	ft4,60(sp)
    24b6:	72e2                	flw	ft5,56(sp)
    24b8:	7352                	flw	ft6,52(sp)
    24ba:	73c2                	flw	ft7,48(sp)
    24bc:	7532                	flw	fa0,44(sp)
    24be:	75a2                	flw	fa1,40(sp)
    24c0:	7612                	flw	fa2,36(sp)
    24c2:	7682                	flw	fa3,32(sp)
    24c4:	6772                	flw	fa4,28(sp)
    24c6:	67e2                	flw	fa5,24(sp)
    24c8:	6852                	flw	fa6,20(sp)
    24ca:	68c2                	flw	fa7,16(sp)
    24cc:	6e32                	flw	ft8,12(sp)
    24ce:	6ea2                	flw	ft9,8(sp)
    24d0:	6f12                	flw	ft10,4(sp)
    24d2:	6f82                	flw	ft11,0(sp)
    24d4:	6125                	addi	sp,sp,96
    24d6:	30200073          	mret

000024da <EXTI4_IRQHandler>:
EXTI4_IRQHandler():
C:/Users/86152/Desktop/单车越野/我的/代码调试/Bicycle_Code/project/user/src/isr.c:196

void EXTI4_IRQHandler(void)
{
    24da:	711d                	addi	sp,sp,-96
    24dc:	cea2                	sw	s0,92(sp)
    24de:	e682                	fsw	ft0,76(sp)
    24e0:	e486                	fsw	ft1,72(sp)
    24e2:	e28a                	fsw	ft2,68(sp)
    24e4:	e08e                	fsw	ft3,64(sp)
    24e6:	fe12                	fsw	ft4,60(sp)
    24e8:	fc16                	fsw	ft5,56(sp)
    24ea:	fa1a                	fsw	ft6,52(sp)
    24ec:	f81e                	fsw	ft7,48(sp)
    24ee:	f62a                	fsw	fa0,44(sp)
    24f0:	f42e                	fsw	fa1,40(sp)
    24f2:	f232                	fsw	fa2,36(sp)
    24f4:	f036                	fsw	fa3,32(sp)
    24f6:	ee3a                	fsw	fa4,28(sp)
    24f8:	ec3e                	fsw	fa5,24(sp)
    24fa:	ea42                	fsw	fa6,20(sp)
    24fc:	e846                	fsw	fa7,16(sp)
    24fe:	e672                	fsw	ft8,12(sp)
    2500:	e476                	fsw	ft9,8(sp)
    2502:	e27a                	fsw	ft10,4(sp)
    2504:	e07e                	fsw	ft11,0(sp)
    2506:	1080                	addi	s0,sp,96
C:/Users/86152/Desktop/单车越野/我的/代码调试/Bicycle_Code/project/user/src/isr.c:197
    if(SET == EXTI_GetITStatus(EXTI_Line4))
    2508:	4541                	li	a0,16
    250a:	047000ef          	jal	ra,2d50 <EXTI_GetITStatus>
    250e:	872a                	mv	a4,a0
    2510:	4785                	li	a5,1
    2512:	00f71563          	bne	a4,a5,251c <EXTI4_IRQHandler+0x42>
C:/Users/86152/Desktop/单车越野/我的/代码调试/Bicycle_Code/project/user/src/isr.c:199
    {
        EXTI_ClearITPendingBit(EXTI_Line4);
    2516:	4541                	li	a0,16
    2518:	08f000ef          	jal	ra,2da6 <EXTI_ClearITPendingBit>
C:/Users/86152/Desktop/单车越野/我的/代码调试/Bicycle_Code/project/user/src/isr.c:202

    }
}
    251c:	0001                	nop
    251e:	4476                	lw	s0,92(sp)
    2520:	6036                	flw	ft0,76(sp)
    2522:	60a6                	flw	ft1,72(sp)
    2524:	6116                	flw	ft2,68(sp)
    2526:	6186                	flw	ft3,64(sp)
    2528:	7272                	flw	ft4,60(sp)
    252a:	72e2                	flw	ft5,56(sp)
    252c:	7352                	flw	ft6,52(sp)
    252e:	73c2                	flw	ft7,48(sp)
    2530:	7532                	flw	fa0,44(sp)
    2532:	75a2                	flw	fa1,40(sp)
    2534:	7612                	flw	fa2,36(sp)
    2536:	7682                	flw	fa3,32(sp)
    2538:	6772                	flw	fa4,28(sp)
    253a:	67e2                	flw	fa5,24(sp)
    253c:	6852                	flw	fa6,20(sp)
    253e:	68c2                	flw	fa7,16(sp)
    2540:	6e32                	flw	ft8,12(sp)
    2542:	6ea2                	flw	ft9,8(sp)
    2544:	6f12                	flw	ft10,4(sp)
    2546:	6f82                	flw	ft11,0(sp)
    2548:	6125                	addi	sp,sp,96
    254a:	30200073          	mret

0000254e <EXTI9_5_IRQHandler>:
EXTI9_5_IRQHandler():
C:/Users/86152/Desktop/单车越野/我的/代码调试/Bicycle_Code/project/user/src/isr.c:206


void EXTI9_5_IRQHandler(void)
{
    254e:	711d                	addi	sp,sp,-96
    2550:	cea2                	sw	s0,92(sp)
    2552:	e682                	fsw	ft0,76(sp)
    2554:	e486                	fsw	ft1,72(sp)
    2556:	e28a                	fsw	ft2,68(sp)
    2558:	e08e                	fsw	ft3,64(sp)
    255a:	fe12                	fsw	ft4,60(sp)
    255c:	fc16                	fsw	ft5,56(sp)
    255e:	fa1a                	fsw	ft6,52(sp)
    2560:	f81e                	fsw	ft7,48(sp)
    2562:	f62a                	fsw	fa0,44(sp)
    2564:	f42e                	fsw	fa1,40(sp)
    2566:	f232                	fsw	fa2,36(sp)
    2568:	f036                	fsw	fa3,32(sp)
    256a:	ee3a                	fsw	fa4,28(sp)
    256c:	ec3e                	fsw	fa5,24(sp)
    256e:	ea42                	fsw	fa6,20(sp)
    2570:	e846                	fsw	fa7,16(sp)
    2572:	e672                	fsw	ft8,12(sp)
    2574:	e476                	fsw	ft9,8(sp)
    2576:	e27a                	fsw	ft10,4(sp)
    2578:	e07e                	fsw	ft11,0(sp)
    257a:	1080                	addi	s0,sp,96
C:/Users/86152/Desktop/单车越野/我的/代码调试/Bicycle_Code/project/user/src/isr.c:207
    if(SET == EXTI_GetITStatus(EXTI_Line5))
    257c:	02000513          	li	a0,32
    2580:	7d0000ef          	jal	ra,2d50 <EXTI_GetITStatus>
    2584:	872a                	mv	a4,a0
    2586:	4785                	li	a5,1
    2588:	00f71663          	bne	a4,a5,2594 <EXTI9_5_IRQHandler+0x46>
C:/Users/86152/Desktop/单车越野/我的/代码调试/Bicycle_Code/project/user/src/isr.c:209
    {
        EXTI_ClearITPendingBit(EXTI_Line5);
    258c:	02000513          	li	a0,32
    2590:	017000ef          	jal	ra,2da6 <EXTI_ClearITPendingBit>
C:/Users/86152/Desktop/单车越野/我的/代码调试/Bicycle_Code/project/user/src/isr.c:212

    }
    if(SET == EXTI_GetITStatus(EXTI_Line6))
    2594:	04000513          	li	a0,64
    2598:	7b8000ef          	jal	ra,2d50 <EXTI_GetITStatus>
    259c:	872a                	mv	a4,a0
    259e:	4785                	li	a5,1
    25a0:	00f71663          	bne	a4,a5,25ac <EXTI9_5_IRQHandler+0x5e>
C:/Users/86152/Desktop/单车越野/我的/代码调试/Bicycle_Code/project/user/src/isr.c:214
    {
        EXTI_ClearITPendingBit(EXTI_Line6);
    25a4:	04000513          	li	a0,64
    25a8:	7fe000ef          	jal	ra,2da6 <EXTI_ClearITPendingBit>
C:/Users/86152/Desktop/单车越野/我的/代码调试/Bicycle_Code/project/user/src/isr.c:217

    }
    if(SET == EXTI_GetITStatus(EXTI_Line7))
    25ac:	08000513          	li	a0,128
    25b0:	7a0000ef          	jal	ra,2d50 <EXTI_GetITStatus>
    25b4:	872a                	mv	a4,a0
    25b6:	4785                	li	a5,1
    25b8:	00f71663          	bne	a4,a5,25c4 <EXTI9_5_IRQHandler+0x76>
C:/Users/86152/Desktop/单车越野/我的/代码调试/Bicycle_Code/project/user/src/isr.c:219
    {
        EXTI_ClearITPendingBit(EXTI_Line7);
    25bc:	08000513          	li	a0,128
    25c0:	7e6000ef          	jal	ra,2da6 <EXTI_ClearITPendingBit>
C:/Users/86152/Desktop/单车越野/我的/代码调试/Bicycle_Code/project/user/src/isr.c:222

    }
    if(SET == EXTI_GetITStatus(EXTI_Line8))
    25c4:	10000513          	li	a0,256
    25c8:	788000ef          	jal	ra,2d50 <EXTI_GetITStatus>
    25cc:	872a                	mv	a4,a0
    25ce:	4785                	li	a5,1
    25d0:	00f71663          	bne	a4,a5,25dc <EXTI9_5_IRQHandler+0x8e>
C:/Users/86152/Desktop/单车越野/我的/代码调试/Bicycle_Code/project/user/src/isr.c:224
    {
        EXTI_ClearITPendingBit(EXTI_Line8);
    25d4:	10000513          	li	a0,256
    25d8:	7ce000ef          	jal	ra,2da6 <EXTI_ClearITPendingBit>
C:/Users/86152/Desktop/单车越野/我的/代码调试/Bicycle_Code/project/user/src/isr.c:227

    }
    if(SET == EXTI_GetITStatus(EXTI_Line9))
    25dc:	20000513          	li	a0,512
    25e0:	770000ef          	jal	ra,2d50 <EXTI_GetITStatus>
    25e4:	872a                	mv	a4,a0
    25e6:	4785                	li	a5,1
    25e8:	00f71663          	bne	a4,a5,25f4 <EXTI9_5_IRQHandler+0xa6>
C:/Users/86152/Desktop/单车越野/我的/代码调试/Bicycle_Code/project/user/src/isr.c:229
    {
        EXTI_ClearITPendingBit(EXTI_Line9);
    25ec:	20000513          	li	a0,512
    25f0:	7b6000ef          	jal	ra,2da6 <EXTI_ClearITPendingBit>
C:/Users/86152/Desktop/单车越野/我的/代码调试/Bicycle_Code/project/user/src/isr.c:233

    }

}
    25f4:	0001                	nop
    25f6:	4476                	lw	s0,92(sp)
    25f8:	6036                	flw	ft0,76(sp)
    25fa:	60a6                	flw	ft1,72(sp)
    25fc:	6116                	flw	ft2,68(sp)
    25fe:	6186                	flw	ft3,64(sp)
    2600:	7272                	flw	ft4,60(sp)
    2602:	72e2                	flw	ft5,56(sp)
    2604:	7352                	flw	ft6,52(sp)
    2606:	73c2                	flw	ft7,48(sp)
    2608:	7532                	flw	fa0,44(sp)
    260a:	75a2                	flw	fa1,40(sp)
    260c:	7612                	flw	fa2,36(sp)
    260e:	7682                	flw	fa3,32(sp)
    2610:	6772                	flw	fa4,28(sp)
    2612:	67e2                	flw	fa5,24(sp)
    2614:	6852                	flw	fa6,20(sp)
    2616:	68c2                	flw	fa7,16(sp)
    2618:	6e32                	flw	ft8,12(sp)
    261a:	6ea2                	flw	ft9,8(sp)
    261c:	6f12                	flw	ft10,4(sp)
    261e:	6f82                	flw	ft11,0(sp)
    2620:	6125                	addi	sp,sp,96
    2622:	30200073          	mret

00002626 <EXTI15_10_IRQHandler>:
EXTI15_10_IRQHandler():
C:/Users/86152/Desktop/单车越野/我的/代码调试/Bicycle_Code/project/user/src/isr.c:236

void EXTI15_10_IRQHandler(void)
{
    2626:	711d                	addi	sp,sp,-96
    2628:	cea2                	sw	s0,92(sp)
    262a:	e682                	fsw	ft0,76(sp)
    262c:	e486                	fsw	ft1,72(sp)
    262e:	e28a                	fsw	ft2,68(sp)
    2630:	e08e                	fsw	ft3,64(sp)
    2632:	fe12                	fsw	ft4,60(sp)
    2634:	fc16                	fsw	ft5,56(sp)
    2636:	fa1a                	fsw	ft6,52(sp)
    2638:	f81e                	fsw	ft7,48(sp)
    263a:	f62a                	fsw	fa0,44(sp)
    263c:	f42e                	fsw	fa1,40(sp)
    263e:	f232                	fsw	fa2,36(sp)
    2640:	f036                	fsw	fa3,32(sp)
    2642:	ee3a                	fsw	fa4,28(sp)
    2644:	ec3e                	fsw	fa5,24(sp)
    2646:	ea42                	fsw	fa6,20(sp)
    2648:	e846                	fsw	fa7,16(sp)
    264a:	e672                	fsw	ft8,12(sp)
    264c:	e476                	fsw	ft9,8(sp)
    264e:	e27a                	fsw	ft10,4(sp)
    2650:	e07e                	fsw	ft11,0(sp)
    2652:	1080                	addi	s0,sp,96
C:/Users/86152/Desktop/单车越野/我的/代码调试/Bicycle_Code/project/user/src/isr.c:237
    if(SET == EXTI_GetITStatus(EXTI_Line10))
    2654:	40000513          	li	a0,1024
    2658:	2de5                	jal	2d50 <EXTI_GetITStatus>
    265a:	872a                	mv	a4,a0
    265c:	4785                	li	a5,1
    265e:	00f71563          	bne	a4,a5,2668 <EXTI15_10_IRQHandler+0x42>
C:/Users/86152/Desktop/单车越野/我的/代码调试/Bicycle_Code/project/user/src/isr.c:239
    {
        EXTI_ClearITPendingBit(EXTI_Line10);
    2662:	40000513          	li	a0,1024
    2666:	2781                	jal	2da6 <EXTI_ClearITPendingBit>
C:/Users/86152/Desktop/单车越野/我的/代码调试/Bicycle_Code/project/user/src/isr.c:242

    }
    if(SET == EXTI_GetITStatus(EXTI_Line11))
    2668:	6785                	lui	a5,0x1
    266a:	80078513          	addi	a0,a5,-2048 # 800 <__stack_size>
    266e:	25cd                	jal	2d50 <EXTI_GetITStatus>
    2670:	872a                	mv	a4,a0
    2672:	4785                	li	a5,1
    2674:	00f71663          	bne	a4,a5,2680 <EXTI15_10_IRQHandler+0x5a>
C:/Users/86152/Desktop/单车越野/我的/代码调试/Bicycle_Code/project/user/src/isr.c:244
    {
        EXTI_ClearITPendingBit(EXTI_Line11);
    2678:	6785                	lui	a5,0x1
    267a:	80078513          	addi	a0,a5,-2048 # 800 <__stack_size>
    267e:	2725                	jal	2da6 <EXTI_ClearITPendingBit>
C:/Users/86152/Desktop/单车越野/我的/代码调试/Bicycle_Code/project/user/src/isr.c:247

    }
    if(SET == EXTI_GetITStatus(EXTI_Line12))
    2680:	6505                	lui	a0,0x1
    2682:	25f9                	jal	2d50 <EXTI_GetITStatus>
    2684:	872a                	mv	a4,a0
    2686:	4785                	li	a5,1
    2688:	00f71463          	bne	a4,a5,2690 <EXTI15_10_IRQHandler+0x6a>
C:/Users/86152/Desktop/单车越野/我的/代码调试/Bicycle_Code/project/user/src/isr.c:249
    {
        EXTI_ClearITPendingBit(EXTI_Line12);
    268c:	6505                	lui	a0,0x1
    268e:	2f21                	jal	2da6 <EXTI_ClearITPendingBit>
C:/Users/86152/Desktop/单车越野/我的/代码调试/Bicycle_Code/project/user/src/isr.c:252

    }
    if(SET == EXTI_GetITStatus(EXTI_Line13))
    2690:	6509                	lui	a0,0x2
    2692:	2d7d                	jal	2d50 <EXTI_GetITStatus>
    2694:	872a                	mv	a4,a0
    2696:	4785                	li	a5,1
    2698:	00f71463          	bne	a4,a5,26a0 <EXTI15_10_IRQHandler+0x7a>
C:/Users/86152/Desktop/单车越野/我的/代码调试/Bicycle_Code/project/user/src/isr.c:254
    {
        EXTI_ClearITPendingBit(EXTI_Line13);
    269c:	6509                	lui	a0,0x2
    269e:	2721                	jal	2da6 <EXTI_ClearITPendingBit>
C:/Users/86152/Desktop/单车越野/我的/代码调试/Bicycle_Code/project/user/src/isr.c:257

    }
    if(SET == EXTI_GetITStatus(EXTI_Line14))
    26a0:	6511                	lui	a0,0x4
    26a2:	257d                	jal	2d50 <EXTI_GetITStatus>
    26a4:	872a                	mv	a4,a0
    26a6:	4785                	li	a5,1
    26a8:	00f71463          	bne	a4,a5,26b0 <EXTI15_10_IRQHandler+0x8a>
C:/Users/86152/Desktop/单车越野/我的/代码调试/Bicycle_Code/project/user/src/isr.c:259
    {
        EXTI_ClearITPendingBit(EXTI_Line14);
    26ac:	6511                	lui	a0,0x4
    26ae:	2de5                	jal	2da6 <EXTI_ClearITPendingBit>
C:/Users/86152/Desktop/单车越野/我的/代码调试/Bicycle_Code/project/user/src/isr.c:262

    }
    if(SET == EXTI_GetITStatus(EXTI_Line15))
    26b0:	6521                	lui	a0,0x8
    26b2:	2d79                	jal	2d50 <EXTI_GetITStatus>
    26b4:	872a                	mv	a4,a0
    26b6:	4785                	li	a5,1
    26b8:	00f71463          	bne	a4,a5,26c0 <EXTI15_10_IRQHandler+0x9a>
C:/Users/86152/Desktop/单车越野/我的/代码调试/Bicycle_Code/project/user/src/isr.c:264
    {
        EXTI_ClearITPendingBit(EXTI_Line15);
    26bc:	6521                	lui	a0,0x8
    26be:	25e5                	jal	2da6 <EXTI_ClearITPendingBit>
C:/Users/86152/Desktop/单车越野/我的/代码调试/Bicycle_Code/project/user/src/isr.c:267

    }
}
    26c0:	0001                	nop
    26c2:	4476                	lw	s0,92(sp)
    26c4:	6036                	flw	ft0,76(sp)
    26c6:	60a6                	flw	ft1,72(sp)
    26c8:	6116                	flw	ft2,68(sp)
    26ca:	6186                	flw	ft3,64(sp)
    26cc:	7272                	flw	ft4,60(sp)
    26ce:	72e2                	flw	ft5,56(sp)
    26d0:	7352                	flw	ft6,52(sp)
    26d2:	73c2                	flw	ft7,48(sp)
    26d4:	7532                	flw	fa0,44(sp)
    26d6:	75a2                	flw	fa1,40(sp)
    26d8:	7612                	flw	fa2,36(sp)
    26da:	7682                	flw	fa3,32(sp)
    26dc:	6772                	flw	fa4,28(sp)
    26de:	67e2                	flw	fa5,24(sp)
    26e0:	6852                	flw	fa6,20(sp)
    26e2:	68c2                	flw	fa7,16(sp)
    26e4:	6e32                	flw	ft8,12(sp)
    26e6:	6ea2                	flw	ft9,8(sp)
    26e8:	6f12                	flw	ft10,4(sp)
    26ea:	6f82                	flw	ft11,0(sp)
    26ec:	6125                	addi	sp,sp,96
    26ee:	30200073          	mret

000026f2 <TIM1_UP_IRQHandler>:
TIM1_UP_IRQHandler():
C:/Users/86152/Desktop/单车越野/我的/代码调试/Bicycle_Code/project/user/src/isr.c:270

void TIM1_UP_IRQHandler(void)
{
    26f2:	711d                	addi	sp,sp,-96
    26f4:	cea2                	sw	s0,92(sp)
    26f6:	e682                	fsw	ft0,76(sp)
    26f8:	e486                	fsw	ft1,72(sp)
    26fa:	e28a                	fsw	ft2,68(sp)
    26fc:	e08e                	fsw	ft3,64(sp)
    26fe:	fe12                	fsw	ft4,60(sp)
    2700:	fc16                	fsw	ft5,56(sp)
    2702:	fa1a                	fsw	ft6,52(sp)
    2704:	f81e                	fsw	ft7,48(sp)
    2706:	f62a                	fsw	fa0,44(sp)
    2708:	f42e                	fsw	fa1,40(sp)
    270a:	f232                	fsw	fa2,36(sp)
    270c:	f036                	fsw	fa3,32(sp)
    270e:	ee3a                	fsw	fa4,28(sp)
    2710:	ec3e                	fsw	fa5,24(sp)
    2712:	ea42                	fsw	fa6,20(sp)
    2714:	e846                	fsw	fa7,16(sp)
    2716:	e672                	fsw	ft8,12(sp)
    2718:	e476                	fsw	ft9,8(sp)
    271a:	e27a                	fsw	ft10,4(sp)
    271c:	e07e                	fsw	ft11,0(sp)
    271e:	1080                	addi	s0,sp,96
C:/Users/86152/Desktop/单车越野/我的/代码调试/Bicycle_Code/project/user/src/isr.c:271
    if(TIM_GetITStatus(TIM1, TIM_IT_Update) != RESET)
    2720:	4585                	li	a1,1
    2722:	400137b7          	lui	a5,0x40013
    2726:	c0078513          	addi	a0,a5,-1024 # 40012c00 <_eusrstack+0x20002c00>
    272a:	451000ef          	jal	ra,337a <TIM_GetITStatus>
    272e:	87aa                	mv	a5,a0
    2730:	cb81                	beqz	a5,2740 <TIM1_UP_IRQHandler+0x4e>
C:/Users/86152/Desktop/单车越野/我的/代码调试/Bicycle_Code/project/user/src/isr.c:273
    {
        TIM_ClearITPendingBit(TIM1, TIM_IT_Update);
    2732:	4585                	li	a1,1
    2734:	400137b7          	lui	a5,0x40013
    2738:	c0078513          	addi	a0,a5,-1024 # 40012c00 <_eusrstack+0x20002c00>
    273c:	4af000ef          	jal	ra,33ea <TIM_ClearITPendingBit>
C:/Users/86152/Desktop/单车越野/我的/代码调试/Bicycle_Code/project/user/src/isr.c:276

    }
}
    2740:	0001                	nop
    2742:	4476                	lw	s0,92(sp)
    2744:	6036                	flw	ft0,76(sp)
    2746:	60a6                	flw	ft1,72(sp)
    2748:	6116                	flw	ft2,68(sp)
    274a:	6186                	flw	ft3,64(sp)
    274c:	7272                	flw	ft4,60(sp)
    274e:	72e2                	flw	ft5,56(sp)
    2750:	7352                	flw	ft6,52(sp)
    2752:	73c2                	flw	ft7,48(sp)
    2754:	7532                	flw	fa0,44(sp)
    2756:	75a2                	flw	fa1,40(sp)
    2758:	7612                	flw	fa2,36(sp)
    275a:	7682                	flw	fa3,32(sp)
    275c:	6772                	flw	fa4,28(sp)
    275e:	67e2                	flw	fa5,24(sp)
    2760:	6852                	flw	fa6,20(sp)
    2762:	68c2                	flw	fa7,16(sp)
    2764:	6e32                	flw	ft8,12(sp)
    2766:	6ea2                	flw	ft9,8(sp)
    2768:	6f12                	flw	ft10,4(sp)
    276a:	6f82                	flw	ft11,0(sp)
    276c:	6125                	addi	sp,sp,96
    276e:	30200073          	mret

00002772 <TIM2_IRQHandler>:
TIM2_IRQHandler():
C:/Users/86152/Desktop/单车越野/我的/代码调试/Bicycle_Code/project/user/src/isr.c:280


void TIM2_IRQHandler(void)
{
    2772:	711d                	addi	sp,sp,-96
    2774:	cea2                	sw	s0,92(sp)
    2776:	e682                	fsw	ft0,76(sp)
    2778:	e486                	fsw	ft1,72(sp)
    277a:	e28a                	fsw	ft2,68(sp)
    277c:	e08e                	fsw	ft3,64(sp)
    277e:	fe12                	fsw	ft4,60(sp)
    2780:	fc16                	fsw	ft5,56(sp)
    2782:	fa1a                	fsw	ft6,52(sp)
    2784:	f81e                	fsw	ft7,48(sp)
    2786:	f62a                	fsw	fa0,44(sp)
    2788:	f42e                	fsw	fa1,40(sp)
    278a:	f232                	fsw	fa2,36(sp)
    278c:	f036                	fsw	fa3,32(sp)
    278e:	ee3a                	fsw	fa4,28(sp)
    2790:	ec3e                	fsw	fa5,24(sp)
    2792:	ea42                	fsw	fa6,20(sp)
    2794:	e846                	fsw	fa7,16(sp)
    2796:	e672                	fsw	ft8,12(sp)
    2798:	e476                	fsw	ft9,8(sp)
    279a:	e27a                	fsw	ft10,4(sp)
    279c:	e07e                	fsw	ft11,0(sp)
    279e:	1080                	addi	s0,sp,96
C:/Users/86152/Desktop/单车越野/我的/代码调试/Bicycle_Code/project/user/src/isr.c:281
    if(TIM_GetITStatus(TIM2, TIM_IT_Update) != RESET)
    27a0:	4585                	li	a1,1
    27a2:	40000537          	lui	a0,0x40000
    27a6:	3d5000ef          	jal	ra,337a <TIM_GetITStatus>
    27aa:	87aa                	mv	a5,a0
    27ac:	c791                	beqz	a5,27b8 <TIM2_IRQHandler+0x46>
C:/Users/86152/Desktop/单车越野/我的/代码调试/Bicycle_Code/project/user/src/isr.c:283
    {
       TIM_ClearITPendingBit(TIM2, TIM_IT_Update );
    27ae:	4585                	li	a1,1
    27b0:	40000537          	lui	a0,0x40000
    27b4:	437000ef          	jal	ra,33ea <TIM_ClearITPendingBit>
C:/Users/86152/Desktop/单车越野/我的/代码调试/Bicycle_Code/project/user/src/isr.c:287


    }
}
    27b8:	0001                	nop
    27ba:	4476                	lw	s0,92(sp)
    27bc:	6036                	flw	ft0,76(sp)
    27be:	60a6                	flw	ft1,72(sp)
    27c0:	6116                	flw	ft2,68(sp)
    27c2:	6186                	flw	ft3,64(sp)
    27c4:	7272                	flw	ft4,60(sp)
    27c6:	72e2                	flw	ft5,56(sp)
    27c8:	7352                	flw	ft6,52(sp)
    27ca:	73c2                	flw	ft7,48(sp)
    27cc:	7532                	flw	fa0,44(sp)
    27ce:	75a2                	flw	fa1,40(sp)
    27d0:	7612                	flw	fa2,36(sp)
    27d2:	7682                	flw	fa3,32(sp)
    27d4:	6772                	flw	fa4,28(sp)
    27d6:	67e2                	flw	fa5,24(sp)
    27d8:	6852                	flw	fa6,20(sp)
    27da:	68c2                	flw	fa7,16(sp)
    27dc:	6e32                	flw	ft8,12(sp)
    27de:	6ea2                	flw	ft9,8(sp)
    27e0:	6f12                	flw	ft10,4(sp)
    27e2:	6f82                	flw	ft11,0(sp)
    27e4:	6125                	addi	sp,sp,96
    27e6:	30200073          	mret

000027ea <TIM3_IRQHandler>:
TIM3_IRQHandler():
C:/Users/86152/Desktop/单车越野/我的/代码调试/Bicycle_Code/project/user/src/isr.c:290

void TIM3_IRQHandler(void)
{
    27ea:	711d                	addi	sp,sp,-96
    27ec:	cea2                	sw	s0,92(sp)
    27ee:	e682                	fsw	ft0,76(sp)
    27f0:	e486                	fsw	ft1,72(sp)
    27f2:	e28a                	fsw	ft2,68(sp)
    27f4:	e08e                	fsw	ft3,64(sp)
    27f6:	fe12                	fsw	ft4,60(sp)
    27f8:	fc16                	fsw	ft5,56(sp)
    27fa:	fa1a                	fsw	ft6,52(sp)
    27fc:	f81e                	fsw	ft7,48(sp)
    27fe:	f62a                	fsw	fa0,44(sp)
    2800:	f42e                	fsw	fa1,40(sp)
    2802:	f232                	fsw	fa2,36(sp)
    2804:	f036                	fsw	fa3,32(sp)
    2806:	ee3a                	fsw	fa4,28(sp)
    2808:	ec3e                	fsw	fa5,24(sp)
    280a:	ea42                	fsw	fa6,20(sp)
    280c:	e846                	fsw	fa7,16(sp)
    280e:	e672                	fsw	ft8,12(sp)
    2810:	e476                	fsw	ft9,8(sp)
    2812:	e27a                	fsw	ft10,4(sp)
    2814:	e07e                	fsw	ft11,0(sp)
    2816:	1080                	addi	s0,sp,96
C:/Users/86152/Desktop/单车越野/我的/代码调试/Bicycle_Code/project/user/src/isr.c:291
    if(TIM_GetITStatus(TIM3, TIM_IT_Update) != RESET)
    2818:	4585                	li	a1,1
    281a:	400007b7          	lui	a5,0x40000
    281e:	40078513          	addi	a0,a5,1024 # 40000400 <_eusrstack+0x1fff0400>
    2822:	359000ef          	jal	ra,337a <TIM_GetITStatus>
    2826:	87aa                	mv	a5,a0
    2828:	cb81                	beqz	a5,2838 <TIM3_IRQHandler+0x4e>
C:/Users/86152/Desktop/单车越野/我的/代码调试/Bicycle_Code/project/user/src/isr.c:293
    {
       TIM_ClearITPendingBit(TIM3, TIM_IT_Update );
    282a:	4585                	li	a1,1
    282c:	400007b7          	lui	a5,0x40000
    2830:	40078513          	addi	a0,a5,1024 # 40000400 <_eusrstack+0x1fff0400>
    2834:	3b7000ef          	jal	ra,33ea <TIM_ClearITPendingBit>
C:/Users/86152/Desktop/单车越野/我的/代码调试/Bicycle_Code/project/user/src/isr.c:297


    }
}
    2838:	0001                	nop
    283a:	4476                	lw	s0,92(sp)
    283c:	6036                	flw	ft0,76(sp)
    283e:	60a6                	flw	ft1,72(sp)
    2840:	6116                	flw	ft2,68(sp)
    2842:	6186                	flw	ft3,64(sp)
    2844:	7272                	flw	ft4,60(sp)
    2846:	72e2                	flw	ft5,56(sp)
    2848:	7352                	flw	ft6,52(sp)
    284a:	73c2                	flw	ft7,48(sp)
    284c:	7532                	flw	fa0,44(sp)
    284e:	75a2                	flw	fa1,40(sp)
    2850:	7612                	flw	fa2,36(sp)
    2852:	7682                	flw	fa3,32(sp)
    2854:	6772                	flw	fa4,28(sp)
    2856:	67e2                	flw	fa5,24(sp)
    2858:	6852                	flw	fa6,20(sp)
    285a:	68c2                	flw	fa7,16(sp)
    285c:	6e32                	flw	ft8,12(sp)
    285e:	6ea2                	flw	ft9,8(sp)
    2860:	6f12                	flw	ft10,4(sp)
    2862:	6f82                	flw	ft11,0(sp)
    2864:	6125                	addi	sp,sp,96
    2866:	30200073          	mret

0000286a <TIM4_IRQHandler>:
TIM4_IRQHandler():
C:/Users/86152/Desktop/单车越野/我的/代码调试/Bicycle_Code/project/user/src/isr.c:300

void TIM4_IRQHandler(void)
{
    286a:	711d                	addi	sp,sp,-96
    286c:	cea2                	sw	s0,92(sp)
    286e:	e682                	fsw	ft0,76(sp)
    2870:	e486                	fsw	ft1,72(sp)
    2872:	e28a                	fsw	ft2,68(sp)
    2874:	e08e                	fsw	ft3,64(sp)
    2876:	fe12                	fsw	ft4,60(sp)
    2878:	fc16                	fsw	ft5,56(sp)
    287a:	fa1a                	fsw	ft6,52(sp)
    287c:	f81e                	fsw	ft7,48(sp)
    287e:	f62a                	fsw	fa0,44(sp)
    2880:	f42e                	fsw	fa1,40(sp)
    2882:	f232                	fsw	fa2,36(sp)
    2884:	f036                	fsw	fa3,32(sp)
    2886:	ee3a                	fsw	fa4,28(sp)
    2888:	ec3e                	fsw	fa5,24(sp)
    288a:	ea42                	fsw	fa6,20(sp)
    288c:	e846                	fsw	fa7,16(sp)
    288e:	e672                	fsw	ft8,12(sp)
    2890:	e476                	fsw	ft9,8(sp)
    2892:	e27a                	fsw	ft10,4(sp)
    2894:	e07e                	fsw	ft11,0(sp)
    2896:	1080                	addi	s0,sp,96
C:/Users/86152/Desktop/单车越野/我的/代码调试/Bicycle_Code/project/user/src/isr.c:301
    if(TIM_GetITStatus(TIM4, TIM_IT_Update) != RESET)
    2898:	4585                	li	a1,1
    289a:	400017b7          	lui	a5,0x40001
    289e:	80078513          	addi	a0,a5,-2048 # 40000800 <_eusrstack+0x1fff0800>
    28a2:	2d9000ef          	jal	ra,337a <TIM_GetITStatus>
    28a6:	87aa                	mv	a5,a0
    28a8:	cb81                	beqz	a5,28b8 <TIM4_IRQHandler+0x4e>
C:/Users/86152/Desktop/单车越野/我的/代码调试/Bicycle_Code/project/user/src/isr.c:303
    {
       TIM_ClearITPendingBit(TIM4, TIM_IT_Update );
    28aa:	4585                	li	a1,1
    28ac:	400017b7          	lui	a5,0x40001
    28b0:	80078513          	addi	a0,a5,-2048 # 40000800 <_eusrstack+0x1fff0800>
    28b4:	337000ef          	jal	ra,33ea <TIM_ClearITPendingBit>
C:/Users/86152/Desktop/单车越野/我的/代码调试/Bicycle_Code/project/user/src/isr.c:307


    }
}
    28b8:	0001                	nop
    28ba:	4476                	lw	s0,92(sp)
    28bc:	6036                	flw	ft0,76(sp)
    28be:	60a6                	flw	ft1,72(sp)
    28c0:	6116                	flw	ft2,68(sp)
    28c2:	6186                	flw	ft3,64(sp)
    28c4:	7272                	flw	ft4,60(sp)
    28c6:	72e2                	flw	ft5,56(sp)
    28c8:	7352                	flw	ft6,52(sp)
    28ca:	73c2                	flw	ft7,48(sp)
    28cc:	7532                	flw	fa0,44(sp)
    28ce:	75a2                	flw	fa1,40(sp)
    28d0:	7612                	flw	fa2,36(sp)
    28d2:	7682                	flw	fa3,32(sp)
    28d4:	6772                	flw	fa4,28(sp)
    28d6:	67e2                	flw	fa5,24(sp)
    28d8:	6852                	flw	fa6,20(sp)
    28da:	68c2                	flw	fa7,16(sp)
    28dc:	6e32                	flw	ft8,12(sp)
    28de:	6ea2                	flw	ft9,8(sp)
    28e0:	6f12                	flw	ft10,4(sp)
    28e2:	6f82                	flw	ft11,0(sp)
    28e4:	6125                	addi	sp,sp,96
    28e6:	30200073          	mret

000028ea <TIM5_IRQHandler>:
TIM5_IRQHandler():
C:/Users/86152/Desktop/单车越野/我的/代码调试/Bicycle_Code/project/user/src/isr.c:310

void TIM5_IRQHandler(void)
{
    28ea:	711d                	addi	sp,sp,-96
    28ec:	cea2                	sw	s0,92(sp)
    28ee:	e682                	fsw	ft0,76(sp)
    28f0:	e486                	fsw	ft1,72(sp)
    28f2:	e28a                	fsw	ft2,68(sp)
    28f4:	e08e                	fsw	ft3,64(sp)
    28f6:	fe12                	fsw	ft4,60(sp)
    28f8:	fc16                	fsw	ft5,56(sp)
    28fa:	fa1a                	fsw	ft6,52(sp)
    28fc:	f81e                	fsw	ft7,48(sp)
    28fe:	f62a                	fsw	fa0,44(sp)
    2900:	f42e                	fsw	fa1,40(sp)
    2902:	f232                	fsw	fa2,36(sp)
    2904:	f036                	fsw	fa3,32(sp)
    2906:	ee3a                	fsw	fa4,28(sp)
    2908:	ec3e                	fsw	fa5,24(sp)
    290a:	ea42                	fsw	fa6,20(sp)
    290c:	e846                	fsw	fa7,16(sp)
    290e:	e672                	fsw	ft8,12(sp)
    2910:	e476                	fsw	ft9,8(sp)
    2912:	e27a                	fsw	ft10,4(sp)
    2914:	e07e                	fsw	ft11,0(sp)
    2916:	1080                	addi	s0,sp,96
C:/Users/86152/Desktop/单车越野/我的/代码调试/Bicycle_Code/project/user/src/isr.c:311
    if(TIM_GetITStatus(TIM5, TIM_IT_Update) != RESET)
    2918:	4585                	li	a1,1
    291a:	400017b7          	lui	a5,0x40001
    291e:	c0078513          	addi	a0,a5,-1024 # 40000c00 <_eusrstack+0x1fff0c00>
    2922:	259000ef          	jal	ra,337a <TIM_GetITStatus>
    2926:	87aa                	mv	a5,a0
    2928:	cb81                	beqz	a5,2938 <TIM5_IRQHandler+0x4e>
C:/Users/86152/Desktop/单车越野/我的/代码调试/Bicycle_Code/project/user/src/isr.c:313
    {
       TIM_ClearITPendingBit(TIM5, TIM_IT_Update );
    292a:	4585                	li	a1,1
    292c:	400017b7          	lui	a5,0x40001
    2930:	c0078513          	addi	a0,a5,-1024 # 40000c00 <_eusrstack+0x1fff0c00>
    2934:	2b7000ef          	jal	ra,33ea <TIM_ClearITPendingBit>
C:/Users/86152/Desktop/单车越野/我的/代码调试/Bicycle_Code/project/user/src/isr.c:317


    }
}
    2938:	0001                	nop
    293a:	4476                	lw	s0,92(sp)
    293c:	6036                	flw	ft0,76(sp)
    293e:	60a6                	flw	ft1,72(sp)
    2940:	6116                	flw	ft2,68(sp)
    2942:	6186                	flw	ft3,64(sp)
    2944:	7272                	flw	ft4,60(sp)
    2946:	72e2                	flw	ft5,56(sp)
    2948:	7352                	flw	ft6,52(sp)
    294a:	73c2                	flw	ft7,48(sp)
    294c:	7532                	flw	fa0,44(sp)
    294e:	75a2                	flw	fa1,40(sp)
    2950:	7612                	flw	fa2,36(sp)
    2952:	7682                	flw	fa3,32(sp)
    2954:	6772                	flw	fa4,28(sp)
    2956:	67e2                	flw	fa5,24(sp)
    2958:	6852                	flw	fa6,20(sp)
    295a:	68c2                	flw	fa7,16(sp)
    295c:	6e32                	flw	ft8,12(sp)
    295e:	6ea2                	flw	ft9,8(sp)
    2960:	6f12                	flw	ft10,4(sp)
    2962:	6f82                	flw	ft11,0(sp)
    2964:	6125                	addi	sp,sp,96
    2966:	30200073          	mret

0000296a <TIM6_IRQHandler>:
TIM6_IRQHandler():
C:/Users/86152/Desktop/单车越野/我的/代码调试/Bicycle_Code/project/user/src/isr.c:320

void TIM6_IRQHandler(void)
{
    296a:	711d                	addi	sp,sp,-96
    296c:	cea2                	sw	s0,92(sp)
    296e:	e682                	fsw	ft0,76(sp)
    2970:	e486                	fsw	ft1,72(sp)
    2972:	e28a                	fsw	ft2,68(sp)
    2974:	e08e                	fsw	ft3,64(sp)
    2976:	fe12                	fsw	ft4,60(sp)
    2978:	fc16                	fsw	ft5,56(sp)
    297a:	fa1a                	fsw	ft6,52(sp)
    297c:	f81e                	fsw	ft7,48(sp)
    297e:	f62a                	fsw	fa0,44(sp)
    2980:	f42e                	fsw	fa1,40(sp)
    2982:	f232                	fsw	fa2,36(sp)
    2984:	f036                	fsw	fa3,32(sp)
    2986:	ee3a                	fsw	fa4,28(sp)
    2988:	ec3e                	fsw	fa5,24(sp)
    298a:	ea42                	fsw	fa6,20(sp)
    298c:	e846                	fsw	fa7,16(sp)
    298e:	e672                	fsw	ft8,12(sp)
    2990:	e476                	fsw	ft9,8(sp)
    2992:	e27a                	fsw	ft10,4(sp)
    2994:	e07e                	fsw	ft11,0(sp)
    2996:	1080                	addi	s0,sp,96
C:/Users/86152/Desktop/单车越野/我的/代码调试/Bicycle_Code/project/user/src/isr.c:321
    if(TIM_GetITStatus(TIM6, TIM_IT_Update) != RESET)
    2998:	4585                	li	a1,1
    299a:	40001537          	lui	a0,0x40001
    299e:	1dd000ef          	jal	ra,337a <TIM_GetITStatus>
    29a2:	87aa                	mv	a5,a0
    29a4:	c791                	beqz	a5,29b0 <TIM6_IRQHandler+0x46>
C:/Users/86152/Desktop/单车越野/我的/代码调试/Bicycle_Code/project/user/src/isr.c:323
    {
       TIM_ClearITPendingBit(TIM6, TIM_IT_Update );
    29a6:	4585                	li	a1,1
    29a8:	40001537          	lui	a0,0x40001
    29ac:	23f000ef          	jal	ra,33ea <TIM_ClearITPendingBit>
C:/Users/86152/Desktop/单车越野/我的/代码调试/Bicycle_Code/project/user/src/isr.c:326

    }
}
    29b0:	0001                	nop
    29b2:	4476                	lw	s0,92(sp)
    29b4:	6036                	flw	ft0,76(sp)
    29b6:	60a6                	flw	ft1,72(sp)
    29b8:	6116                	flw	ft2,68(sp)
    29ba:	6186                	flw	ft3,64(sp)
    29bc:	7272                	flw	ft4,60(sp)
    29be:	72e2                	flw	ft5,56(sp)
    29c0:	7352                	flw	ft6,52(sp)
    29c2:	73c2                	flw	ft7,48(sp)
    29c4:	7532                	flw	fa0,44(sp)
    29c6:	75a2                	flw	fa1,40(sp)
    29c8:	7612                	flw	fa2,36(sp)
    29ca:	7682                	flw	fa3,32(sp)
    29cc:	6772                	flw	fa4,28(sp)
    29ce:	67e2                	flw	fa5,24(sp)
    29d0:	6852                	flw	fa6,20(sp)
    29d2:	68c2                	flw	fa7,16(sp)
    29d4:	6e32                	flw	ft8,12(sp)
    29d6:	6ea2                	flw	ft9,8(sp)
    29d8:	6f12                	flw	ft10,4(sp)
    29da:	6f82                	flw	ft11,0(sp)
    29dc:	6125                	addi	sp,sp,96
    29de:	30200073          	mret

000029e2 <TIM7_IRQHandler>:
TIM7_IRQHandler():
C:/Users/86152/Desktop/单车越野/我的/代码调试/Bicycle_Code/project/user/src/isr.c:329

void TIM7_IRQHandler(void)
{
    29e2:	711d                	addi	sp,sp,-96
    29e4:	cea2                	sw	s0,92(sp)
    29e6:	e682                	fsw	ft0,76(sp)
    29e8:	e486                	fsw	ft1,72(sp)
    29ea:	e28a                	fsw	ft2,68(sp)
    29ec:	e08e                	fsw	ft3,64(sp)
    29ee:	fe12                	fsw	ft4,60(sp)
    29f0:	fc16                	fsw	ft5,56(sp)
    29f2:	fa1a                	fsw	ft6,52(sp)
    29f4:	f81e                	fsw	ft7,48(sp)
    29f6:	f62a                	fsw	fa0,44(sp)
    29f8:	f42e                	fsw	fa1,40(sp)
    29fa:	f232                	fsw	fa2,36(sp)
    29fc:	f036                	fsw	fa3,32(sp)
    29fe:	ee3a                	fsw	fa4,28(sp)
    2a00:	ec3e                	fsw	fa5,24(sp)
    2a02:	ea42                	fsw	fa6,20(sp)
    2a04:	e846                	fsw	fa7,16(sp)
    2a06:	e672                	fsw	ft8,12(sp)
    2a08:	e476                	fsw	ft9,8(sp)
    2a0a:	e27a                	fsw	ft10,4(sp)
    2a0c:	e07e                	fsw	ft11,0(sp)
    2a0e:	1080                	addi	s0,sp,96
C:/Users/86152/Desktop/单车越野/我的/代码调试/Bicycle_Code/project/user/src/isr.c:330
    if(TIM_GetITStatus(TIM7, TIM_IT_Update) != RESET)
    2a10:	4585                	li	a1,1
    2a12:	400017b7          	lui	a5,0x40001
    2a16:	40078513          	addi	a0,a5,1024 # 40001400 <_eusrstack+0x1fff1400>
    2a1a:	161000ef          	jal	ra,337a <TIM_GetITStatus>
    2a1e:	87aa                	mv	a5,a0
    2a20:	cb81                	beqz	a5,2a30 <TIM7_IRQHandler+0x4e>
C:/Users/86152/Desktop/单车越野/我的/代码调试/Bicycle_Code/project/user/src/isr.c:332
    {
       TIM_ClearITPendingBit(TIM7, TIM_IT_Update );
    2a22:	4585                	li	a1,1
    2a24:	400017b7          	lui	a5,0x40001
    2a28:	40078513          	addi	a0,a5,1024 # 40001400 <_eusrstack+0x1fff1400>
    2a2c:	1bf000ef          	jal	ra,33ea <TIM_ClearITPendingBit>
C:/Users/86152/Desktop/单车越野/我的/代码调试/Bicycle_Code/project/user/src/isr.c:336


    }
}
    2a30:	0001                	nop
    2a32:	4476                	lw	s0,92(sp)
    2a34:	6036                	flw	ft0,76(sp)
    2a36:	60a6                	flw	ft1,72(sp)
    2a38:	6116                	flw	ft2,68(sp)
    2a3a:	6186                	flw	ft3,64(sp)
    2a3c:	7272                	flw	ft4,60(sp)
    2a3e:	72e2                	flw	ft5,56(sp)
    2a40:	7352                	flw	ft6,52(sp)
    2a42:	73c2                	flw	ft7,48(sp)
    2a44:	7532                	flw	fa0,44(sp)
    2a46:	75a2                	flw	fa1,40(sp)
    2a48:	7612                	flw	fa2,36(sp)
    2a4a:	7682                	flw	fa3,32(sp)
    2a4c:	6772                	flw	fa4,28(sp)
    2a4e:	67e2                	flw	fa5,24(sp)
    2a50:	6852                	flw	fa6,20(sp)
    2a52:	68c2                	flw	fa7,16(sp)
    2a54:	6e32                	flw	ft8,12(sp)
    2a56:	6ea2                	flw	ft9,8(sp)
    2a58:	6f12                	flw	ft10,4(sp)
    2a5a:	6f82                	flw	ft11,0(sp)
    2a5c:	6125                	addi	sp,sp,96
    2a5e:	30200073          	mret

00002a62 <TIM8_UP_IRQHandler>:
TIM8_UP_IRQHandler():
C:/Users/86152/Desktop/单车越野/我的/代码调试/Bicycle_Code/project/user/src/isr.c:340


void TIM8_UP_IRQHandler(void)
{
    2a62:	711d                	addi	sp,sp,-96
    2a64:	cea2                	sw	s0,92(sp)
    2a66:	e682                	fsw	ft0,76(sp)
    2a68:	e486                	fsw	ft1,72(sp)
    2a6a:	e28a                	fsw	ft2,68(sp)
    2a6c:	e08e                	fsw	ft3,64(sp)
    2a6e:	fe12                	fsw	ft4,60(sp)
    2a70:	fc16                	fsw	ft5,56(sp)
    2a72:	fa1a                	fsw	ft6,52(sp)
    2a74:	f81e                	fsw	ft7,48(sp)
    2a76:	f62a                	fsw	fa0,44(sp)
    2a78:	f42e                	fsw	fa1,40(sp)
    2a7a:	f232                	fsw	fa2,36(sp)
    2a7c:	f036                	fsw	fa3,32(sp)
    2a7e:	ee3a                	fsw	fa4,28(sp)
    2a80:	ec3e                	fsw	fa5,24(sp)
    2a82:	ea42                	fsw	fa6,20(sp)
    2a84:	e846                	fsw	fa7,16(sp)
    2a86:	e672                	fsw	ft8,12(sp)
    2a88:	e476                	fsw	ft9,8(sp)
    2a8a:	e27a                	fsw	ft10,4(sp)
    2a8c:	e07e                	fsw	ft11,0(sp)
    2a8e:	1080                	addi	s0,sp,96
C:/Users/86152/Desktop/单车越野/我的/代码调试/Bicycle_Code/project/user/src/isr.c:341
    if(TIM_GetITStatus(TIM8, TIM_IT_Update) != RESET)
    2a90:	4585                	li	a1,1
    2a92:	400137b7          	lui	a5,0x40013
    2a96:	40078513          	addi	a0,a5,1024 # 40013400 <_eusrstack+0x20003400>
    2a9a:	0e1000ef          	jal	ra,337a <TIM_GetITStatus>
    2a9e:	87aa                	mv	a5,a0
    2aa0:	cb81                	beqz	a5,2ab0 <TIM8_UP_IRQHandler+0x4e>
C:/Users/86152/Desktop/单车越野/我的/代码调试/Bicycle_Code/project/user/src/isr.c:343
    {
        TIM_ClearITPendingBit(TIM8, TIM_IT_Update);
    2aa2:	4585                	li	a1,1
    2aa4:	400137b7          	lui	a5,0x40013
    2aa8:	40078513          	addi	a0,a5,1024 # 40013400 <_eusrstack+0x20003400>
    2aac:	13f000ef          	jal	ra,33ea <TIM_ClearITPendingBit>
C:/Users/86152/Desktop/单车越野/我的/代码调试/Bicycle_Code/project/user/src/isr.c:346

    }
}
    2ab0:	0001                	nop
    2ab2:	4476                	lw	s0,92(sp)
    2ab4:	6036                	flw	ft0,76(sp)
    2ab6:	60a6                	flw	ft1,72(sp)
    2ab8:	6116                	flw	ft2,68(sp)
    2aba:	6186                	flw	ft3,64(sp)
    2abc:	7272                	flw	ft4,60(sp)
    2abe:	72e2                	flw	ft5,56(sp)
    2ac0:	7352                	flw	ft6,52(sp)
    2ac2:	73c2                	flw	ft7,48(sp)
    2ac4:	7532                	flw	fa0,44(sp)
    2ac6:	75a2                	flw	fa1,40(sp)
    2ac8:	7612                	flw	fa2,36(sp)
    2aca:	7682                	flw	fa3,32(sp)
    2acc:	6772                	flw	fa4,28(sp)
    2ace:	67e2                	flw	fa5,24(sp)
    2ad0:	6852                	flw	fa6,20(sp)
    2ad2:	68c2                	flw	fa7,16(sp)
    2ad4:	6e32                	flw	ft8,12(sp)
    2ad6:	6ea2                	flw	ft9,8(sp)
    2ad8:	6f12                	flw	ft10,4(sp)
    2ada:	6f82                	flw	ft11,0(sp)
    2adc:	6125                	addi	sp,sp,96
    2ade:	30200073          	mret

00002ae2 <TIM9_UP_IRQHandler>:
TIM9_UP_IRQHandler():
C:/Users/86152/Desktop/单车越野/我的/代码调试/Bicycle_Code/project/user/src/isr.c:350


void TIM9_UP_IRQHandler(void)
{
    2ae2:	711d                	addi	sp,sp,-96
    2ae4:	cea2                	sw	s0,92(sp)
    2ae6:	e682                	fsw	ft0,76(sp)
    2ae8:	e486                	fsw	ft1,72(sp)
    2aea:	e28a                	fsw	ft2,68(sp)
    2aec:	e08e                	fsw	ft3,64(sp)
    2aee:	fe12                	fsw	ft4,60(sp)
    2af0:	fc16                	fsw	ft5,56(sp)
    2af2:	fa1a                	fsw	ft6,52(sp)
    2af4:	f81e                	fsw	ft7,48(sp)
    2af6:	f62a                	fsw	fa0,44(sp)
    2af8:	f42e                	fsw	fa1,40(sp)
    2afa:	f232                	fsw	fa2,36(sp)
    2afc:	f036                	fsw	fa3,32(sp)
    2afe:	ee3a                	fsw	fa4,28(sp)
    2b00:	ec3e                	fsw	fa5,24(sp)
    2b02:	ea42                	fsw	fa6,20(sp)
    2b04:	e846                	fsw	fa7,16(sp)
    2b06:	e672                	fsw	ft8,12(sp)
    2b08:	e476                	fsw	ft9,8(sp)
    2b0a:	e27a                	fsw	ft10,4(sp)
    2b0c:	e07e                	fsw	ft11,0(sp)
    2b0e:	1080                	addi	s0,sp,96
C:/Users/86152/Desktop/单车越野/我的/代码调试/Bicycle_Code/project/user/src/isr.c:351
    if(TIM_GetITStatus(TIM9, TIM_IT_Update) != RESET)
    2b10:	4585                	li	a1,1
    2b12:	400157b7          	lui	a5,0x40015
    2b16:	c0078513          	addi	a0,a5,-1024 # 40014c00 <_eusrstack+0x20004c00>
    2b1a:	061000ef          	jal	ra,337a <TIM_GetITStatus>
    2b1e:	87aa                	mv	a5,a0
    2b20:	cb81                	beqz	a5,2b30 <TIM9_UP_IRQHandler+0x4e>
C:/Users/86152/Desktop/单车越野/我的/代码调试/Bicycle_Code/project/user/src/isr.c:353
    {
        TIM_ClearITPendingBit(TIM9, TIM_IT_Update);
    2b22:	4585                	li	a1,1
    2b24:	400157b7          	lui	a5,0x40015
    2b28:	c0078513          	addi	a0,a5,-1024 # 40014c00 <_eusrstack+0x20004c00>
    2b2c:	0bf000ef          	jal	ra,33ea <TIM_ClearITPendingBit>
C:/Users/86152/Desktop/单车越野/我的/代码调试/Bicycle_Code/project/user/src/isr.c:356

    }
}
    2b30:	0001                	nop
    2b32:	4476                	lw	s0,92(sp)
    2b34:	6036                	flw	ft0,76(sp)
    2b36:	60a6                	flw	ft1,72(sp)
    2b38:	6116                	flw	ft2,68(sp)
    2b3a:	6186                	flw	ft3,64(sp)
    2b3c:	7272                	flw	ft4,60(sp)
    2b3e:	72e2                	flw	ft5,56(sp)
    2b40:	7352                	flw	ft6,52(sp)
    2b42:	73c2                	flw	ft7,48(sp)
    2b44:	7532                	flw	fa0,44(sp)
    2b46:	75a2                	flw	fa1,40(sp)
    2b48:	7612                	flw	fa2,36(sp)
    2b4a:	7682                	flw	fa3,32(sp)
    2b4c:	6772                	flw	fa4,28(sp)
    2b4e:	67e2                	flw	fa5,24(sp)
    2b50:	6852                	flw	fa6,20(sp)
    2b52:	68c2                	flw	fa7,16(sp)
    2b54:	6e32                	flw	ft8,12(sp)
    2b56:	6ea2                	flw	ft9,8(sp)
    2b58:	6f12                	flw	ft10,4(sp)
    2b5a:	6f82                	flw	ft11,0(sp)
    2b5c:	6125                	addi	sp,sp,96
    2b5e:	30200073          	mret

00002b62 <TIM10_UP_IRQHandler>:
TIM10_UP_IRQHandler():
C:/Users/86152/Desktop/单车越野/我的/代码调试/Bicycle_Code/project/user/src/isr.c:360


void TIM10_UP_IRQHandler(void)
{
    2b62:	711d                	addi	sp,sp,-96
    2b64:	cea2                	sw	s0,92(sp)
    2b66:	e682                	fsw	ft0,76(sp)
    2b68:	e486                	fsw	ft1,72(sp)
    2b6a:	e28a                	fsw	ft2,68(sp)
    2b6c:	e08e                	fsw	ft3,64(sp)
    2b6e:	fe12                	fsw	ft4,60(sp)
    2b70:	fc16                	fsw	ft5,56(sp)
    2b72:	fa1a                	fsw	ft6,52(sp)
    2b74:	f81e                	fsw	ft7,48(sp)
    2b76:	f62a                	fsw	fa0,44(sp)
    2b78:	f42e                	fsw	fa1,40(sp)
    2b7a:	f232                	fsw	fa2,36(sp)
    2b7c:	f036                	fsw	fa3,32(sp)
    2b7e:	ee3a                	fsw	fa4,28(sp)
    2b80:	ec3e                	fsw	fa5,24(sp)
    2b82:	ea42                	fsw	fa6,20(sp)
    2b84:	e846                	fsw	fa7,16(sp)
    2b86:	e672                	fsw	ft8,12(sp)
    2b88:	e476                	fsw	ft9,8(sp)
    2b8a:	e27a                	fsw	ft10,4(sp)
    2b8c:	e07e                	fsw	ft11,0(sp)
    2b8e:	1080                	addi	s0,sp,96
C:/Users/86152/Desktop/单车越野/我的/代码调试/Bicycle_Code/project/user/src/isr.c:361
    if(TIM_GetITStatus(TIM10, TIM_IT_Update) != RESET)
    2b90:	4585                	li	a1,1
    2b92:	40015537          	lui	a0,0x40015
    2b96:	7e4000ef          	jal	ra,337a <TIM_GetITStatus>
    2b9a:	87aa                	mv	a5,a0
    2b9c:	c791                	beqz	a5,2ba8 <TIM10_UP_IRQHandler+0x46>
C:/Users/86152/Desktop/单车越野/我的/代码调试/Bicycle_Code/project/user/src/isr.c:363
    {
        TIM_ClearITPendingBit(TIM10, TIM_IT_Update);
    2b9e:	4585                	li	a1,1
    2ba0:	40015537          	lui	a0,0x40015
    2ba4:	047000ef          	jal	ra,33ea <TIM_ClearITPendingBit>
C:/Users/86152/Desktop/单车越野/我的/代码调试/Bicycle_Code/project/user/src/isr.c:366

    }
}
    2ba8:	0001                	nop
    2baa:	4476                	lw	s0,92(sp)
    2bac:	6036                	flw	ft0,76(sp)
    2bae:	60a6                	flw	ft1,72(sp)
    2bb0:	6116                	flw	ft2,68(sp)
    2bb2:	6186                	flw	ft3,64(sp)
    2bb4:	7272                	flw	ft4,60(sp)
    2bb6:	72e2                	flw	ft5,56(sp)
    2bb8:	7352                	flw	ft6,52(sp)
    2bba:	73c2                	flw	ft7,48(sp)
    2bbc:	7532                	flw	fa0,44(sp)
    2bbe:	75a2                	flw	fa1,40(sp)
    2bc0:	7612                	flw	fa2,36(sp)
    2bc2:	7682                	flw	fa3,32(sp)
    2bc4:	6772                	flw	fa4,28(sp)
    2bc6:	67e2                	flw	fa5,24(sp)
    2bc8:	6852                	flw	fa6,20(sp)
    2bca:	68c2                	flw	fa7,16(sp)
    2bcc:	6e32                	flw	ft8,12(sp)
    2bce:	6ea2                	flw	ft9,8(sp)
    2bd0:	6f12                	flw	ft10,4(sp)
    2bd2:	6f82                	flw	ft11,0(sp)
    2bd4:	6125                	addi	sp,sp,96
    2bd6:	30200073          	mret

00002bda <NMI_Handler>:
NMI_Handler():
C:/Users/86152/Desktop/单车越野/我的/代码调试/Bicycle_Code/project/user/src/isr.c:462
* Description    : This function handles NMI exception.
* Input          : None
* Return         : None
*******************************************************************************/
void NMI_Handler(void)
{
    2bda:	1141                	addi	sp,sp,-16
    2bdc:	c622                	sw	s0,12(sp)
    2bde:	0800                	addi	s0,sp,16
C:/Users/86152/Desktop/单车越野/我的/代码调试/Bicycle_Code/project/user/src/isr.c:463
}
    2be0:	0001                	nop
    2be2:	4432                	lw	s0,12(sp)
    2be4:	0141                	addi	sp,sp,16
    2be6:	30200073          	mret

00002bea <HardFault_Handler>:
HardFault_Handler():
C:/Users/86152/Desktop/单车越野/我的/代码调试/Bicycle_Code/project/user/src/isr.c:472
* Description    : This function handles Hard Fault exception.
* Input          : None
* Return         : None
*******************************************************************************/
void HardFault_Handler(void)
{
    2bea:	1141                	addi	sp,sp,-16
    2bec:	c622                	sw	s0,12(sp)
    2bee:	0800                	addi	s0,sp,16
C:/Users/86152/Desktop/单车越野/我的/代码调试/Bicycle_Code/project/user/src/isr.c:473 (discriminator 1)
  while (1)
    2bf0:	a001                	j	2bf0 <HardFault_Handler+0x6>

00002bf2 <main>:
main():
C:/Users/86152/Desktop/单车越野/我的/代码调试/Bicycle_Code/project/user/src/main.c:14




int main (void)
{
    2bf2:	1141                	addi	sp,sp,-16
    2bf4:	c606                	sw	ra,12(sp)
    2bf6:	c422                	sw	s0,8(sp)
    2bf8:	0800                	addi	s0,sp,16
C:/Users/86152/Desktop/单车越野/我的/代码调试/Bicycle_Code/project/user/src/main.c:15
    clock_init(SYSTEM_CLOCK_144M);                                              // 初始化芯片时钟 工作频率为 144MHz
    2bfa:	089547b7          	lui	a5,0x8954
    2bfe:	40078513          	addi	a0,a5,1024 # 8954400 <_data_lma+0x89497ac>
    2c02:	a1cfe0ef          	jal	ra,e1e <clock_init>
C:/Users/86152/Desktop/单车越野/我的/代码调试/Bicycle_Code/project/user/src/main.c:16
    debug_init();                                                               // 初始化默认 Debug UART
    2c06:	9c1fe0ef          	jal	ra,15c6 <debug_init>
C:/Users/86152/Desktop/单车越野/我的/代码调试/Bicycle_Code/project/user/src/main.c:22 (discriminator 1)

    // 此处编写用户代码 例如外设初始化代码等

    // 此处编写用户代码 例如外设初始化代码等

    while(1)
    2c0a:	a001                	j	2c0a <main+0x18>
C:/Users/86152/Desktop/单车越野/我的/代码调试/Bicycle_Code/libraries/sdk/Startup/startup_ch32v30x_D8C.S:238
    .weak   DMA2_Channel8_IRQHandler   /* DMA2 Channel 8 */
    .weak   DMA2_Channel9_IRQHandler   /* DMA2 Channel 9 */
    .weak   DMA2_Channel10_IRQHandler  /* DMA2 Channel 10 */
    .weak   DMA2_Channel11_IRQHandler  /* DMA2 Channel 11 */

NMI_Handler:  1:  j 1b
    2c0c:	a001                	j	2c0c <main+0x1a>
C:/Users/86152/Desktop/单车越野/我的/代码调试/Bicycle_Code/libraries/sdk/Startup/startup_ch32v30x_D8C.S:239
HardFault_Handler:  1:  j 1b
    2c0e:	a001                	j	2c0e <main+0x1c>

00002c10 <Ecall_M_Mode_Handler>:
Ecall_M_Mode_Handler():
C:/Users/86152/Desktop/单车越野/我的/代码调试/Bicycle_Code/libraries/sdk/Startup/startup_ch32v30x_D8C.S:240
Ecall_M_Mode_Handler:  1:  j 1b
    2c10:	a001                	j	2c10 <Ecall_M_Mode_Handler>

00002c12 <Ecall_U_Mode_Handler>:
Ecall_U_Mode_Handler():
C:/Users/86152/Desktop/单车越野/我的/代码调试/Bicycle_Code/libraries/sdk/Startup/startup_ch32v30x_D8C.S:241
Ecall_U_Mode_Handler:  1:  j 1b
    2c12:	a001                	j	2c12 <Ecall_U_Mode_Handler>

00002c14 <Break_Point_Handler>:
Break_Point_Handler():
C:/Users/86152/Desktop/单车越野/我的/代码调试/Bicycle_Code/libraries/sdk/Startup/startup_ch32v30x_D8C.S:242
Break_Point_Handler:  1:  j 1b
    2c14:	a001                	j	2c14 <Break_Point_Handler>

00002c16 <SysTick_Handler>:
SysTick_Handler():
C:/Users/86152/Desktop/单车越野/我的/代码调试/Bicycle_Code/libraries/sdk/Startup/startup_ch32v30x_D8C.S:243
SysTick_Handler:  1:  j 1b
    2c16:	a001                	j	2c16 <SysTick_Handler>

00002c18 <SW_Handler>:
SW_Handler():
C:/Users/86152/Desktop/单车越野/我的/代码调试/Bicycle_Code/libraries/sdk/Startup/startup_ch32v30x_D8C.S:244
SW_Handler:  1:  j 1b
    2c18:	a001                	j	2c18 <SW_Handler>

00002c1a <WWDG_IRQHandler>:
WWDG_IRQHandler():
C:/Users/86152/Desktop/单车越野/我的/代码调试/Bicycle_Code/libraries/sdk/Startup/startup_ch32v30x_D8C.S:245
WWDG_IRQHandler:  1:  j 1b
    2c1a:	a001                	j	2c1a <WWDG_IRQHandler>

00002c1c <PVD_IRQHandler>:
PVD_IRQHandler():
C:/Users/86152/Desktop/单车越野/我的/代码调试/Bicycle_Code/libraries/sdk/Startup/startup_ch32v30x_D8C.S:246
PVD_IRQHandler:  1:  j 1b
    2c1c:	a001                	j	2c1c <PVD_IRQHandler>

00002c1e <TAMPER_IRQHandler>:
TAMPER_IRQHandler():
C:/Users/86152/Desktop/单车越野/我的/代码调试/Bicycle_Code/libraries/sdk/Startup/startup_ch32v30x_D8C.S:247
TAMPER_IRQHandler:  1:  j 1b
    2c1e:	a001                	j	2c1e <TAMPER_IRQHandler>

00002c20 <RTC_IRQHandler>:
RTC_IRQHandler():
C:/Users/86152/Desktop/单车越野/我的/代码调试/Bicycle_Code/libraries/sdk/Startup/startup_ch32v30x_D8C.S:248
RTC_IRQHandler:  1:  j 1b
    2c20:	a001                	j	2c20 <RTC_IRQHandler>

00002c22 <FLASH_IRQHandler>:
FLASH_IRQHandler():
C:/Users/86152/Desktop/单车越野/我的/代码调试/Bicycle_Code/libraries/sdk/Startup/startup_ch32v30x_D8C.S:249
FLASH_IRQHandler:  1:  j 1b
    2c22:	a001                	j	2c22 <FLASH_IRQHandler>

00002c24 <RCC_IRQHandler>:
RCC_IRQHandler():
C:/Users/86152/Desktop/单车越野/我的/代码调试/Bicycle_Code/libraries/sdk/Startup/startup_ch32v30x_D8C.S:250
RCC_IRQHandler:  1:  j 1b
    2c24:	a001                	j	2c24 <RCC_IRQHandler>
C:/Users/86152/Desktop/单车越野/我的/代码调试/Bicycle_Code/libraries/sdk/Startup/startup_ch32v30x_D8C.S:251
EXTI0_IRQHandler:  1:  j 1b
    2c26:	a001                	j	2c26 <RCC_IRQHandler+0x2>
C:/Users/86152/Desktop/单车越野/我的/代码调试/Bicycle_Code/libraries/sdk/Startup/startup_ch32v30x_D8C.S:252
EXTI1_IRQHandler:  1:  j 1b
    2c28:	a001                	j	2c28 <RCC_IRQHandler+0x4>
C:/Users/86152/Desktop/单车越野/我的/代码调试/Bicycle_Code/libraries/sdk/Startup/startup_ch32v30x_D8C.S:253
EXTI2_IRQHandler:  1:  j 1b
    2c2a:	a001                	j	2c2a <RCC_IRQHandler+0x6>
C:/Users/86152/Desktop/单车越野/我的/代码调试/Bicycle_Code/libraries/sdk/Startup/startup_ch32v30x_D8C.S:254
EXTI3_IRQHandler:  1:  j 1b
    2c2c:	a001                	j	2c2c <RCC_IRQHandler+0x8>
C:/Users/86152/Desktop/单车越野/我的/代码调试/Bicycle_Code/libraries/sdk/Startup/startup_ch32v30x_D8C.S:255
EXTI4_IRQHandler:  1:  j 1b
    2c2e:	a001                	j	2c2e <RCC_IRQHandler+0xa>

00002c30 <DMA1_Channel1_IRQHandler>:
DMA1_Channel1_IRQHandler():
C:/Users/86152/Desktop/单车越野/我的/代码调试/Bicycle_Code/libraries/sdk/Startup/startup_ch32v30x_D8C.S:256
DMA1_Channel1_IRQHandler:  1:  j 1b
    2c30:	a001                	j	2c30 <DMA1_Channel1_IRQHandler>

00002c32 <DMA1_Channel2_IRQHandler>:
DMA1_Channel2_IRQHandler():
C:/Users/86152/Desktop/单车越野/我的/代码调试/Bicycle_Code/libraries/sdk/Startup/startup_ch32v30x_D8C.S:257
DMA1_Channel2_IRQHandler:  1:  j 1b
    2c32:	a001                	j	2c32 <DMA1_Channel2_IRQHandler>

00002c34 <DMA1_Channel3_IRQHandler>:
DMA1_Channel3_IRQHandler():
C:/Users/86152/Desktop/单车越野/我的/代码调试/Bicycle_Code/libraries/sdk/Startup/startup_ch32v30x_D8C.S:258
DMA1_Channel3_IRQHandler:  1:  j 1b
    2c34:	a001                	j	2c34 <DMA1_Channel3_IRQHandler>

00002c36 <DMA1_Channel4_IRQHandler>:
DMA1_Channel4_IRQHandler():
C:/Users/86152/Desktop/单车越野/我的/代码调试/Bicycle_Code/libraries/sdk/Startup/startup_ch32v30x_D8C.S:259
DMA1_Channel4_IRQHandler:  1:  j 1b
    2c36:	a001                	j	2c36 <DMA1_Channel4_IRQHandler>

00002c38 <DMA1_Channel5_IRQHandler>:
DMA1_Channel5_IRQHandler():
C:/Users/86152/Desktop/单车越野/我的/代码调试/Bicycle_Code/libraries/sdk/Startup/startup_ch32v30x_D8C.S:260
DMA1_Channel5_IRQHandler:  1:  j 1b
    2c38:	a001                	j	2c38 <DMA1_Channel5_IRQHandler>

00002c3a <DMA1_Channel6_IRQHandler>:
DMA1_Channel6_IRQHandler():
C:/Users/86152/Desktop/单车越野/我的/代码调试/Bicycle_Code/libraries/sdk/Startup/startup_ch32v30x_D8C.S:261
DMA1_Channel6_IRQHandler:  1:  j 1b
    2c3a:	a001                	j	2c3a <DMA1_Channel6_IRQHandler>

00002c3c <DMA1_Channel7_IRQHandler>:
DMA1_Channel7_IRQHandler():
C:/Users/86152/Desktop/单车越野/我的/代码调试/Bicycle_Code/libraries/sdk/Startup/startup_ch32v30x_D8C.S:262
DMA1_Channel7_IRQHandler:  1:  j 1b
    2c3c:	a001                	j	2c3c <DMA1_Channel7_IRQHandler>

00002c3e <ADC1_2_IRQHandler>:
ADC1_2_IRQHandler():
C:/Users/86152/Desktop/单车越野/我的/代码调试/Bicycle_Code/libraries/sdk/Startup/startup_ch32v30x_D8C.S:263
ADC1_2_IRQHandler:  1:  j 1b
    2c3e:	a001                	j	2c3e <ADC1_2_IRQHandler>

00002c40 <USB_HP_CAN1_TX_IRQHandler>:
USB_HP_CAN1_TX_IRQHandler():
C:/Users/86152/Desktop/单车越野/我的/代码调试/Bicycle_Code/libraries/sdk/Startup/startup_ch32v30x_D8C.S:264
USB_HP_CAN1_TX_IRQHandler:  1:  j 1b
    2c40:	a001                	j	2c40 <USB_HP_CAN1_TX_IRQHandler>

00002c42 <USB_LP_CAN1_RX0_IRQHandler>:
USB_LP_CAN1_RX0_IRQHandler():
C:/Users/86152/Desktop/单车越野/我的/代码调试/Bicycle_Code/libraries/sdk/Startup/startup_ch32v30x_D8C.S:265
USB_LP_CAN1_RX0_IRQHandler:  1:  j 1b
    2c42:	a001                	j	2c42 <USB_LP_CAN1_RX0_IRQHandler>

00002c44 <CAN1_RX1_IRQHandler>:
CAN1_RX1_IRQHandler():
C:/Users/86152/Desktop/单车越野/我的/代码调试/Bicycle_Code/libraries/sdk/Startup/startup_ch32v30x_D8C.S:266
CAN1_RX1_IRQHandler:  1:  j 1b
    2c44:	a001                	j	2c44 <CAN1_RX1_IRQHandler>

00002c46 <CAN1_SCE_IRQHandler>:
CAN1_SCE_IRQHandler():
C:/Users/86152/Desktop/单车越野/我的/代码调试/Bicycle_Code/libraries/sdk/Startup/startup_ch32v30x_D8C.S:267
CAN1_SCE_IRQHandler:  1:  j 1b
    2c46:	a001                	j	2c46 <CAN1_SCE_IRQHandler>
C:/Users/86152/Desktop/单车越野/我的/代码调试/Bicycle_Code/libraries/sdk/Startup/startup_ch32v30x_D8C.S:268
EXTI9_5_IRQHandler:  1:  j 1b
    2c48:	a001                	j	2c48 <CAN1_SCE_IRQHandler+0x2>

00002c4a <TIM1_BRK_IRQHandler>:
TIM1_BRK_IRQHandler():
C:/Users/86152/Desktop/单车越野/我的/代码调试/Bicycle_Code/libraries/sdk/Startup/startup_ch32v30x_D8C.S:269
TIM1_BRK_IRQHandler:  1:  j 1b
    2c4a:	a001                	j	2c4a <TIM1_BRK_IRQHandler>
C:/Users/86152/Desktop/单车越野/我的/代码调试/Bicycle_Code/libraries/sdk/Startup/startup_ch32v30x_D8C.S:270
TIM1_UP_IRQHandler:  1:  j 1b
    2c4c:	a001                	j	2c4c <TIM1_BRK_IRQHandler+0x2>

00002c4e <TIM1_TRG_COM_IRQHandler>:
TIM1_TRG_COM_IRQHandler():
C:/Users/86152/Desktop/单车越野/我的/代码调试/Bicycle_Code/libraries/sdk/Startup/startup_ch32v30x_D8C.S:271
TIM1_TRG_COM_IRQHandler:  1:  j 1b
    2c4e:	a001                	j	2c4e <TIM1_TRG_COM_IRQHandler>

00002c50 <TIM1_CC_IRQHandler>:
TIM1_CC_IRQHandler():
C:/Users/86152/Desktop/单车越野/我的/代码调试/Bicycle_Code/libraries/sdk/Startup/startup_ch32v30x_D8C.S:272
TIM1_CC_IRQHandler:  1:  j 1b
    2c50:	a001                	j	2c50 <TIM1_CC_IRQHandler>
C:/Users/86152/Desktop/单车越野/我的/代码调试/Bicycle_Code/libraries/sdk/Startup/startup_ch32v30x_D8C.S:273
TIM2_IRQHandler:  1:  j 1b
    2c52:	a001                	j	2c52 <TIM1_CC_IRQHandler+0x2>
C:/Users/86152/Desktop/单车越野/我的/代码调试/Bicycle_Code/libraries/sdk/Startup/startup_ch32v30x_D8C.S:274
TIM3_IRQHandler:  1:  j 1b
    2c54:	a001                	j	2c54 <TIM1_CC_IRQHandler+0x4>
C:/Users/86152/Desktop/单车越野/我的/代码调试/Bicycle_Code/libraries/sdk/Startup/startup_ch32v30x_D8C.S:275
TIM4_IRQHandler:  1:  j 1b
    2c56:	a001                	j	2c56 <TIM1_CC_IRQHandler+0x6>

00002c58 <I2C1_EV_IRQHandler>:
I2C1_EV_IRQHandler():
C:/Users/86152/Desktop/单车越野/我的/代码调试/Bicycle_Code/libraries/sdk/Startup/startup_ch32v30x_D8C.S:276
I2C1_EV_IRQHandler:  1:  j 1b
    2c58:	a001                	j	2c58 <I2C1_EV_IRQHandler>

00002c5a <I2C1_ER_IRQHandler>:
I2C1_ER_IRQHandler():
C:/Users/86152/Desktop/单车越野/我的/代码调试/Bicycle_Code/libraries/sdk/Startup/startup_ch32v30x_D8C.S:277
I2C1_ER_IRQHandler:  1:  j 1b
    2c5a:	a001                	j	2c5a <I2C1_ER_IRQHandler>

00002c5c <I2C2_EV_IRQHandler>:
I2C2_EV_IRQHandler():
C:/Users/86152/Desktop/单车越野/我的/代码调试/Bicycle_Code/libraries/sdk/Startup/startup_ch32v30x_D8C.S:278
I2C2_EV_IRQHandler:  1:  j 1b
    2c5c:	a001                	j	2c5c <I2C2_EV_IRQHandler>

00002c5e <I2C2_ER_IRQHandler>:
I2C2_ER_IRQHandler():
C:/Users/86152/Desktop/单车越野/我的/代码调试/Bicycle_Code/libraries/sdk/Startup/startup_ch32v30x_D8C.S:279
I2C2_ER_IRQHandler:  1:  j 1b
    2c5e:	a001                	j	2c5e <I2C2_ER_IRQHandler>

00002c60 <SPI1_IRQHandler>:
SPI1_IRQHandler():
C:/Users/86152/Desktop/单车越野/我的/代码调试/Bicycle_Code/libraries/sdk/Startup/startup_ch32v30x_D8C.S:280
SPI1_IRQHandler:  1:  j 1b
    2c60:	a001                	j	2c60 <SPI1_IRQHandler>

00002c62 <SPI2_IRQHandler>:
SPI2_IRQHandler():
C:/Users/86152/Desktop/单车越野/我的/代码调试/Bicycle_Code/libraries/sdk/Startup/startup_ch32v30x_D8C.S:281
SPI2_IRQHandler:  1:  j 1b
    2c62:	a001                	j	2c62 <SPI2_IRQHandler>
C:/Users/86152/Desktop/单车越野/我的/代码调试/Bicycle_Code/libraries/sdk/Startup/startup_ch32v30x_D8C.S:282
USART1_IRQHandler:  1:  j 1b
    2c64:	a001                	j	2c64 <SPI2_IRQHandler+0x2>
C:/Users/86152/Desktop/单车越野/我的/代码调试/Bicycle_Code/libraries/sdk/Startup/startup_ch32v30x_D8C.S:283
USART2_IRQHandler:  1:  j 1b
    2c66:	a001                	j	2c66 <SPI2_IRQHandler+0x4>
C:/Users/86152/Desktop/单车越野/我的/代码调试/Bicycle_Code/libraries/sdk/Startup/startup_ch32v30x_D8C.S:284
USART3_IRQHandler:  1:  j 1b
    2c68:	a001                	j	2c68 <SPI2_IRQHandler+0x6>
C:/Users/86152/Desktop/单车越野/我的/代码调试/Bicycle_Code/libraries/sdk/Startup/startup_ch32v30x_D8C.S:285
EXTI15_10_IRQHandler:  1:  j 1b
    2c6a:	a001                	j	2c6a <SPI2_IRQHandler+0x8>

00002c6c <RTCAlarm_IRQHandler>:
RTCAlarm_IRQHandler():
C:/Users/86152/Desktop/单车越野/我的/代码调试/Bicycle_Code/libraries/sdk/Startup/startup_ch32v30x_D8C.S:286
RTCAlarm_IRQHandler:  1:  j 1b
    2c6c:	a001                	j	2c6c <RTCAlarm_IRQHandler>

00002c6e <USBWakeUp_IRQHandler>:
USBWakeUp_IRQHandler():
C:/Users/86152/Desktop/单车越野/我的/代码调试/Bicycle_Code/libraries/sdk/Startup/startup_ch32v30x_D8C.S:287
USBWakeUp_IRQHandler:  1:  j 1b
    2c6e:	a001                	j	2c6e <USBWakeUp_IRQHandler>

00002c70 <TIM8_BRK_IRQHandler>:
TIM8_BRK_IRQHandler():
C:/Users/86152/Desktop/单车越野/我的/代码调试/Bicycle_Code/libraries/sdk/Startup/startup_ch32v30x_D8C.S:288
TIM8_BRK_IRQHandler:  1:  j 1b
    2c70:	a001                	j	2c70 <TIM8_BRK_IRQHandler>
C:/Users/86152/Desktop/单车越野/我的/代码调试/Bicycle_Code/libraries/sdk/Startup/startup_ch32v30x_D8C.S:289
TIM8_UP_IRQHandler:  1:  j 1b
    2c72:	a001                	j	2c72 <TIM8_BRK_IRQHandler+0x2>

00002c74 <TIM8_TRG_COM_IRQHandler>:
TIM8_TRG_COM_IRQHandler():
C:/Users/86152/Desktop/单车越野/我的/代码调试/Bicycle_Code/libraries/sdk/Startup/startup_ch32v30x_D8C.S:290
TIM8_TRG_COM_IRQHandler:  1:  j 1b
    2c74:	a001                	j	2c74 <TIM8_TRG_COM_IRQHandler>

00002c76 <TIM8_CC_IRQHandler>:
TIM8_CC_IRQHandler():
C:/Users/86152/Desktop/单车越野/我的/代码调试/Bicycle_Code/libraries/sdk/Startup/startup_ch32v30x_D8C.S:291
TIM8_CC_IRQHandler:  1:  j 1b
    2c76:	a001                	j	2c76 <TIM8_CC_IRQHandler>

00002c78 <RNG_IRQHandler>:
RNG_IRQHandler():
C:/Users/86152/Desktop/单车越野/我的/代码调试/Bicycle_Code/libraries/sdk/Startup/startup_ch32v30x_D8C.S:292
RNG_IRQHandler:  1:  j 1b
    2c78:	a001                	j	2c78 <RNG_IRQHandler>

00002c7a <FSMC_IRQHandler>:
FSMC_IRQHandler():
C:/Users/86152/Desktop/单车越野/我的/代码调试/Bicycle_Code/libraries/sdk/Startup/startup_ch32v30x_D8C.S:293
FSMC_IRQHandler:  1:  j 1b
    2c7a:	a001                	j	2c7a <FSMC_IRQHandler>

00002c7c <SDIO_IRQHandler>:
SDIO_IRQHandler():
C:/Users/86152/Desktop/单车越野/我的/代码调试/Bicycle_Code/libraries/sdk/Startup/startup_ch32v30x_D8C.S:294
SDIO_IRQHandler:  1:  j 1b
    2c7c:	a001                	j	2c7c <SDIO_IRQHandler>
C:/Users/86152/Desktop/单车越野/我的/代码调试/Bicycle_Code/libraries/sdk/Startup/startup_ch32v30x_D8C.S:295
TIM5_IRQHandler:  1:  j 1b
    2c7e:	a001                	j	2c7e <SDIO_IRQHandler+0x2>

00002c80 <SPI3_IRQHandler>:
SPI3_IRQHandler():
C:/Users/86152/Desktop/单车越野/我的/代码调试/Bicycle_Code/libraries/sdk/Startup/startup_ch32v30x_D8C.S:296
SPI3_IRQHandler:  1:  j 1b
    2c80:	a001                	j	2c80 <SPI3_IRQHandler>
C:/Users/86152/Desktop/单车越野/我的/代码调试/Bicycle_Code/libraries/sdk/Startup/startup_ch32v30x_D8C.S:297
UART4_IRQHandler:  1:  j 1b
    2c82:	a001                	j	2c82 <SPI3_IRQHandler+0x2>
C:/Users/86152/Desktop/单车越野/我的/代码调试/Bicycle_Code/libraries/sdk/Startup/startup_ch32v30x_D8C.S:298
UART5_IRQHandler:  1:  j 1b
    2c84:	a001                	j	2c84 <SPI3_IRQHandler+0x4>
C:/Users/86152/Desktop/单车越野/我的/代码调试/Bicycle_Code/libraries/sdk/Startup/startup_ch32v30x_D8C.S:299
TIM6_IRQHandler:  1:  j 1b
    2c86:	a001                	j	2c86 <SPI3_IRQHandler+0x6>
C:/Users/86152/Desktop/单车越野/我的/代码调试/Bicycle_Code/libraries/sdk/Startup/startup_ch32v30x_D8C.S:300
TIM7_IRQHandler:  1:  j 1b
    2c88:	a001                	j	2c88 <SPI3_IRQHandler+0x8>

00002c8a <DMA2_Channel1_IRQHandler>:
DMA2_Channel1_IRQHandler():
C:/Users/86152/Desktop/单车越野/我的/代码调试/Bicycle_Code/libraries/sdk/Startup/startup_ch32v30x_D8C.S:301
DMA2_Channel1_IRQHandler:  1:  j 1b
    2c8a:	a001                	j	2c8a <DMA2_Channel1_IRQHandler>

00002c8c <DMA2_Channel2_IRQHandler>:
DMA2_Channel2_IRQHandler():
C:/Users/86152/Desktop/单车越野/我的/代码调试/Bicycle_Code/libraries/sdk/Startup/startup_ch32v30x_D8C.S:302
DMA2_Channel2_IRQHandler:  1:  j 1b
    2c8c:	a001                	j	2c8c <DMA2_Channel2_IRQHandler>

00002c8e <DMA2_Channel3_IRQHandler>:
DMA2_Channel3_IRQHandler():
C:/Users/86152/Desktop/单车越野/我的/代码调试/Bicycle_Code/libraries/sdk/Startup/startup_ch32v30x_D8C.S:303
DMA2_Channel3_IRQHandler:  1:  j 1b
    2c8e:	a001                	j	2c8e <DMA2_Channel3_IRQHandler>

00002c90 <DMA2_Channel4_IRQHandler>:
DMA2_Channel4_IRQHandler():
C:/Users/86152/Desktop/单车越野/我的/代码调试/Bicycle_Code/libraries/sdk/Startup/startup_ch32v30x_D8C.S:304
DMA2_Channel4_IRQHandler:  1:  j 1b
    2c90:	a001                	j	2c90 <DMA2_Channel4_IRQHandler>

00002c92 <DMA2_Channel5_IRQHandler>:
DMA2_Channel5_IRQHandler():
C:/Users/86152/Desktop/单车越野/我的/代码调试/Bicycle_Code/libraries/sdk/Startup/startup_ch32v30x_D8C.S:305
DMA2_Channel5_IRQHandler:  1:  j 1b
    2c92:	a001                	j	2c92 <DMA2_Channel5_IRQHandler>

00002c94 <ETH_IRQHandler>:
ETH_IRQHandler():
C:/Users/86152/Desktop/单车越野/我的/代码调试/Bicycle_Code/libraries/sdk/Startup/startup_ch32v30x_D8C.S:306
ETH_IRQHandler:  1:  j 1b
    2c94:	a001                	j	2c94 <ETH_IRQHandler>

00002c96 <ETH_WKUP_IRQHandler>:
ETH_WKUP_IRQHandler():
C:/Users/86152/Desktop/单车越野/我的/代码调试/Bicycle_Code/libraries/sdk/Startup/startup_ch32v30x_D8C.S:307
ETH_WKUP_IRQHandler:  1:  j 1b
    2c96:	a001                	j	2c96 <ETH_WKUP_IRQHandler>

00002c98 <CAN2_TX_IRQHandler>:
CAN2_TX_IRQHandler():
C:/Users/86152/Desktop/单车越野/我的/代码调试/Bicycle_Code/libraries/sdk/Startup/startup_ch32v30x_D8C.S:308
CAN2_TX_IRQHandler:  1:  j 1b
    2c98:	a001                	j	2c98 <CAN2_TX_IRQHandler>

00002c9a <CAN2_RX0_IRQHandler>:
CAN2_RX0_IRQHandler():
C:/Users/86152/Desktop/单车越野/我的/代码调试/Bicycle_Code/libraries/sdk/Startup/startup_ch32v30x_D8C.S:309
CAN2_RX0_IRQHandler:  1:  j 1b
    2c9a:	a001                	j	2c9a <CAN2_RX0_IRQHandler>

00002c9c <CAN2_RX1_IRQHandler>:
CAN2_RX1_IRQHandler():
C:/Users/86152/Desktop/单车越野/我的/代码调试/Bicycle_Code/libraries/sdk/Startup/startup_ch32v30x_D8C.S:310
CAN2_RX1_IRQHandler:  1:  j 1b
    2c9c:	a001                	j	2c9c <CAN2_RX1_IRQHandler>

00002c9e <CAN2_SCE_IRQHandler>:
CAN2_SCE_IRQHandler():
C:/Users/86152/Desktop/单车越野/我的/代码调试/Bicycle_Code/libraries/sdk/Startup/startup_ch32v30x_D8C.S:311
CAN2_SCE_IRQHandler:  1:  j 1b
    2c9e:	a001                	j	2c9e <CAN2_SCE_IRQHandler>
C:/Users/86152/Desktop/单车越野/我的/代码调试/Bicycle_Code/libraries/sdk/Startup/startup_ch32v30x_D8C.S:312
OTG_FS_IRQHandler:  1:  j 1b
    2ca0:	a001                	j	2ca0 <CAN2_SCE_IRQHandler+0x2>

00002ca2 <USBHSWakeup_IRQHandler>:
USBHSWakeup_IRQHandler():
C:/Users/86152/Desktop/单车越野/我的/代码调试/Bicycle_Code/libraries/sdk/Startup/startup_ch32v30x_D8C.S:313
USBHSWakeup_IRQHandler:  1:  j 1b
    2ca2:	a001                	j	2ca2 <USBHSWakeup_IRQHandler>

00002ca4 <USBHS_IRQHandler>:
USBHS_IRQHandler():
C:/Users/86152/Desktop/单车越野/我的/代码调试/Bicycle_Code/libraries/sdk/Startup/startup_ch32v30x_D8C.S:314
USBHS_IRQHandler:  1:  j 1b
    2ca4:	a001                	j	2ca4 <USBHS_IRQHandler>
C:/Users/86152/Desktop/单车越野/我的/代码调试/Bicycle_Code/libraries/sdk/Startup/startup_ch32v30x_D8C.S:315
DVP_IRQHandler:  1:  j 1b
    2ca6:	a001                	j	2ca6 <USBHS_IRQHandler+0x2>
C:/Users/86152/Desktop/单车越野/我的/代码调试/Bicycle_Code/libraries/sdk/Startup/startup_ch32v30x_D8C.S:316
UART6_IRQHandler:  1:  j 1b
    2ca8:	a001                	j	2ca8 <USBHS_IRQHandler+0x4>
C:/Users/86152/Desktop/单车越野/我的/代码调试/Bicycle_Code/libraries/sdk/Startup/startup_ch32v30x_D8C.S:317
UART7_IRQHandler:  1:  j 1b
    2caa:	a001                	j	2caa <USBHS_IRQHandler+0x6>
C:/Users/86152/Desktop/单车越野/我的/代码调试/Bicycle_Code/libraries/sdk/Startup/startup_ch32v30x_D8C.S:318
UART8_IRQHandler:  1:  j 1b
    2cac:	a001                	j	2cac <USBHS_IRQHandler+0x8>

00002cae <TIM9_BRK_IRQHandler>:
TIM9_BRK_IRQHandler():
C:/Users/86152/Desktop/单车越野/我的/代码调试/Bicycle_Code/libraries/sdk/Startup/startup_ch32v30x_D8C.S:319
TIM9_BRK_IRQHandler:  1:  j 1b
    2cae:	a001                	j	2cae <TIM9_BRK_IRQHandler>
C:/Users/86152/Desktop/单车越野/我的/代码调试/Bicycle_Code/libraries/sdk/Startup/startup_ch32v30x_D8C.S:320
TIM9_UP_IRQHandler:  1:  j 1b
    2cb0:	a001                	j	2cb0 <TIM9_BRK_IRQHandler+0x2>

00002cb2 <TIM9_TRG_COM_IRQHandler>:
TIM9_TRG_COM_IRQHandler():
C:/Users/86152/Desktop/单车越野/我的/代码调试/Bicycle_Code/libraries/sdk/Startup/startup_ch32v30x_D8C.S:321
TIM9_TRG_COM_IRQHandler:  1:  j 1b
    2cb2:	a001                	j	2cb2 <TIM9_TRG_COM_IRQHandler>

00002cb4 <TIM9_CC_IRQHandler>:
TIM9_CC_IRQHandler():
C:/Users/86152/Desktop/单车越野/我的/代码调试/Bicycle_Code/libraries/sdk/Startup/startup_ch32v30x_D8C.S:322
TIM9_CC_IRQHandler:  1:  j 1b
    2cb4:	a001                	j	2cb4 <TIM9_CC_IRQHandler>

00002cb6 <TIM10_BRK_IRQHandler>:
TIM10_BRK_IRQHandler():
C:/Users/86152/Desktop/单车越野/我的/代码调试/Bicycle_Code/libraries/sdk/Startup/startup_ch32v30x_D8C.S:323
TIM10_BRK_IRQHandler:  1:  j 1b
    2cb6:	a001                	j	2cb6 <TIM10_BRK_IRQHandler>
C:/Users/86152/Desktop/单车越野/我的/代码调试/Bicycle_Code/libraries/sdk/Startup/startup_ch32v30x_D8C.S:324
TIM10_UP_IRQHandler:  1:  j 1b
    2cb8:	a001                	j	2cb8 <TIM10_BRK_IRQHandler+0x2>

00002cba <TIM10_TRG_COM_IRQHandler>:
TIM10_TRG_COM_IRQHandler():
C:/Users/86152/Desktop/单车越野/我的/代码调试/Bicycle_Code/libraries/sdk/Startup/startup_ch32v30x_D8C.S:325
TIM10_TRG_COM_IRQHandler:  1:  j 1b
    2cba:	a001                	j	2cba <TIM10_TRG_COM_IRQHandler>

00002cbc <TIM10_CC_IRQHandler>:
TIM10_CC_IRQHandler():
C:/Users/86152/Desktop/单车越野/我的/代码调试/Bicycle_Code/libraries/sdk/Startup/startup_ch32v30x_D8C.S:326
TIM10_CC_IRQHandler:  1:  j 1b
    2cbc:	a001                	j	2cbc <TIM10_CC_IRQHandler>

00002cbe <DMA2_Channel6_IRQHandler>:
DMA2_Channel6_IRQHandler():
C:/Users/86152/Desktop/单车越野/我的/代码调试/Bicycle_Code/libraries/sdk/Startup/startup_ch32v30x_D8C.S:327
DMA2_Channel6_IRQHandler:  1:  j 1b
    2cbe:	a001                	j	2cbe <DMA2_Channel6_IRQHandler>

00002cc0 <DMA2_Channel7_IRQHandler>:
DMA2_Channel7_IRQHandler():
C:/Users/86152/Desktop/单车越野/我的/代码调试/Bicycle_Code/libraries/sdk/Startup/startup_ch32v30x_D8C.S:328
DMA2_Channel7_IRQHandler:  1:  j 1b
    2cc0:	a001                	j	2cc0 <DMA2_Channel7_IRQHandler>

00002cc2 <DMA2_Channel8_IRQHandler>:
DMA2_Channel8_IRQHandler():
C:/Users/86152/Desktop/单车越野/我的/代码调试/Bicycle_Code/libraries/sdk/Startup/startup_ch32v30x_D8C.S:329
DMA2_Channel8_IRQHandler:  1:  j 1b
    2cc2:	a001                	j	2cc2 <DMA2_Channel8_IRQHandler>

00002cc4 <DMA2_Channel9_IRQHandler>:
DMA2_Channel9_IRQHandler():
C:/Users/86152/Desktop/单车越野/我的/代码调试/Bicycle_Code/libraries/sdk/Startup/startup_ch32v30x_D8C.S:330
DMA2_Channel9_IRQHandler:  1:  j 1b
    2cc4:	a001                	j	2cc4 <DMA2_Channel9_IRQHandler>

00002cc6 <DMA2_Channel10_IRQHandler>:
DMA2_Channel10_IRQHandler():
C:/Users/86152/Desktop/单车越野/我的/代码调试/Bicycle_Code/libraries/sdk/Startup/startup_ch32v30x_D8C.S:331
DMA2_Channel10_IRQHandler:  1:  j 1b
    2cc6:	a001                	j	2cc6 <DMA2_Channel10_IRQHandler>

00002cc8 <DMA2_Channel11_IRQHandler>:
DMA2_Channel11_IRQHandler():
C:/Users/86152/Desktop/单车越野/我的/代码调试/Bicycle_Code/libraries/sdk/Startup/startup_ch32v30x_D8C.S:332
DMA2_Channel11_IRQHandler:  1:  j 1b
    2cc8:	a001                	j	2cc8 <DMA2_Channel11_IRQHandler>

00002cca <handle_reset>:
handle_reset():
C:/Users/86152/Desktop/单车越野/我的/代码调试/Bicycle_Code/libraries/sdk/Startup/startup_ch32v30x_D8C.S:341
	.weak	handle_reset
	.align	1
handle_reset:
.option push 
.option	norelax 
	la gp, __global_pointer$
    2cca:	1fffe197          	auipc	gp,0x1fffe
    2cce:	d6e18193          	addi	gp,gp,-658 # 20000a38 <__global_pointer$>
C:/Users/86152/Desktop/单车越野/我的/代码调试/Bicycle_Code/libraries/sdk/Startup/startup_ch32v30x_D8C.S:344
.option	pop 
1:
	la sp, _eusrstack 
    2cd2:	2000d117          	auipc	sp,0x2000d
    2cd6:	32e10113          	addi	sp,sp,814 # 20010000 <_eusrstack>
C:/Users/86152/Desktop/单车越野/我的/代码调试/Bicycle_Code/libraries/sdk/Startup/startup_ch32v30x_D8C.S:347
2:
	/* Load data section from flash to RAM */
	la a0, _data_lma
    2cda:	00008517          	auipc	a0,0x8
    2cde:	f7a50513          	addi	a0,a0,-134 # ac54 <_data_lma>
C:/Users/86152/Desktop/单车越野/我的/代码调试/Bicycle_Code/libraries/sdk/Startup/startup_ch32v30x_D8C.S:348
	la a1, _data_vma
    2ce2:	1fffd597          	auipc	a1,0x1fffd
    2ce6:	31e58593          	addi	a1,a1,798 # 20000000 <_data_vma>
C:/Users/86152/Desktop/单车越野/我的/代码调试/Bicycle_Code/libraries/sdk/Startup/startup_ch32v30x_D8C.S:349
	la a2, _edata
    2cea:	83018613          	addi	a2,gp,-2000 # 20000268 <_edata>
C:/Users/86152/Desktop/单车越野/我的/代码调试/Bicycle_Code/libraries/sdk/Startup/startup_ch32v30x_D8C.S:350
	bgeu a1, a2, 2f
    2cee:	00c5fa63          	bgeu	a1,a2,2d02 <handle_reset+0x38>
C:/Users/86152/Desktop/单车越野/我的/代码调试/Bicycle_Code/libraries/sdk/Startup/startup_ch32v30x_D8C.S:352
1:
	lw t0, (a0)
    2cf2:	00052283          	lw	t0,0(a0)
C:/Users/86152/Desktop/单车越野/我的/代码调试/Bicycle_Code/libraries/sdk/Startup/startup_ch32v30x_D8C.S:353
	sw t0, (a1)
    2cf6:	0055a023          	sw	t0,0(a1)
C:/Users/86152/Desktop/单车越野/我的/代码调试/Bicycle_Code/libraries/sdk/Startup/startup_ch32v30x_D8C.S:354
	addi a0, a0, 4
    2cfa:	0511                	addi	a0,a0,4
C:/Users/86152/Desktop/单车越野/我的/代码调试/Bicycle_Code/libraries/sdk/Startup/startup_ch32v30x_D8C.S:355
	addi a1, a1, 4
    2cfc:	0591                	addi	a1,a1,4
C:/Users/86152/Desktop/单车越野/我的/代码调试/Bicycle_Code/libraries/sdk/Startup/startup_ch32v30x_D8C.S:356
	bltu a1, a2, 1b
    2cfe:	fec5eae3          	bltu	a1,a2,2cf2 <handle_reset+0x28>
C:/Users/86152/Desktop/单车越野/我的/代码调试/Bicycle_Code/libraries/sdk/Startup/startup_ch32v30x_D8C.S:359
2:
	/* Clear bss section */
	la a0, _sbss
    2d02:	83018513          	addi	a0,gp,-2000 # 20000268 <_edata>
C:/Users/86152/Desktop/单车越野/我的/代码调试/Bicycle_Code/libraries/sdk/Startup/startup_ch32v30x_D8C.S:360
	la a1, _ebss
    2d06:	9a418593          	addi	a1,gp,-1628 # 200003dc <_ebss>
C:/Users/86152/Desktop/单车越野/我的/代码调试/Bicycle_Code/libraries/sdk/Startup/startup_ch32v30x_D8C.S:361
	bgeu a0, a1, 2f
    2d0a:	00b57763          	bgeu	a0,a1,2d18 <handle_reset+0x4e>
C:/Users/86152/Desktop/单车越野/我的/代码调试/Bicycle_Code/libraries/sdk/Startup/startup_ch32v30x_D8C.S:363
1:
	sw zero, (a0)
    2d0e:	00052023          	sw	zero,0(a0)
C:/Users/86152/Desktop/单车越野/我的/代码调试/Bicycle_Code/libraries/sdk/Startup/startup_ch32v30x_D8C.S:364
	addi a0, a0, 4
    2d12:	0511                	addi	a0,a0,4
C:/Users/86152/Desktop/单车越野/我的/代码调试/Bicycle_Code/libraries/sdk/Startup/startup_ch32v30x_D8C.S:365
	bltu a0, a1, 1b
    2d14:	feb56de3          	bltu	a0,a1,2d0e <handle_reset+0x44>
C:/Users/86152/Desktop/单车越野/我的/代码调试/Bicycle_Code/libraries/sdk/Startup/startup_ch32v30x_D8C.S:367
2:
    li t0, 0x1f
    2d18:	42fd                	li	t0,31
C:/Users/86152/Desktop/单车越野/我的/代码调试/Bicycle_Code/libraries/sdk/Startup/startup_ch32v30x_D8C.S:368
    csrw 0xbc0, t0
    2d1a:	bc029073          	csrw	0xbc0,t0
C:/Users/86152/Desktop/单车越野/我的/代码调试/Bicycle_Code/libraries/sdk/Startup/startup_ch32v30x_D8C.S:372

    /* Enable nested and hardware stack */
    /*  开启8级中断嵌套 */
	li t0, 0x1f
    2d1e:	42fd                	li	t0,31
C:/Users/86152/Desktop/单车越野/我的/代码调试/Bicycle_Code/libraries/sdk/Startup/startup_ch32v30x_D8C.S:373
	csrw 0x804, t0
    2d20:	80429073          	csrw	0x804,t0
C:/Users/86152/Desktop/单车越野/我的/代码调试/Bicycle_Code/libraries/sdk/Startup/startup_ch32v30x_D8C.S:377

    /* Enable floating point and interrupt */
    /* 使能用户模式 */
   	li t0, 0x6088
    2d24:	000062b7          	lui	t0,0x6
    2d28:	08828293          	addi	t0,t0,136 # 6088 <__muldf3+0x602>
C:/Users/86152/Desktop/单车越野/我的/代码调试/Bicycle_Code/libraries/sdk/Startup/startup_ch32v30x_D8C.S:382
    /*
	 使能机器模式
	li t0, 0x7888
	*/
   	csrs mstatus, t0
    2d2c:	3002a073          	csrs	mstatus,t0
C:/Users/86152/Desktop/单车越野/我的/代码调试/Bicycle_Code/libraries/sdk/Startup/startup_ch32v30x_D8C.S:384

 	la t0, _vector_base
    2d30:	ffffd297          	auipc	t0,0xffffd
    2d34:	30828293          	addi	t0,t0,776 # 38 <_einit>
C:/Users/86152/Desktop/单车越野/我的/代码调试/Bicycle_Code/libraries/sdk/Startup/startup_ch32v30x_D8C.S:385
    ori t0, t0, 3           
    2d38:	0032e293          	ori	t0,t0,3
C:/Users/86152/Desktop/单车越野/我的/代码调试/Bicycle_Code/libraries/sdk/Startup/startup_ch32v30x_D8C.S:386
	csrw mtvec, t0
    2d3c:	30529073          	csrw	mtvec,t0
C:/Users/86152/Desktop/单车越野/我的/代码调试/Bicycle_Code/libraries/sdk/Startup/startup_ch32v30x_D8C.S:389

    #jal  SystemInit
	la t0, main
    2d40:	00000297          	auipc	t0,0x0
    2d44:	eb228293          	addi	t0,t0,-334 # 2bf2 <main>
C:/Users/86152/Desktop/单车越野/我的/代码调试/Bicycle_Code/libraries/sdk/Startup/startup_ch32v30x_D8C.S:390
	csrw mepc, t0
    2d48:	34129073          	csrw	mepc,t0
C:/Users/86152/Desktop/单车越野/我的/代码调试/Bicycle_Code/libraries/sdk/Startup/startup_ch32v30x_D8C.S:391
	mret
    2d4c:	30200073          	mret

00002d50 <EXTI_GetITStatus>:
EXTI_GetITStatus():
C:/Users/86152/Desktop/单车越野/我的/代码调试/Bicycle_Code/libraries/sdk/Peripheral/ch32v30x_exti.c:152
 * @param   EXTI_Line - specifies the EXTI lines to be enabled or disabled.
 *
 * @return  The new state of EXTI_Line (SET or RESET).
 */
ITStatus EXTI_GetITStatus(uint32_t EXTI_Line)
{
    2d50:	7179                	addi	sp,sp,-48
    2d52:	d622                	sw	s0,44(sp)
    2d54:	1800                	addi	s0,sp,48
    2d56:	fca42e23          	sw	a0,-36(s0)
C:/Users/86152/Desktop/单车越野/我的/代码调试/Bicycle_Code/libraries/sdk/Peripheral/ch32v30x_exti.c:153
    ITStatus bitstatus = RESET;
    2d5a:	fe042623          	sw	zero,-20(s0)
C:/Users/86152/Desktop/单车越野/我的/代码调试/Bicycle_Code/libraries/sdk/Peripheral/ch32v30x_exti.c:154
    uint32_t enablestatus = 0;
    2d5e:	fe042423          	sw	zero,-24(s0)
C:/Users/86152/Desktop/单车越野/我的/代码调试/Bicycle_Code/libraries/sdk/Peripheral/ch32v30x_exti.c:156

    enablestatus = EXTI->INTENR & EXTI_Line;
    2d62:	400107b7          	lui	a5,0x40010
    2d66:	40078793          	addi	a5,a5,1024 # 40010400 <_eusrstack+0x20000400>
    2d6a:	439c                	lw	a5,0(a5)
    2d6c:	fdc42703          	lw	a4,-36(s0)
    2d70:	8ff9                	and	a5,a5,a4
    2d72:	fef42423          	sw	a5,-24(s0)
C:/Users/86152/Desktop/单车越野/我的/代码调试/Bicycle_Code/libraries/sdk/Peripheral/ch32v30x_exti.c:157
    if(((EXTI->INTFR & EXTI_Line) != (uint32_t)RESET) && (enablestatus != (uint32_t)RESET))
    2d76:	400107b7          	lui	a5,0x40010
    2d7a:	40078793          	addi	a5,a5,1024 # 40010400 <_eusrstack+0x20000400>
    2d7e:	4bd8                	lw	a4,20(a5)
    2d80:	fdc42783          	lw	a5,-36(s0)
    2d84:	8ff9                	and	a5,a5,a4
    2d86:	cb81                	beqz	a5,2d96 <EXTI_GetITStatus+0x46>
C:/Users/86152/Desktop/单车越野/我的/代码调试/Bicycle_Code/libraries/sdk/Peripheral/ch32v30x_exti.c:157 (discriminator 1)
    2d88:	fe842783          	lw	a5,-24(s0)
    2d8c:	c789                	beqz	a5,2d96 <EXTI_GetITStatus+0x46>
C:/Users/86152/Desktop/单车越野/我的/代码调试/Bicycle_Code/libraries/sdk/Peripheral/ch32v30x_exti.c:159
    {
        bitstatus = SET;
    2d8e:	4785                	li	a5,1
    2d90:	fef42623          	sw	a5,-20(s0)
    2d94:	a019                	j	2d9a <EXTI_GetITStatus+0x4a>
C:/Users/86152/Desktop/单车越野/我的/代码调试/Bicycle_Code/libraries/sdk/Peripheral/ch32v30x_exti.c:163
    }
    else
    {
        bitstatus = RESET;
    2d96:	fe042623          	sw	zero,-20(s0)
C:/Users/86152/Desktop/单车越野/我的/代码调试/Bicycle_Code/libraries/sdk/Peripheral/ch32v30x_exti.c:165
    }
    return bitstatus;
    2d9a:	fec42783          	lw	a5,-20(s0)
C:/Users/86152/Desktop/单车越野/我的/代码调试/Bicycle_Code/libraries/sdk/Peripheral/ch32v30x_exti.c:166
}
    2d9e:	853e                	mv	a0,a5
    2da0:	5432                	lw	s0,44(sp)
    2da2:	6145                	addi	sp,sp,48
    2da4:	8082                	ret

00002da6 <EXTI_ClearITPendingBit>:
EXTI_ClearITPendingBit():
C:/Users/86152/Desktop/单车越野/我的/代码调试/Bicycle_Code/libraries/sdk/Peripheral/ch32v30x_exti.c:178
 * @param   EXTI_Line - specifies the EXTI lines to be enabled or disabled.
 *
 * @return  none
 */
void EXTI_ClearITPendingBit(uint32_t EXTI_Line)
{
    2da6:	1101                	addi	sp,sp,-32
    2da8:	ce22                	sw	s0,28(sp)
    2daa:	1000                	addi	s0,sp,32
    2dac:	fea42623          	sw	a0,-20(s0)
C:/Users/86152/Desktop/单车越野/我的/代码调试/Bicycle_Code/libraries/sdk/Peripheral/ch32v30x_exti.c:179
    EXTI->INTFR = EXTI_Line;
    2db0:	400107b7          	lui	a5,0x40010
    2db4:	40078793          	addi	a5,a5,1024 # 40010400 <_eusrstack+0x20000400>
    2db8:	fec42703          	lw	a4,-20(s0)
    2dbc:	cbd8                	sw	a4,20(a5)
C:/Users/86152/Desktop/单车越野/我的/代码调试/Bicycle_Code/libraries/sdk/Peripheral/ch32v30x_exti.c:180
}
    2dbe:	0001                	nop
    2dc0:	4472                	lw	s0,28(sp)
    2dc2:	6105                	addi	sp,sp,32
    2dc4:	8082                	ret

00002dc6 <GPIO_Init>:
GPIO_Init():
C:/Users/86152/Desktop/单车越野/我的/代码调试/Bicycle_Code/libraries/sdk/Peripheral/ch32v30x_gpio.c:85
 *        contains the configuration information for the specified GPIO peripheral.
 *
 * @return  none
 */
void GPIO_Init(GPIO_TypeDef *GPIOx, GPIO_InitTypeDef *GPIO_InitStruct)
{
    2dc6:	7139                	addi	sp,sp,-64
    2dc8:	de22                	sw	s0,60(sp)
    2dca:	0080                	addi	s0,sp,64
    2dcc:	fca42623          	sw	a0,-52(s0)
    2dd0:	fcb42423          	sw	a1,-56(s0)
C:/Users/86152/Desktop/单车越野/我的/代码调试/Bicycle_Code/libraries/sdk/Peripheral/ch32v30x_gpio.c:86
    uint32_t currentmode = 0x00, currentpin = 0x00, pinpos = 0x00, pos = 0x00;
    2dd4:	fe042623          	sw	zero,-20(s0)
    2dd8:	fe042023          	sw	zero,-32(s0)
    2ddc:	fe042423          	sw	zero,-24(s0)
    2de0:	fc042e23          	sw	zero,-36(s0)
C:/Users/86152/Desktop/单车越野/我的/代码调试/Bicycle_Code/libraries/sdk/Peripheral/ch32v30x_gpio.c:87
    uint32_t tmpreg = 0x00, pinmask = 0x00;
    2de4:	fe042223          	sw	zero,-28(s0)
    2de8:	fc042c23          	sw	zero,-40(s0)
C:/Users/86152/Desktop/单车越野/我的/代码调试/Bicycle_Code/libraries/sdk/Peripheral/ch32v30x_gpio.c:89

    currentmode = ((uint32_t)GPIO_InitStruct->GPIO_Mode) & ((uint32_t)0x0F);
    2dec:	fc842783          	lw	a5,-56(s0)
    2df0:	479c                	lw	a5,8(a5)
    2df2:	8bbd                	andi	a5,a5,15
    2df4:	fef42623          	sw	a5,-20(s0)
C:/Users/86152/Desktop/单车越野/我的/代码调试/Bicycle_Code/libraries/sdk/Peripheral/ch32v30x_gpio.c:91

    if((((uint32_t)GPIO_InitStruct->GPIO_Mode) & ((uint32_t)0x10)) != 0x00)
    2df8:	fc842783          	lw	a5,-56(s0)
    2dfc:	479c                	lw	a5,8(a5)
    2dfe:	8bc1                	andi	a5,a5,16
    2e00:	cb89                	beqz	a5,2e12 <GPIO_Init+0x4c>
C:/Users/86152/Desktop/单车越野/我的/代码调试/Bicycle_Code/libraries/sdk/Peripheral/ch32v30x_gpio.c:93
    {
        currentmode |= (uint32_t)GPIO_InitStruct->GPIO_Speed;
    2e02:	fc842783          	lw	a5,-56(s0)
    2e06:	43dc                	lw	a5,4(a5)
    2e08:	fec42703          	lw	a4,-20(s0)
    2e0c:	8fd9                	or	a5,a5,a4
    2e0e:	fef42623          	sw	a5,-20(s0)
C:/Users/86152/Desktop/单车越野/我的/代码调试/Bicycle_Code/libraries/sdk/Peripheral/ch32v30x_gpio.c:96
    }

    if(((uint32_t)GPIO_InitStruct->GPIO_Pin & ((uint32_t)0x00FF)) != 0x00)
    2e12:	fc842783          	lw	a5,-56(s0)
    2e16:	0007d783          	lhu	a5,0(a5)
    2e1a:	0ff7f793          	andi	a5,a5,255
    2e1e:	cff1                	beqz	a5,2efa <GPIO_Init+0x134>
C:/Users/86152/Desktop/单车越野/我的/代码调试/Bicycle_Code/libraries/sdk/Peripheral/ch32v30x_gpio.c:98
    {
        tmpreg = GPIOx->CFGLR;
    2e20:	fcc42783          	lw	a5,-52(s0)
    2e24:	439c                	lw	a5,0(a5)
    2e26:	fef42223          	sw	a5,-28(s0)
C:/Users/86152/Desktop/单车越野/我的/代码调试/Bicycle_Code/libraries/sdk/Peripheral/ch32v30x_gpio.c:100

        for(pinpos = 0x00; pinpos < 0x08; pinpos++)
    2e2a:	fe042423          	sw	zero,-24(s0)
    2e2e:	a865                	j	2ee6 <GPIO_Init+0x120>
C:/Users/86152/Desktop/单车越野/我的/代码调试/Bicycle_Code/libraries/sdk/Peripheral/ch32v30x_gpio.c:102
        {
            pos = ((uint32_t)0x01) << pinpos;
    2e30:	fe842783          	lw	a5,-24(s0)
    2e34:	4705                	li	a4,1
    2e36:	00f717b3          	sll	a5,a4,a5
    2e3a:	fcf42e23          	sw	a5,-36(s0)
C:/Users/86152/Desktop/单车越野/我的/代码调试/Bicycle_Code/libraries/sdk/Peripheral/ch32v30x_gpio.c:103
            currentpin = (GPIO_InitStruct->GPIO_Pin) & pos;
    2e3e:	fc842783          	lw	a5,-56(s0)
    2e42:	0007d783          	lhu	a5,0(a5)
    2e46:	873e                	mv	a4,a5
    2e48:	fdc42783          	lw	a5,-36(s0)
    2e4c:	8ff9                	and	a5,a5,a4
    2e4e:	fef42023          	sw	a5,-32(s0)
C:/Users/86152/Desktop/单车越野/我的/代码调试/Bicycle_Code/libraries/sdk/Peripheral/ch32v30x_gpio.c:105

            if(currentpin == pos)
    2e52:	fe042703          	lw	a4,-32(s0)
    2e56:	fdc42783          	lw	a5,-36(s0)
    2e5a:	08f71163          	bne	a4,a5,2edc <GPIO_Init+0x116>
C:/Users/86152/Desktop/单车越野/我的/代码调试/Bicycle_Code/libraries/sdk/Peripheral/ch32v30x_gpio.c:107
            {
                pos = pinpos << 2;
    2e5e:	fe842783          	lw	a5,-24(s0)
    2e62:	078a                	slli	a5,a5,0x2
    2e64:	fcf42e23          	sw	a5,-36(s0)
C:/Users/86152/Desktop/单车越野/我的/代码调试/Bicycle_Code/libraries/sdk/Peripheral/ch32v30x_gpio.c:108
                pinmask = ((uint32_t)0x0F) << pos;
    2e68:	fdc42783          	lw	a5,-36(s0)
    2e6c:	473d                	li	a4,15
    2e6e:	00f717b3          	sll	a5,a4,a5
    2e72:	fcf42c23          	sw	a5,-40(s0)
C:/Users/86152/Desktop/单车越野/我的/代码调试/Bicycle_Code/libraries/sdk/Peripheral/ch32v30x_gpio.c:109
                tmpreg &= ~pinmask;
    2e76:	fd842783          	lw	a5,-40(s0)
    2e7a:	fff7c793          	not	a5,a5
    2e7e:	fe442703          	lw	a4,-28(s0)
    2e82:	8ff9                	and	a5,a5,a4
    2e84:	fef42223          	sw	a5,-28(s0)
C:/Users/86152/Desktop/单车越野/我的/代码调试/Bicycle_Code/libraries/sdk/Peripheral/ch32v30x_gpio.c:110
                tmpreg |= (currentmode << pos);
    2e88:	fdc42783          	lw	a5,-36(s0)
    2e8c:	fec42703          	lw	a4,-20(s0)
    2e90:	00f717b3          	sll	a5,a4,a5
    2e94:	fe442703          	lw	a4,-28(s0)
    2e98:	8fd9                	or	a5,a5,a4
    2e9a:	fef42223          	sw	a5,-28(s0)
C:/Users/86152/Desktop/单车越野/我的/代码调试/Bicycle_Code/libraries/sdk/Peripheral/ch32v30x_gpio.c:112

                if(GPIO_InitStruct->GPIO_Mode == GPIO_Mode_IPD)
    2e9e:	fc842783          	lw	a5,-56(s0)
    2ea2:	4798                	lw	a4,8(a5)
    2ea4:	02800793          	li	a5,40
    2ea8:	00f71b63          	bne	a4,a5,2ebe <GPIO_Init+0xf8>
C:/Users/86152/Desktop/单车越野/我的/代码调试/Bicycle_Code/libraries/sdk/Peripheral/ch32v30x_gpio.c:114
                {
                    GPIOx->BCR = (((uint32_t)0x01) << pinpos);
    2eac:	fe842783          	lw	a5,-24(s0)
    2eb0:	4705                	li	a4,1
    2eb2:	00f71733          	sll	a4,a4,a5
    2eb6:	fcc42783          	lw	a5,-52(s0)
    2eba:	cbd8                	sw	a4,20(a5)
    2ebc:	a005                	j	2edc <GPIO_Init+0x116>
C:/Users/86152/Desktop/单车越野/我的/代码调试/Bicycle_Code/libraries/sdk/Peripheral/ch32v30x_gpio.c:118
                }
                else
                {
                    if(GPIO_InitStruct->GPIO_Mode == GPIO_Mode_IPU)
    2ebe:	fc842783          	lw	a5,-56(s0)
    2ec2:	4798                	lw	a4,8(a5)
    2ec4:	04800793          	li	a5,72
    2ec8:	00f71a63          	bne	a4,a5,2edc <GPIO_Init+0x116>
C:/Users/86152/Desktop/单车越野/我的/代码调试/Bicycle_Code/libraries/sdk/Peripheral/ch32v30x_gpio.c:120
                    {
                        GPIOx->BSHR = (((uint32_t)0x01) << pinpos);
    2ecc:	fe842783          	lw	a5,-24(s0)
    2ed0:	4705                	li	a4,1
    2ed2:	00f71733          	sll	a4,a4,a5
    2ed6:	fcc42783          	lw	a5,-52(s0)
    2eda:	cb98                	sw	a4,16(a5)
C:/Users/86152/Desktop/单车越野/我的/代码调试/Bicycle_Code/libraries/sdk/Peripheral/ch32v30x_gpio.c:100 (discriminator 2)
        for(pinpos = 0x00; pinpos < 0x08; pinpos++)
    2edc:	fe842783          	lw	a5,-24(s0)
    2ee0:	0785                	addi	a5,a5,1
    2ee2:	fef42423          	sw	a5,-24(s0)
C:/Users/86152/Desktop/单车越野/我的/代码调试/Bicycle_Code/libraries/sdk/Peripheral/ch32v30x_gpio.c:100 (discriminator 1)
    2ee6:	fe842703          	lw	a4,-24(s0)
    2eea:	479d                	li	a5,7
    2eec:	f4e7f2e3          	bgeu	a5,a4,2e30 <GPIO_Init+0x6a>
C:/Users/86152/Desktop/单车越野/我的/代码调试/Bicycle_Code/libraries/sdk/Peripheral/ch32v30x_gpio.c:125
                    }
                }
            }
        }
        GPIOx->CFGLR = tmpreg;
    2ef0:	fcc42783          	lw	a5,-52(s0)
    2ef4:	fe442703          	lw	a4,-28(s0)
    2ef8:	c398                	sw	a4,0(a5)
C:/Users/86152/Desktop/单车越野/我的/代码调试/Bicycle_Code/libraries/sdk/Peripheral/ch32v30x_gpio.c:128
    }

    if(GPIO_InitStruct->GPIO_Pin > 0x00FF)
    2efa:	fc842783          	lw	a5,-56(s0)
    2efe:	0007d703          	lhu	a4,0(a5)
    2f02:	0ff00793          	li	a5,255
    2f06:	0ee7f163          	bgeu	a5,a4,2fe8 <GPIO_Init+0x222>
C:/Users/86152/Desktop/单车越野/我的/代码调试/Bicycle_Code/libraries/sdk/Peripheral/ch32v30x_gpio.c:130
    {
        tmpreg = GPIOx->CFGHR;
    2f0a:	fcc42783          	lw	a5,-52(s0)
    2f0e:	43dc                	lw	a5,4(a5)
    2f10:	fef42223          	sw	a5,-28(s0)
C:/Users/86152/Desktop/单车越野/我的/代码调试/Bicycle_Code/libraries/sdk/Peripheral/ch32v30x_gpio.c:132

        for(pinpos = 0x00; pinpos < 0x08; pinpos++)
    2f14:	fe042423          	sw	zero,-24(s0)
    2f18:	a875                	j	2fd4 <GPIO_Init+0x20e>
C:/Users/86152/Desktop/单车越野/我的/代码调试/Bicycle_Code/libraries/sdk/Peripheral/ch32v30x_gpio.c:134
        {
            pos = (((uint32_t)0x01) << (pinpos + 0x08));
    2f1a:	fe842783          	lw	a5,-24(s0)
    2f1e:	07a1                	addi	a5,a5,8
    2f20:	4705                	li	a4,1
    2f22:	00f717b3          	sll	a5,a4,a5
    2f26:	fcf42e23          	sw	a5,-36(s0)
C:/Users/86152/Desktop/单车越野/我的/代码调试/Bicycle_Code/libraries/sdk/Peripheral/ch32v30x_gpio.c:135
            currentpin = ((GPIO_InitStruct->GPIO_Pin) & pos);
    2f2a:	fc842783          	lw	a5,-56(s0)
    2f2e:	0007d783          	lhu	a5,0(a5)
    2f32:	873e                	mv	a4,a5
    2f34:	fdc42783          	lw	a5,-36(s0)
    2f38:	8ff9                	and	a5,a5,a4
    2f3a:	fef42023          	sw	a5,-32(s0)
C:/Users/86152/Desktop/单车越野/我的/代码调试/Bicycle_Code/libraries/sdk/Peripheral/ch32v30x_gpio.c:137

            if(currentpin == pos)
    2f3e:	fe042703          	lw	a4,-32(s0)
    2f42:	fdc42783          	lw	a5,-36(s0)
    2f46:	08f71263          	bne	a4,a5,2fca <GPIO_Init+0x204>
C:/Users/86152/Desktop/单车越野/我的/代码调试/Bicycle_Code/libraries/sdk/Peripheral/ch32v30x_gpio.c:139
            {
                pos = pinpos << 2;
    2f4a:	fe842783          	lw	a5,-24(s0)
    2f4e:	078a                	slli	a5,a5,0x2
    2f50:	fcf42e23          	sw	a5,-36(s0)
C:/Users/86152/Desktop/单车越野/我的/代码调试/Bicycle_Code/libraries/sdk/Peripheral/ch32v30x_gpio.c:140
                pinmask = ((uint32_t)0x0F) << pos;
    2f54:	fdc42783          	lw	a5,-36(s0)
    2f58:	473d                	li	a4,15
    2f5a:	00f717b3          	sll	a5,a4,a5
    2f5e:	fcf42c23          	sw	a5,-40(s0)
C:/Users/86152/Desktop/单车越野/我的/代码调试/Bicycle_Code/libraries/sdk/Peripheral/ch32v30x_gpio.c:141
                tmpreg &= ~pinmask;
    2f62:	fd842783          	lw	a5,-40(s0)
    2f66:	fff7c793          	not	a5,a5
    2f6a:	fe442703          	lw	a4,-28(s0)
    2f6e:	8ff9                	and	a5,a5,a4
    2f70:	fef42223          	sw	a5,-28(s0)
C:/Users/86152/Desktop/单车越野/我的/代码调试/Bicycle_Code/libraries/sdk/Peripheral/ch32v30x_gpio.c:142
                tmpreg |= (currentmode << pos);
    2f74:	fdc42783          	lw	a5,-36(s0)
    2f78:	fec42703          	lw	a4,-20(s0)
    2f7c:	00f717b3          	sll	a5,a4,a5
    2f80:	fe442703          	lw	a4,-28(s0)
    2f84:	8fd9                	or	a5,a5,a4
    2f86:	fef42223          	sw	a5,-28(s0)
C:/Users/86152/Desktop/单车越野/我的/代码调试/Bicycle_Code/libraries/sdk/Peripheral/ch32v30x_gpio.c:144

                if(GPIO_InitStruct->GPIO_Mode == GPIO_Mode_IPD)
    2f8a:	fc842783          	lw	a5,-56(s0)
    2f8e:	4798                	lw	a4,8(a5)
    2f90:	02800793          	li	a5,40
    2f94:	00f71b63          	bne	a4,a5,2faa <GPIO_Init+0x1e4>
C:/Users/86152/Desktop/单车越野/我的/代码调试/Bicycle_Code/libraries/sdk/Peripheral/ch32v30x_gpio.c:146
                {
                    GPIOx->BCR = (((uint32_t)0x01) << (pinpos + 0x08));
    2f98:	fe842783          	lw	a5,-24(s0)
    2f9c:	07a1                	addi	a5,a5,8
    2f9e:	4705                	li	a4,1
    2fa0:	00f71733          	sll	a4,a4,a5
    2fa4:	fcc42783          	lw	a5,-52(s0)
    2fa8:	cbd8                	sw	a4,20(a5)
C:/Users/86152/Desktop/单车越野/我的/代码调试/Bicycle_Code/libraries/sdk/Peripheral/ch32v30x_gpio.c:149
                }

                if(GPIO_InitStruct->GPIO_Mode == GPIO_Mode_IPU)
    2faa:	fc842783          	lw	a5,-56(s0)
    2fae:	4798                	lw	a4,8(a5)
    2fb0:	04800793          	li	a5,72
    2fb4:	00f71b63          	bne	a4,a5,2fca <GPIO_Init+0x204>
C:/Users/86152/Desktop/单车越野/我的/代码调试/Bicycle_Code/libraries/sdk/Peripheral/ch32v30x_gpio.c:151
                {
                    GPIOx->BSHR = (((uint32_t)0x01) << (pinpos + 0x08));
    2fb8:	fe842783          	lw	a5,-24(s0)
    2fbc:	07a1                	addi	a5,a5,8
    2fbe:	4705                	li	a4,1
    2fc0:	00f71733          	sll	a4,a4,a5
    2fc4:	fcc42783          	lw	a5,-52(s0)
    2fc8:	cb98                	sw	a4,16(a5)
C:/Users/86152/Desktop/单车越野/我的/代码调试/Bicycle_Code/libraries/sdk/Peripheral/ch32v30x_gpio.c:132 (discriminator 2)
        for(pinpos = 0x00; pinpos < 0x08; pinpos++)
    2fca:	fe842783          	lw	a5,-24(s0)
    2fce:	0785                	addi	a5,a5,1
    2fd0:	fef42423          	sw	a5,-24(s0)
C:/Users/86152/Desktop/单车越野/我的/代码调试/Bicycle_Code/libraries/sdk/Peripheral/ch32v30x_gpio.c:132 (discriminator 1)
    2fd4:	fe842703          	lw	a4,-24(s0)
    2fd8:	479d                	li	a5,7
    2fda:	f4e7f0e3          	bgeu	a5,a4,2f1a <GPIO_Init+0x154>
C:/Users/86152/Desktop/单车越野/我的/代码调试/Bicycle_Code/libraries/sdk/Peripheral/ch32v30x_gpio.c:155
                }
            }
        }
        GPIOx->CFGHR = tmpreg;
    2fde:	fcc42783          	lw	a5,-52(s0)
    2fe2:	fe442703          	lw	a4,-28(s0)
    2fe6:	c3d8                	sw	a4,4(a5)
C:/Users/86152/Desktop/单车越野/我的/代码调试/Bicycle_Code/libraries/sdk/Peripheral/ch32v30x_gpio.c:157
    }
}
    2fe8:	0001                	nop
    2fea:	5472                	lw	s0,60(sp)
    2fec:	6121                	addi	sp,sp,64
    2fee:	8082                	ret

00002ff0 <GPIO_WriteBit>:
GPIO_WriteBit():
C:/Users/86152/Desktop/单车越野/我的/代码调试/Bicycle_Code/libraries/sdk/Peripheral/ch32v30x_gpio.c:303
 *            Bit_SetH - to set the port pin.
 *
 * @return  none
 */
void GPIO_WriteBit(GPIO_TypeDef *GPIOx, uint16_t GPIO_Pin, BitAction BitVal)
{
    2ff0:	1101                	addi	sp,sp,-32
    2ff2:	ce22                	sw	s0,28(sp)
    2ff4:	1000                	addi	s0,sp,32
    2ff6:	fea42623          	sw	a0,-20(s0)
    2ffa:	87ae                	mv	a5,a1
    2ffc:	fec42223          	sw	a2,-28(s0)
    3000:	fef41523          	sh	a5,-22(s0)
C:/Users/86152/Desktop/单车越野/我的/代码调试/Bicycle_Code/libraries/sdk/Peripheral/ch32v30x_gpio.c:304
    if(BitVal != Bit_RESET)
    3004:	fe442783          	lw	a5,-28(s0)
    3008:	c799                	beqz	a5,3016 <GPIO_WriteBit+0x26>
C:/Users/86152/Desktop/单车越野/我的/代码调试/Bicycle_Code/libraries/sdk/Peripheral/ch32v30x_gpio.c:306
    {
        GPIOx->BSHR = GPIO_Pin;
    300a:	fea45703          	lhu	a4,-22(s0)
    300e:	fec42783          	lw	a5,-20(s0)
    3012:	cb98                	sw	a4,16(a5)
C:/Users/86152/Desktop/单车越野/我的/代码调试/Bicycle_Code/libraries/sdk/Peripheral/ch32v30x_gpio.c:312
    }
    else
    {
        GPIOx->BCR = GPIO_Pin;
    }
}
    3014:	a031                	j	3020 <GPIO_WriteBit+0x30>
C:/Users/86152/Desktop/单车越野/我的/代码调试/Bicycle_Code/libraries/sdk/Peripheral/ch32v30x_gpio.c:310
        GPIOx->BCR = GPIO_Pin;
    3016:	fea45703          	lhu	a4,-22(s0)
    301a:	fec42783          	lw	a5,-20(s0)
    301e:	cbd8                	sw	a4,20(a5)
C:/Users/86152/Desktop/单车越野/我的/代码调试/Bicycle_Code/libraries/sdk/Peripheral/ch32v30x_gpio.c:312
}
    3020:	0001                	nop
    3022:	4472                	lw	s0,28(sp)
    3024:	6105                	addi	sp,sp,32
    3026:	8082                	ret

00003028 <RCC_GetClocksFreq>:
RCC_GetClocksFreq():
C:/Users/86152/Desktop/单车越野/我的/代码调试/Bicycle_Code/libraries/sdk/Peripheral/ch32v30x_rcc.c:567
 *        the clocks frequencies.
 *
 * @return  none
 */
void RCC_GetClocksFreq(RCC_ClocksTypeDef *RCC_Clocks)
{
    3028:	7139                	addi	sp,sp,-64
    302a:	de22                	sw	s0,60(sp)
    302c:	0080                	addi	s0,sp,64
    302e:	fca42623          	sw	a0,-52(s0)
C:/Users/86152/Desktop/单车越野/我的/代码调试/Bicycle_Code/libraries/sdk/Peripheral/ch32v30x_rcc.c:568
    uint32_t tmp = 0, pllmull = 0, pllsource = 0, presc = 0, Pll_6_5 = 0;
    3032:	fe042223          	sw	zero,-28(s0)
    3036:	fe042623          	sw	zero,-20(s0)
    303a:	fe042023          	sw	zero,-32(s0)
    303e:	fc042e23          	sw	zero,-36(s0)
    3042:	fe042423          	sw	zero,-24(s0)
C:/Users/86152/Desktop/单车越野/我的/代码调试/Bicycle_Code/libraries/sdk/Peripheral/ch32v30x_rcc.c:570

    tmp = RCC->CFGR0 & CFGR0_SWS_Mask;
    3046:	400217b7          	lui	a5,0x40021
    304a:	43dc                	lw	a5,4(a5)
    304c:	8bb1                	andi	a5,a5,12
    304e:	fef42223          	sw	a5,-28(s0)
    3052:	fe442703          	lw	a4,-28(s0)
    3056:	4791                	li	a5,4
    3058:	02f70363          	beq	a4,a5,307e <RCC_GetClocksFreq+0x56>
    305c:	fe442703          	lw	a4,-28(s0)
    3060:	47a1                	li	a5,8
    3062:	02f70663          	beq	a4,a5,308e <RCC_GetClocksFreq+0x66>
    3066:	fe442783          	lw	a5,-28(s0)
    306a:	14079963          	bnez	a5,31bc <RCC_GetClocksFreq+0x194>
C:/Users/86152/Desktop/单车越野/我的/代码调试/Bicycle_Code/libraries/sdk/Peripheral/ch32v30x_rcc.c:575

    switch(tmp)
    {
        case 0x00:
            RCC_Clocks->SYSCLK_Frequency = HSI_VALUE;
    306e:	fcc42783          	lw	a5,-52(s0)
    3072:	007a1737          	lui	a4,0x7a1
    3076:	20070713          	addi	a4,a4,512 # 7a1200 <_data_lma+0x7965ac>
    307a:	c398                	sw	a4,0(a5)
C:/Users/86152/Desktop/单车越野/我的/代码调试/Bicycle_Code/libraries/sdk/Peripheral/ch32v30x_rcc.c:576
            break;
    307c:	aa89                	j	31ce <RCC_GetClocksFreq+0x1a6>
C:/Users/86152/Desktop/单车越野/我的/代码调试/Bicycle_Code/libraries/sdk/Peripheral/ch32v30x_rcc.c:579

        case 0x04:
            RCC_Clocks->SYSCLK_Frequency = HSE_VALUE;
    307e:	fcc42783          	lw	a5,-52(s0)
    3082:	007a1737          	lui	a4,0x7a1
    3086:	20070713          	addi	a4,a4,512 # 7a1200 <_data_lma+0x7965ac>
    308a:	c398                	sw	a4,0(a5)
C:/Users/86152/Desktop/单车越野/我的/代码调试/Bicycle_Code/libraries/sdk/Peripheral/ch32v30x_rcc.c:580
            break;
    308c:	a289                	j	31ce <RCC_GetClocksFreq+0x1a6>
C:/Users/86152/Desktop/单车越野/我的/代码调试/Bicycle_Code/libraries/sdk/Peripheral/ch32v30x_rcc.c:583

        case 0x08:
            pllmull = RCC->CFGR0 & CFGR0_PLLMull_Mask;
    308e:	400217b7          	lui	a5,0x40021
    3092:	43d8                	lw	a4,4(a5)
    3094:	003c07b7          	lui	a5,0x3c0
    3098:	8ff9                	and	a5,a5,a4
    309a:	fef42623          	sw	a5,-20(s0)
C:/Users/86152/Desktop/单车越野/我的/代码调试/Bicycle_Code/libraries/sdk/Peripheral/ch32v30x_rcc.c:584
            pllsource = RCC->CFGR0 & CFGR0_PLLSRC_Mask;
    309e:	400217b7          	lui	a5,0x40021
    30a2:	43d8                	lw	a4,4(a5)
    30a4:	67c1                	lui	a5,0x10
    30a6:	8ff9                	and	a5,a5,a4
    30a8:	fef42023          	sw	a5,-32(s0)
C:/Users/86152/Desktop/单车越野/我的/代码调试/Bicycle_Code/libraries/sdk/Peripheral/ch32v30x_rcc.c:586

            pllmull = (pllmull >> 18) + 2;
    30ac:	fec42783          	lw	a5,-20(s0)
    30b0:	83c9                	srli	a5,a5,0x12
    30b2:	0789                	addi	a5,a5,2
    30b4:	fef42623          	sw	a5,-20(s0)
C:/Users/86152/Desktop/单车越野/我的/代码调试/Bicycle_Code/libraries/sdk/Peripheral/ch32v30x_rcc.c:588

            if(((*(uint32_t *)0x1FFFF70C) & (1 << 14)) != (1 << 14))
    30b8:	1ffff7b7          	lui	a5,0x1ffff
    30bc:	70c78793          	addi	a5,a5,1804 # 1ffff70c <_data_lma+0x1fff4ab8>
    30c0:	4398                	lw	a4,0(a5)
    30c2:	6791                	lui	a5,0x4
    30c4:	8ff9                	and	a5,a5,a4
    30c6:	eb91                	bnez	a5,30da <RCC_GetClocksFreq+0xb2>
C:/Users/86152/Desktop/单车越野/我的/代码调试/Bicycle_Code/libraries/sdk/Peripheral/ch32v30x_rcc.c:590
            { /* for other CH32V30x */
                if(pllmull == 17)
    30c8:	fec42703          	lw	a4,-20(s0)
    30cc:	47c5                	li	a5,17
    30ce:	04f71963          	bne	a4,a5,3120 <RCC_GetClocksFreq+0xf8>
C:/Users/86152/Desktop/单车越野/我的/代码调试/Bicycle_Code/libraries/sdk/Peripheral/ch32v30x_rcc.c:591
                    pllmull = 18;
    30d2:	47c9                	li	a5,18
    30d4:	fef42623          	sw	a5,-20(s0)
    30d8:	a0a1                	j	3120 <RCC_GetClocksFreq+0xf8>
C:/Users/86152/Desktop/单车越野/我的/代码调试/Bicycle_Code/libraries/sdk/Peripheral/ch32v30x_rcc.c:595
            }
            else
            { /* for CH32V307 */
                if(pllmull == 2)
    30da:	fec42703          	lw	a4,-20(s0)
    30de:	4789                	li	a5,2
    30e0:	00f71563          	bne	a4,a5,30ea <RCC_GetClocksFreq+0xc2>
C:/Users/86152/Desktop/单车越野/我的/代码调试/Bicycle_Code/libraries/sdk/Peripheral/ch32v30x_rcc.c:596
                    pllmull = 18;
    30e4:	47c9                	li	a5,18
    30e6:	fef42623          	sw	a5,-20(s0)
C:/Users/86152/Desktop/单车越野/我的/代码调试/Bicycle_Code/libraries/sdk/Peripheral/ch32v30x_rcc.c:597
                if(pllmull == 15)
    30ea:	fec42703          	lw	a4,-20(s0)
    30ee:	47bd                	li	a5,15
    30f0:	00f71863          	bne	a4,a5,3100 <RCC_GetClocksFreq+0xd8>
C:/Users/86152/Desktop/单车越野/我的/代码调试/Bicycle_Code/libraries/sdk/Peripheral/ch32v30x_rcc.c:599
                {
                    pllmull = 13; /* *6.5 */
    30f4:	47b5                	li	a5,13
    30f6:	fef42623          	sw	a5,-20(s0)
C:/Users/86152/Desktop/单车越野/我的/代码调试/Bicycle_Code/libraries/sdk/Peripheral/ch32v30x_rcc.c:600
                    Pll_6_5 = 1;
    30fa:	4785                	li	a5,1
    30fc:	fef42423          	sw	a5,-24(s0)
C:/Users/86152/Desktop/单车越野/我的/代码调试/Bicycle_Code/libraries/sdk/Peripheral/ch32v30x_rcc.c:602
                }
                if(pllmull == 16)
    3100:	fec42703          	lw	a4,-20(s0)
    3104:	47c1                	li	a5,16
    3106:	00f71563          	bne	a4,a5,3110 <RCC_GetClocksFreq+0xe8>
C:/Users/86152/Desktop/单车越野/我的/代码调试/Bicycle_Code/libraries/sdk/Peripheral/ch32v30x_rcc.c:603
                    pllmull = 15;
    310a:	47bd                	li	a5,15
    310c:	fef42623          	sw	a5,-20(s0)
C:/Users/86152/Desktop/单车越野/我的/代码调试/Bicycle_Code/libraries/sdk/Peripheral/ch32v30x_rcc.c:604
                if(pllmull == 17)
    3110:	fec42703          	lw	a4,-20(s0)
    3114:	47c5                	li	a5,17
    3116:	00f71563          	bne	a4,a5,3120 <RCC_GetClocksFreq+0xf8>
C:/Users/86152/Desktop/单车越野/我的/代码调试/Bicycle_Code/libraries/sdk/Peripheral/ch32v30x_rcc.c:605
                    pllmull = 16;
    311a:	47c1                	li	a5,16
    311c:	fef42623          	sw	a5,-20(s0)
C:/Users/86152/Desktop/单车越野/我的/代码调试/Bicycle_Code/libraries/sdk/Peripheral/ch32v30x_rcc.c:608
            }

            if(pllsource == 0x00)
    3120:	fe042783          	lw	a5,-32(s0)
    3124:	e3a1                	bnez	a5,3164 <RCC_GetClocksFreq+0x13c>
C:/Users/86152/Desktop/单车越野/我的/代码调试/Bicycle_Code/libraries/sdk/Peripheral/ch32v30x_rcc.c:610
            {
                if(EXTEN->EXTEN_CTR & EXTEN_PLL_HSI_PRE)
    3126:	400247b7          	lui	a5,0x40024
    312a:	80078793          	addi	a5,a5,-2048 # 40023800 <_eusrstack+0x20013800>
    312e:	439c                	lw	a5,0(a5)
    3130:	8bc1                	andi	a5,a5,16
    3132:	cf89                	beqz	a5,314c <RCC_GetClocksFreq+0x124>
C:/Users/86152/Desktop/单车越野/我的/代码调试/Bicycle_Code/libraries/sdk/Peripheral/ch32v30x_rcc.c:612
                {
                    RCC_Clocks->SYSCLK_Frequency = (HSI_VALUE)*pllmull;
    3134:	fec42703          	lw	a4,-20(s0)
    3138:	007a17b7          	lui	a5,0x7a1
    313c:	20078793          	addi	a5,a5,512 # 7a1200 <_data_lma+0x7965ac>
    3140:	02f70733          	mul	a4,a4,a5
    3144:	fcc42783          	lw	a5,-52(s0)
    3148:	c398                	sw	a4,0(a5)
    314a:	a899                	j	31a0 <RCC_GetClocksFreq+0x178>
C:/Users/86152/Desktop/单车越野/我的/代码调试/Bicycle_Code/libraries/sdk/Peripheral/ch32v30x_rcc.c:616
                }
                else
                {
                    RCC_Clocks->SYSCLK_Frequency = (HSI_VALUE >> 1) * pllmull;
    314c:	fec42703          	lw	a4,-20(s0)
    3150:	003d17b7          	lui	a5,0x3d1
    3154:	90078793          	addi	a5,a5,-1792 # 3d0900 <_data_lma+0x3c5cac>
    3158:	02f70733          	mul	a4,a4,a5
    315c:	fcc42783          	lw	a5,-52(s0)
    3160:	c398                	sw	a4,0(a5)
    3162:	a83d                	j	31a0 <RCC_GetClocksFreq+0x178>
C:/Users/86152/Desktop/单车越野/我的/代码调试/Bicycle_Code/libraries/sdk/Peripheral/ch32v30x_rcc.c:621
                }
            }
            else
            {
                if((RCC->CFGR0 & CFGR0_PLLXTPRE_Mask) != (uint32_t)RESET)
    3164:	400217b7          	lui	a5,0x40021
    3168:	43d8                	lw	a4,4(a5)
    316a:	000207b7          	lui	a5,0x20
    316e:	8ff9                	and	a5,a5,a4
    3170:	cf89                	beqz	a5,318a <RCC_GetClocksFreq+0x162>
C:/Users/86152/Desktop/单车越野/我的/代码调试/Bicycle_Code/libraries/sdk/Peripheral/ch32v30x_rcc.c:623
                {
                    RCC_Clocks->SYSCLK_Frequency = (HSE_VALUE >> 1) * pllmull;
    3172:	fec42703          	lw	a4,-20(s0)
    3176:	003d17b7          	lui	a5,0x3d1
    317a:	90078793          	addi	a5,a5,-1792 # 3d0900 <_data_lma+0x3c5cac>
    317e:	02f70733          	mul	a4,a4,a5
    3182:	fcc42783          	lw	a5,-52(s0)
    3186:	c398                	sw	a4,0(a5)
    3188:	a821                	j	31a0 <RCC_GetClocksFreq+0x178>
C:/Users/86152/Desktop/单车越野/我的/代码调试/Bicycle_Code/libraries/sdk/Peripheral/ch32v30x_rcc.c:627
                }
                else
                {
                    RCC_Clocks->SYSCLK_Frequency = HSE_VALUE * pllmull;
    318a:	fec42703          	lw	a4,-20(s0)
    318e:	007a17b7          	lui	a5,0x7a1
    3192:	20078793          	addi	a5,a5,512 # 7a1200 <_data_lma+0x7965ac>
    3196:	02f70733          	mul	a4,a4,a5
    319a:	fcc42783          	lw	a5,-52(s0)
    319e:	c398                	sw	a4,0(a5)
C:/Users/86152/Desktop/单车越野/我的/代码调试/Bicycle_Code/libraries/sdk/Peripheral/ch32v30x_rcc.c:631
                }
            }

            if(Pll_6_5 == 1)
    31a0:	fe842703          	lw	a4,-24(s0)
    31a4:	4785                	li	a5,1
    31a6:	02f71363          	bne	a4,a5,31cc <RCC_GetClocksFreq+0x1a4>
C:/Users/86152/Desktop/单车越野/我的/代码调试/Bicycle_Code/libraries/sdk/Peripheral/ch32v30x_rcc.c:632
                RCC_Clocks->SYSCLK_Frequency = (RCC_Clocks->SYSCLK_Frequency / 2);
    31aa:	fcc42783          	lw	a5,-52(s0)
    31ae:	439c                	lw	a5,0(a5)
    31b0:	0017d713          	srli	a4,a5,0x1
    31b4:	fcc42783          	lw	a5,-52(s0)
    31b8:	c398                	sw	a4,0(a5)
C:/Users/86152/Desktop/单车越野/我的/代码调试/Bicycle_Code/libraries/sdk/Peripheral/ch32v30x_rcc.c:634

            break;
    31ba:	a809                	j	31cc <RCC_GetClocksFreq+0x1a4>
C:/Users/86152/Desktop/单车越野/我的/代码调试/Bicycle_Code/libraries/sdk/Peripheral/ch32v30x_rcc.c:637

        default:
            RCC_Clocks->SYSCLK_Frequency = HSI_VALUE;
    31bc:	fcc42783          	lw	a5,-52(s0)
    31c0:	007a1737          	lui	a4,0x7a1
    31c4:	20070713          	addi	a4,a4,512 # 7a1200 <_data_lma+0x7965ac>
    31c8:	c398                	sw	a4,0(a5)
C:/Users/86152/Desktop/单车越野/我的/代码调试/Bicycle_Code/libraries/sdk/Peripheral/ch32v30x_rcc.c:638
            break;
    31ca:	a011                	j	31ce <RCC_GetClocksFreq+0x1a6>
C:/Users/86152/Desktop/单车越野/我的/代码调试/Bicycle_Code/libraries/sdk/Peripheral/ch32v30x_rcc.c:634
            break;
    31cc:	0001                	nop
C:/Users/86152/Desktop/单车越野/我的/代码调试/Bicycle_Code/libraries/sdk/Peripheral/ch32v30x_rcc.c:641
    }

    tmp = RCC->CFGR0 & CFGR0_HPRE_Set_Mask;
    31ce:	400217b7          	lui	a5,0x40021
    31d2:	43dc                	lw	a5,4(a5)
    31d4:	0f07f793          	andi	a5,a5,240
    31d8:	fef42223          	sw	a5,-28(s0)
C:/Users/86152/Desktop/单车越野/我的/代码调试/Bicycle_Code/libraries/sdk/Peripheral/ch32v30x_rcc.c:642
    tmp = tmp >> 4;
    31dc:	fe442783          	lw	a5,-28(s0)
    31e0:	8391                	srli	a5,a5,0x4
    31e2:	fef42223          	sw	a5,-28(s0)
C:/Users/86152/Desktop/单车越野/我的/代码调试/Bicycle_Code/libraries/sdk/Peripheral/ch32v30x_rcc.c:643
    presc = APBAHBPrescTable[tmp];
    31e6:	200007b7          	lui	a5,0x20000
    31ea:	01478713          	addi	a4,a5,20 # 20000014 <APBAHBPrescTable>
    31ee:	fe442783          	lw	a5,-28(s0)
    31f2:	97ba                	add	a5,a5,a4
    31f4:	0007c783          	lbu	a5,0(a5)
    31f8:	0ff7f793          	andi	a5,a5,255
    31fc:	fcf42e23          	sw	a5,-36(s0)
C:/Users/86152/Desktop/单车越野/我的/代码调试/Bicycle_Code/libraries/sdk/Peripheral/ch32v30x_rcc.c:644
    RCC_Clocks->HCLK_Frequency = RCC_Clocks->SYSCLK_Frequency >> presc;
    3200:	fcc42783          	lw	a5,-52(s0)
    3204:	4398                	lw	a4,0(a5)
    3206:	fdc42783          	lw	a5,-36(s0)
    320a:	00f75733          	srl	a4,a4,a5
    320e:	fcc42783          	lw	a5,-52(s0)
    3212:	c3d8                	sw	a4,4(a5)
C:/Users/86152/Desktop/单车越野/我的/代码调试/Bicycle_Code/libraries/sdk/Peripheral/ch32v30x_rcc.c:645
    tmp = RCC->CFGR0 & CFGR0_PPRE1_Set_Mask;
    3214:	400217b7          	lui	a5,0x40021
    3218:	43dc                	lw	a5,4(a5)
    321a:	7007f793          	andi	a5,a5,1792
    321e:	fef42223          	sw	a5,-28(s0)
C:/Users/86152/Desktop/单车越野/我的/代码调试/Bicycle_Code/libraries/sdk/Peripheral/ch32v30x_rcc.c:646
    tmp = tmp >> 8;
    3222:	fe442783          	lw	a5,-28(s0)
    3226:	83a1                	srli	a5,a5,0x8
    3228:	fef42223          	sw	a5,-28(s0)
C:/Users/86152/Desktop/单车越野/我的/代码调试/Bicycle_Code/libraries/sdk/Peripheral/ch32v30x_rcc.c:647
    presc = APBAHBPrescTable[tmp];
    322c:	200007b7          	lui	a5,0x20000
    3230:	01478713          	addi	a4,a5,20 # 20000014 <APBAHBPrescTable>
    3234:	fe442783          	lw	a5,-28(s0)
    3238:	97ba                	add	a5,a5,a4
    323a:	0007c783          	lbu	a5,0(a5)
    323e:	0ff7f793          	andi	a5,a5,255
    3242:	fcf42e23          	sw	a5,-36(s0)
C:/Users/86152/Desktop/单车越野/我的/代码调试/Bicycle_Code/libraries/sdk/Peripheral/ch32v30x_rcc.c:648
    RCC_Clocks->PCLK1_Frequency = RCC_Clocks->HCLK_Frequency >> presc;
    3246:	fcc42783          	lw	a5,-52(s0)
    324a:	43d8                	lw	a4,4(a5)
    324c:	fdc42783          	lw	a5,-36(s0)
    3250:	00f75733          	srl	a4,a4,a5
    3254:	fcc42783          	lw	a5,-52(s0)
    3258:	c798                	sw	a4,8(a5)
C:/Users/86152/Desktop/单车越野/我的/代码调试/Bicycle_Code/libraries/sdk/Peripheral/ch32v30x_rcc.c:649
    tmp = RCC->CFGR0 & CFGR0_PPRE2_Set_Mask;
    325a:	400217b7          	lui	a5,0x40021
    325e:	43d8                	lw	a4,4(a5)
    3260:	6791                	lui	a5,0x4
    3262:	80078793          	addi	a5,a5,-2048 # 3800 <USART_GetITStatus+0xe0>
    3266:	8ff9                	and	a5,a5,a4
    3268:	fef42223          	sw	a5,-28(s0)
C:/Users/86152/Desktop/单车越野/我的/代码调试/Bicycle_Code/libraries/sdk/Peripheral/ch32v30x_rcc.c:650
    tmp = tmp >> 11;
    326c:	fe442783          	lw	a5,-28(s0)
    3270:	83ad                	srli	a5,a5,0xb
    3272:	fef42223          	sw	a5,-28(s0)
C:/Users/86152/Desktop/单车越野/我的/代码调试/Bicycle_Code/libraries/sdk/Peripheral/ch32v30x_rcc.c:651
    presc = APBAHBPrescTable[tmp];
    3276:	200007b7          	lui	a5,0x20000
    327a:	01478713          	addi	a4,a5,20 # 20000014 <APBAHBPrescTable>
    327e:	fe442783          	lw	a5,-28(s0)
    3282:	97ba                	add	a5,a5,a4
    3284:	0007c783          	lbu	a5,0(a5)
    3288:	0ff7f793          	andi	a5,a5,255
    328c:	fcf42e23          	sw	a5,-36(s0)
C:/Users/86152/Desktop/单车越野/我的/代码调试/Bicycle_Code/libraries/sdk/Peripheral/ch32v30x_rcc.c:652
    RCC_Clocks->PCLK2_Frequency = RCC_Clocks->HCLK_Frequency >> presc;
    3290:	fcc42783          	lw	a5,-52(s0)
    3294:	43d8                	lw	a4,4(a5)
    3296:	fdc42783          	lw	a5,-36(s0)
    329a:	00f75733          	srl	a4,a4,a5
    329e:	fcc42783          	lw	a5,-52(s0)
    32a2:	c7d8                	sw	a4,12(a5)
C:/Users/86152/Desktop/单车越野/我的/代码调试/Bicycle_Code/libraries/sdk/Peripheral/ch32v30x_rcc.c:653
    tmp = RCC->CFGR0 & CFGR0_ADCPRE_Set_Mask;
    32a4:	400217b7          	lui	a5,0x40021
    32a8:	43d8                	lw	a4,4(a5)
    32aa:	67b1                	lui	a5,0xc
    32ac:	8ff9                	and	a5,a5,a4
    32ae:	fef42223          	sw	a5,-28(s0)
C:/Users/86152/Desktop/单车越野/我的/代码调试/Bicycle_Code/libraries/sdk/Peripheral/ch32v30x_rcc.c:654
    tmp = tmp >> 14;
    32b2:	fe442783          	lw	a5,-28(s0)
    32b6:	83b9                	srli	a5,a5,0xe
    32b8:	fef42223          	sw	a5,-28(s0)
C:/Users/86152/Desktop/单车越野/我的/代码调试/Bicycle_Code/libraries/sdk/Peripheral/ch32v30x_rcc.c:655
    presc = ADCPrescTable[tmp];
    32bc:	81418713          	addi	a4,gp,-2028 # 2000024c <ADCPrescTable>
    32c0:	fe442783          	lw	a5,-28(s0)
    32c4:	97ba                	add	a5,a5,a4
    32c6:	0007c783          	lbu	a5,0(a5) # c000 <_data_lma+0x13ac>
    32ca:	0ff7f793          	andi	a5,a5,255
    32ce:	fcf42e23          	sw	a5,-36(s0)
C:/Users/86152/Desktop/单车越野/我的/代码调试/Bicycle_Code/libraries/sdk/Peripheral/ch32v30x_rcc.c:656
    RCC_Clocks->ADCCLK_Frequency = RCC_Clocks->PCLK2_Frequency / presc;
    32d2:	fcc42783          	lw	a5,-52(s0)
    32d6:	47d8                	lw	a4,12(a5)
    32d8:	fdc42783          	lw	a5,-36(s0)
    32dc:	02f75733          	divu	a4,a4,a5
    32e0:	fcc42783          	lw	a5,-52(s0)
    32e4:	cb98                	sw	a4,16(a5)
C:/Users/86152/Desktop/单车越野/我的/代码调试/Bicycle_Code/libraries/sdk/Peripheral/ch32v30x_rcc.c:657
}
    32e6:	0001                	nop
    32e8:	5472                	lw	s0,60(sp)
    32ea:	6121                	addi	sp,sp,64
    32ec:	8082                	ret

000032ee <RCC_APB2PeriphClockCmd>:
RCC_APB2PeriphClockCmd():
C:/Users/86152/Desktop/单车越野/我的/代码调试/Bicycle_Code/libraries/sdk/Peripheral/ch32v30x_rcc.c:719
 *          NewState - ENABLE or DISABLE
 *
 * @return  none
 */
void RCC_APB2PeriphClockCmd(uint32_t RCC_APB2Periph, FunctionalState NewState)
{
    32ee:	1101                	addi	sp,sp,-32
    32f0:	ce22                	sw	s0,28(sp)
    32f2:	1000                	addi	s0,sp,32
    32f4:	fea42623          	sw	a0,-20(s0)
    32f8:	feb42423          	sw	a1,-24(s0)
C:/Users/86152/Desktop/单车越野/我的/代码调试/Bicycle_Code/libraries/sdk/Peripheral/ch32v30x_rcc.c:720
    if(NewState != DISABLE)
    32fc:	fe842783          	lw	a5,-24(s0)
    3300:	cb99                	beqz	a5,3316 <RCC_APB2PeriphClockCmd+0x28>
C:/Users/86152/Desktop/单车越野/我的/代码调试/Bicycle_Code/libraries/sdk/Peripheral/ch32v30x_rcc.c:722
    {
        RCC->APB2PCENR |= RCC_APB2Periph;
    3302:	400217b7          	lui	a5,0x40021
    3306:	4f94                	lw	a3,24(a5)
    3308:	400217b7          	lui	a5,0x40021
    330c:	fec42703          	lw	a4,-20(s0)
    3310:	8f55                	or	a4,a4,a3
    3312:	cf98                	sw	a4,24(a5)
C:/Users/86152/Desktop/单车越野/我的/代码调试/Bicycle_Code/libraries/sdk/Peripheral/ch32v30x_rcc.c:728
    }
    else
    {
        RCC->APB2PCENR &= ~RCC_APB2Periph;
    }
}
    3314:	a821                	j	332c <RCC_APB2PeriphClockCmd+0x3e>
C:/Users/86152/Desktop/单车越野/我的/代码调试/Bicycle_Code/libraries/sdk/Peripheral/ch32v30x_rcc.c:726
        RCC->APB2PCENR &= ~RCC_APB2Periph;
    3316:	400217b7          	lui	a5,0x40021
    331a:	4f94                	lw	a3,24(a5)
    331c:	fec42783          	lw	a5,-20(s0)
    3320:	fff7c713          	not	a4,a5
    3324:	400217b7          	lui	a5,0x40021
    3328:	8f75                	and	a4,a4,a3
    332a:	cf98                	sw	a4,24(a5)
C:/Users/86152/Desktop/单车越野/我的/代码调试/Bicycle_Code/libraries/sdk/Peripheral/ch32v30x_rcc.c:728
}
    332c:	0001                	nop
    332e:	4472                	lw	s0,28(sp)
    3330:	6105                	addi	sp,sp,32
    3332:	8082                	ret

00003334 <RCC_APB1PeriphClockCmd>:
RCC_APB1PeriphClockCmd():
C:/Users/86152/Desktop/单车越野/我的/代码调试/Bicycle_Code/libraries/sdk/Peripheral/ch32v30x_rcc.c:764
 *          NewState - ENABLE or DISABLE.
 *
 * @return  none
 */
void RCC_APB1PeriphClockCmd(uint32_t RCC_APB1Periph, FunctionalState NewState)
{
    3334:	1101                	addi	sp,sp,-32
    3336:	ce22                	sw	s0,28(sp)
    3338:	1000                	addi	s0,sp,32
    333a:	fea42623          	sw	a0,-20(s0)
    333e:	feb42423          	sw	a1,-24(s0)
C:/Users/86152/Desktop/单车越野/我的/代码调试/Bicycle_Code/libraries/sdk/Peripheral/ch32v30x_rcc.c:765
    if(NewState != DISABLE)
    3342:	fe842783          	lw	a5,-24(s0)
    3346:	cb99                	beqz	a5,335c <RCC_APB1PeriphClockCmd+0x28>
C:/Users/86152/Desktop/单车越野/我的/代码调试/Bicycle_Code/libraries/sdk/Peripheral/ch32v30x_rcc.c:767
    {
        RCC->APB1PCENR |= RCC_APB1Periph;
    3348:	400217b7          	lui	a5,0x40021
    334c:	4fd4                	lw	a3,28(a5)
    334e:	400217b7          	lui	a5,0x40021
    3352:	fec42703          	lw	a4,-20(s0)
    3356:	8f55                	or	a4,a4,a3
    3358:	cfd8                	sw	a4,28(a5)
C:/Users/86152/Desktop/单车越野/我的/代码调试/Bicycle_Code/libraries/sdk/Peripheral/ch32v30x_rcc.c:773
    }
    else
    {
        RCC->APB1PCENR &= ~RCC_APB1Periph;
    }
}
    335a:	a821                	j	3372 <RCC_APB1PeriphClockCmd+0x3e>
C:/Users/86152/Desktop/单车越野/我的/代码调试/Bicycle_Code/libraries/sdk/Peripheral/ch32v30x_rcc.c:771
        RCC->APB1PCENR &= ~RCC_APB1Periph;
    335c:	400217b7          	lui	a5,0x40021
    3360:	4fd4                	lw	a3,28(a5)
    3362:	fec42783          	lw	a5,-20(s0)
    3366:	fff7c713          	not	a4,a5
    336a:	400217b7          	lui	a5,0x40021
    336e:	8f75                	and	a4,a4,a3
    3370:	cfd8                	sw	a4,28(a5)
C:/Users/86152/Desktop/单车越野/我的/代码调试/Bicycle_Code/libraries/sdk/Peripheral/ch32v30x_rcc.c:773
}
    3372:	0001                	nop
    3374:	4472                	lw	s0,28(sp)
    3376:	6105                	addi	sp,sp,32
    3378:	8082                	ret

0000337a <TIM_GetITStatus>:
TIM_GetITStatus():
C:/Users/86152/Desktop/单车越野/我的/代码调试/Bicycle_Code/libraries/sdk/Peripheral/ch32v30x_tim.c:2129
 *            TIM_IT_Break - TIM Break Interrupt source.
 *
 * @return  none
 */
ITStatus TIM_GetITStatus(TIM_TypeDef *TIMx, uint16_t TIM_IT)
{
    337a:	7179                	addi	sp,sp,-48
    337c:	d622                	sw	s0,44(sp)
    337e:	1800                	addi	s0,sp,48
    3380:	fca42e23          	sw	a0,-36(s0)
    3384:	87ae                	mv	a5,a1
    3386:	fcf41d23          	sh	a5,-38(s0)
C:/Users/86152/Desktop/单车越野/我的/代码调试/Bicycle_Code/libraries/sdk/Peripheral/ch32v30x_tim.c:2130
    ITStatus bitstatus = RESET;
    338a:	fe042623          	sw	zero,-20(s0)
C:/Users/86152/Desktop/单车越野/我的/代码调试/Bicycle_Code/libraries/sdk/Peripheral/ch32v30x_tim.c:2131
    uint16_t itstatus = 0x0, itenable = 0x0;
    338e:	fe041523          	sh	zero,-22(s0)
    3392:	fe041423          	sh	zero,-24(s0)
C:/Users/86152/Desktop/单车越野/我的/代码调试/Bicycle_Code/libraries/sdk/Peripheral/ch32v30x_tim.c:2133

    itstatus = TIMx->INTFR & TIM_IT;
    3396:	fdc42783          	lw	a5,-36(s0)
    339a:	0107d783          	lhu	a5,16(a5) # 40021010 <_eusrstack+0x20011010>
    339e:	01079713          	slli	a4,a5,0x10
    33a2:	8341                	srli	a4,a4,0x10
    33a4:	fda45783          	lhu	a5,-38(s0)
    33a8:	8ff9                	and	a5,a5,a4
    33aa:	fef41523          	sh	a5,-22(s0)
C:/Users/86152/Desktop/单车越野/我的/代码调试/Bicycle_Code/libraries/sdk/Peripheral/ch32v30x_tim.c:2135

    itenable = TIMx->DMAINTENR & TIM_IT;
    33ae:	fdc42783          	lw	a5,-36(s0)
    33b2:	00c7d783          	lhu	a5,12(a5)
    33b6:	01079713          	slli	a4,a5,0x10
    33ba:	8341                	srli	a4,a4,0x10
    33bc:	fda45783          	lhu	a5,-38(s0)
    33c0:	8ff9                	and	a5,a5,a4
    33c2:	fef41423          	sh	a5,-24(s0)
C:/Users/86152/Desktop/单车越野/我的/代码调试/Bicycle_Code/libraries/sdk/Peripheral/ch32v30x_tim.c:2136
    if((itstatus != (uint16_t)RESET) && (itenable != (uint16_t)RESET))
    33c6:	fea45783          	lhu	a5,-22(s0)
    33ca:	cb81                	beqz	a5,33da <TIM_GetITStatus+0x60>
C:/Users/86152/Desktop/单车越野/我的/代码调试/Bicycle_Code/libraries/sdk/Peripheral/ch32v30x_tim.c:2136 (discriminator 1)
    33cc:	fe845783          	lhu	a5,-24(s0)
    33d0:	c789                	beqz	a5,33da <TIM_GetITStatus+0x60>
C:/Users/86152/Desktop/单车越野/我的/代码调试/Bicycle_Code/libraries/sdk/Peripheral/ch32v30x_tim.c:2138
    {
        bitstatus = SET;
    33d2:	4785                	li	a5,1
    33d4:	fef42623          	sw	a5,-20(s0)
    33d8:	a019                	j	33de <TIM_GetITStatus+0x64>
C:/Users/86152/Desktop/单车越野/我的/代码调试/Bicycle_Code/libraries/sdk/Peripheral/ch32v30x_tim.c:2142
    }
    else
    {
        bitstatus = RESET;
    33da:	fe042623          	sw	zero,-20(s0)
C:/Users/86152/Desktop/单车越野/我的/代码调试/Bicycle_Code/libraries/sdk/Peripheral/ch32v30x_tim.c:2145
    }

    return bitstatus;
    33de:	fec42783          	lw	a5,-20(s0)
C:/Users/86152/Desktop/单车越野/我的/代码调试/Bicycle_Code/libraries/sdk/Peripheral/ch32v30x_tim.c:2146
}
    33e2:	853e                	mv	a0,a5
    33e4:	5432                	lw	s0,44(sp)
    33e6:	6145                	addi	sp,sp,48
    33e8:	8082                	ret

000033ea <TIM_ClearITPendingBit>:
TIM_ClearITPendingBit():
C:/Users/86152/Desktop/单车越野/我的/代码调试/Bicycle_Code/libraries/sdk/Peripheral/ch32v30x_tim.c:2167
 *            TIM_IT_Break - TIM Break Interrupt source.
 *
 * @return  none
 */
void TIM_ClearITPendingBit(TIM_TypeDef *TIMx, uint16_t TIM_IT)
{
    33ea:	1101                	addi	sp,sp,-32
    33ec:	ce22                	sw	s0,28(sp)
    33ee:	1000                	addi	s0,sp,32
    33f0:	fea42623          	sw	a0,-20(s0)
    33f4:	87ae                	mv	a5,a1
    33f6:	fef41523          	sh	a5,-22(s0)
C:/Users/86152/Desktop/单车越野/我的/代码调试/Bicycle_Code/libraries/sdk/Peripheral/ch32v30x_tim.c:2168
    TIMx->INTFR = (uint16_t)~TIM_IT;
    33fa:	fea45783          	lhu	a5,-22(s0)
    33fe:	fff7c793          	not	a5,a5
    3402:	01079713          	slli	a4,a5,0x10
    3406:	8341                	srli	a4,a4,0x10
    3408:	fec42783          	lw	a5,-20(s0)
    340c:	00e79823          	sh	a4,16(a5)
C:/Users/86152/Desktop/单车越野/我的/代码调试/Bicycle_Code/libraries/sdk/Peripheral/ch32v30x_tim.c:2169
}
    3410:	0001                	nop
    3412:	4472                	lw	s0,28(sp)
    3414:	6105                	addi	sp,sp,32
    3416:	8082                	ret

00003418 <USART_Init>:
USART_Init():
C:/Users/86152/Desktop/单车越野/我的/代码调试/Bicycle_Code/libraries/sdk/Peripheral/ch32v30x_usart.c:126
 *        USART peripheral.
 *
 * @return  none
 */
void USART_Init(USART_TypeDef *USARTx, USART_InitTypeDef *USART_InitStruct)
{
    3418:	715d                	addi	sp,sp,-80
    341a:	c686                	sw	ra,76(sp)
    341c:	c4a2                	sw	s0,72(sp)
    341e:	0880                	addi	s0,sp,80
    3420:	faa42e23          	sw	a0,-68(s0)
    3424:	fab42c23          	sw	a1,-72(s0)
C:/Users/86152/Desktop/单车越野/我的/代码调试/Bicycle_Code/libraries/sdk/Peripheral/ch32v30x_usart.c:127
    uint32_t          tmpreg = 0x00, apbclock = 0x00;
    3428:	fe042623          	sw	zero,-20(s0)
    342c:	fe042423          	sw	zero,-24(s0)
C:/Users/86152/Desktop/单车越野/我的/代码调试/Bicycle_Code/libraries/sdk/Peripheral/ch32v30x_usart.c:128
    uint32_t          integerdivider = 0x00;
    3430:	fe042223          	sw	zero,-28(s0)
C:/Users/86152/Desktop/单车越野/我的/代码调试/Bicycle_Code/libraries/sdk/Peripheral/ch32v30x_usart.c:129
    uint32_t          fractionaldivider = 0x00;
    3434:	fe042023          	sw	zero,-32(s0)
C:/Users/86152/Desktop/单车越野/我的/代码调试/Bicycle_Code/libraries/sdk/Peripheral/ch32v30x_usart.c:130
    uint32_t          usartxbase = 0;
    3438:	fc042e23          	sw	zero,-36(s0)
C:/Users/86152/Desktop/单车越野/我的/代码调试/Bicycle_Code/libraries/sdk/Peripheral/ch32v30x_usart.c:137

    if(USART_InitStruct->USART_HardwareFlowControl != USART_HardwareFlowControl_None)
    {
    }

    usartxbase = (uint32_t)USARTx;
    343c:	fbc42783          	lw	a5,-68(s0)
    3440:	fcf42e23          	sw	a5,-36(s0)
C:/Users/86152/Desktop/单车越野/我的/代码调试/Bicycle_Code/libraries/sdk/Peripheral/ch32v30x_usart.c:138
    tmpreg = USARTx->CTLR2;
    3444:	fbc42783          	lw	a5,-68(s0)
    3448:	0107d783          	lhu	a5,16(a5)
    344c:	07c2                	slli	a5,a5,0x10
    344e:	83c1                	srli	a5,a5,0x10
    3450:	fef42623          	sw	a5,-20(s0)
C:/Users/86152/Desktop/单车越野/我的/代码调试/Bicycle_Code/libraries/sdk/Peripheral/ch32v30x_usart.c:139
    tmpreg &= CTLR2_STOP_CLEAR_Mask;
    3454:	fec42703          	lw	a4,-20(s0)
    3458:	67b5                	lui	a5,0xd
    345a:	17fd                	addi	a5,a5,-1
    345c:	8ff9                	and	a5,a5,a4
    345e:	fef42623          	sw	a5,-20(s0)
C:/Users/86152/Desktop/单车越野/我的/代码调试/Bicycle_Code/libraries/sdk/Peripheral/ch32v30x_usart.c:140
    tmpreg |= (uint32_t)USART_InitStruct->USART_StopBits;
    3462:	fb842783          	lw	a5,-72(s0)
    3466:	0067d783          	lhu	a5,6(a5) # d006 <_data_lma+0x23b2>
    346a:	873e                	mv	a4,a5
    346c:	fec42783          	lw	a5,-20(s0)
    3470:	8fd9                	or	a5,a5,a4
    3472:	fef42623          	sw	a5,-20(s0)
C:/Users/86152/Desktop/单车越野/我的/代码调试/Bicycle_Code/libraries/sdk/Peripheral/ch32v30x_usart.c:142

    USARTx->CTLR2 = (uint16_t)tmpreg;
    3476:	fec42783          	lw	a5,-20(s0)
    347a:	01079713          	slli	a4,a5,0x10
    347e:	8341                	srli	a4,a4,0x10
    3480:	fbc42783          	lw	a5,-68(s0)
    3484:	00e79823          	sh	a4,16(a5)
C:/Users/86152/Desktop/单车越野/我的/代码调试/Bicycle_Code/libraries/sdk/Peripheral/ch32v30x_usart.c:143
    tmpreg = USARTx->CTLR1;
    3488:	fbc42783          	lw	a5,-68(s0)
    348c:	00c7d783          	lhu	a5,12(a5)
    3490:	07c2                	slli	a5,a5,0x10
    3492:	83c1                	srli	a5,a5,0x10
    3494:	fef42623          	sw	a5,-20(s0)
C:/Users/86152/Desktop/单车越野/我的/代码调试/Bicycle_Code/libraries/sdk/Peripheral/ch32v30x_usart.c:144
    tmpreg &= CTLR1_CLEAR_Mask;
    3498:	fec42703          	lw	a4,-20(s0)
    349c:	67bd                	lui	a5,0xf
    349e:	9f378793          	addi	a5,a5,-1549 # e9f3 <_data_lma+0x3d9f>
    34a2:	8ff9                	and	a5,a5,a4
    34a4:	fef42623          	sw	a5,-20(s0)
C:/Users/86152/Desktop/单车越野/我的/代码调试/Bicycle_Code/libraries/sdk/Peripheral/ch32v30x_usart.c:145
    tmpreg |= (uint32_t)USART_InitStruct->USART_WordLength | USART_InitStruct->USART_Parity |
    34a8:	fb842783          	lw	a5,-72(s0)
    34ac:	0047d703          	lhu	a4,4(a5)
    34b0:	fb842783          	lw	a5,-72(s0)
    34b4:	0087d783          	lhu	a5,8(a5)
    34b8:	8fd9                	or	a5,a5,a4
    34ba:	01079713          	slli	a4,a5,0x10
    34be:	8341                	srli	a4,a4,0x10
C:/Users/86152/Desktop/单车越野/我的/代码调试/Bicycle_Code/libraries/sdk/Peripheral/ch32v30x_usart.c:146
              USART_InitStruct->USART_Mode;
    34c0:	fb842783          	lw	a5,-72(s0)
    34c4:	00a7d783          	lhu	a5,10(a5)
C:/Users/86152/Desktop/单车越野/我的/代码调试/Bicycle_Code/libraries/sdk/Peripheral/ch32v30x_usart.c:145
    tmpreg |= (uint32_t)USART_InitStruct->USART_WordLength | USART_InitStruct->USART_Parity |
    34c8:	8fd9                	or	a5,a5,a4
    34ca:	07c2                	slli	a5,a5,0x10
    34cc:	83c1                	srli	a5,a5,0x10
    34ce:	873e                	mv	a4,a5
    34d0:	fec42783          	lw	a5,-20(s0)
    34d4:	8fd9                	or	a5,a5,a4
    34d6:	fef42623          	sw	a5,-20(s0)
C:/Users/86152/Desktop/单车越野/我的/代码调试/Bicycle_Code/libraries/sdk/Peripheral/ch32v30x_usart.c:147
    USARTx->CTLR1 = (uint16_t)tmpreg;
    34da:	fec42783          	lw	a5,-20(s0)
    34de:	01079713          	slli	a4,a5,0x10
    34e2:	8341                	srli	a4,a4,0x10
    34e4:	fbc42783          	lw	a5,-68(s0)
    34e8:	00e79623          	sh	a4,12(a5)
C:/Users/86152/Desktop/单车越野/我的/代码调试/Bicycle_Code/libraries/sdk/Peripheral/ch32v30x_usart.c:149

    tmpreg = USARTx->CTLR3;
    34ec:	fbc42783          	lw	a5,-68(s0)
    34f0:	0147d783          	lhu	a5,20(a5)
    34f4:	07c2                	slli	a5,a5,0x10
    34f6:	83c1                	srli	a5,a5,0x10
    34f8:	fef42623          	sw	a5,-20(s0)
C:/Users/86152/Desktop/单车越野/我的/代码调试/Bicycle_Code/libraries/sdk/Peripheral/ch32v30x_usart.c:150
    tmpreg &= CTLR3_CLEAR_Mask;
    34fc:	fec42703          	lw	a4,-20(s0)
    3500:	67c1                	lui	a5,0x10
    3502:	cff78793          	addi	a5,a5,-769 # fcff <_data_lma+0x50ab>
    3506:	8ff9                	and	a5,a5,a4
    3508:	fef42623          	sw	a5,-20(s0)
C:/Users/86152/Desktop/单车越野/我的/代码调试/Bicycle_Code/libraries/sdk/Peripheral/ch32v30x_usart.c:151
    tmpreg |= USART_InitStruct->USART_HardwareFlowControl;
    350c:	fb842783          	lw	a5,-72(s0)
    3510:	00c7d783          	lhu	a5,12(a5)
    3514:	873e                	mv	a4,a5
    3516:	fec42783          	lw	a5,-20(s0)
    351a:	8fd9                	or	a5,a5,a4
    351c:	fef42623          	sw	a5,-20(s0)
C:/Users/86152/Desktop/单车越野/我的/代码调试/Bicycle_Code/libraries/sdk/Peripheral/ch32v30x_usart.c:152
    USARTx->CTLR3 = (uint16_t)tmpreg;
    3520:	fec42783          	lw	a5,-20(s0)
    3524:	01079713          	slli	a4,a5,0x10
    3528:	8341                	srli	a4,a4,0x10
    352a:	fbc42783          	lw	a5,-68(s0)
    352e:	00e79a23          	sh	a4,20(a5)
C:/Users/86152/Desktop/单车越野/我的/代码调试/Bicycle_Code/libraries/sdk/Peripheral/ch32v30x_usart.c:154

    RCC_GetClocksFreq(&RCC_ClocksStatus);
    3532:	fc840793          	addi	a5,s0,-56
    3536:	853e                	mv	a0,a5
    3538:	af1ff0ef          	jal	ra,3028 <RCC_GetClocksFreq>
C:/Users/86152/Desktop/单车越野/我的/代码调试/Bicycle_Code/libraries/sdk/Peripheral/ch32v30x_usart.c:156

    if(usartxbase == USART1_BASE)
    353c:	fdc42703          	lw	a4,-36(s0)
    3540:	400147b7          	lui	a5,0x40014
    3544:	80078793          	addi	a5,a5,-2048 # 40013800 <_eusrstack+0x20003800>
    3548:	00f71763          	bne	a4,a5,3556 <USART_Init+0x13e>
C:/Users/86152/Desktop/单车越野/我的/代码调试/Bicycle_Code/libraries/sdk/Peripheral/ch32v30x_usart.c:158
    {
        apbclock = RCC_ClocksStatus.PCLK2_Frequency;
    354c:	fd442783          	lw	a5,-44(s0)
    3550:	fef42423          	sw	a5,-24(s0)
    3554:	a029                	j	355e <USART_Init+0x146>
C:/Users/86152/Desktop/单车越野/我的/代码调试/Bicycle_Code/libraries/sdk/Peripheral/ch32v30x_usart.c:162
    }
    else
    {
        apbclock = RCC_ClocksStatus.PCLK1_Frequency;
    3556:	fd042783          	lw	a5,-48(s0)
    355a:	fef42423          	sw	a5,-24(s0)
C:/Users/86152/Desktop/单车越野/我的/代码调试/Bicycle_Code/libraries/sdk/Peripheral/ch32v30x_usart.c:165
    }

    if((USARTx->CTLR1 & CTLR1_OVER8_Set) != 0)
    355e:	fbc42783          	lw	a5,-68(s0)
    3562:	00c7d783          	lhu	a5,12(a5)
    3566:	07c2                	slli	a5,a5,0x10
    3568:	83c1                	srli	a5,a5,0x10
    356a:	07c2                	slli	a5,a5,0x10
    356c:	87c1                	srai	a5,a5,0x10
    356e:	0207d263          	bgez	a5,3592 <USART_Init+0x17a>
C:/Users/86152/Desktop/单车越野/我的/代码调试/Bicycle_Code/libraries/sdk/Peripheral/ch32v30x_usart.c:167
    {
        integerdivider = ((25 * apbclock) / (2 * (USART_InitStruct->USART_BaudRate)));
    3572:	fe842703          	lw	a4,-24(s0)
    3576:	87ba                	mv	a5,a4
    3578:	0786                	slli	a5,a5,0x1
    357a:	97ba                	add	a5,a5,a4
    357c:	078e                	slli	a5,a5,0x3
    357e:	973e                	add	a4,a4,a5
    3580:	fb842783          	lw	a5,-72(s0)
    3584:	439c                	lw	a5,0(a5)
    3586:	0786                	slli	a5,a5,0x1
    3588:	02f757b3          	divu	a5,a4,a5
    358c:	fef42223          	sw	a5,-28(s0)
    3590:	a005                	j	35b0 <USART_Init+0x198>
C:/Users/86152/Desktop/单车越野/我的/代码调试/Bicycle_Code/libraries/sdk/Peripheral/ch32v30x_usart.c:171
    }
    else
    {
        integerdivider = ((25 * apbclock) / (4 * (USART_InitStruct->USART_BaudRate)));
    3592:	fe842703          	lw	a4,-24(s0)
    3596:	87ba                	mv	a5,a4
    3598:	0786                	slli	a5,a5,0x1
    359a:	97ba                	add	a5,a5,a4
    359c:	078e                	slli	a5,a5,0x3
    359e:	973e                	add	a4,a4,a5
    35a0:	fb842783          	lw	a5,-72(s0)
    35a4:	439c                	lw	a5,0(a5)
    35a6:	078a                	slli	a5,a5,0x2
    35a8:	02f757b3          	divu	a5,a4,a5
    35ac:	fef42223          	sw	a5,-28(s0)
C:/Users/86152/Desktop/单车越野/我的/代码调试/Bicycle_Code/libraries/sdk/Peripheral/ch32v30x_usart.c:173
    }
    tmpreg = (integerdivider / 100) << 4;
    35b0:	fe442703          	lw	a4,-28(s0)
    35b4:	06400793          	li	a5,100
    35b8:	02f757b3          	divu	a5,a4,a5
    35bc:	0792                	slli	a5,a5,0x4
    35be:	fef42623          	sw	a5,-20(s0)
C:/Users/86152/Desktop/单车越野/我的/代码调试/Bicycle_Code/libraries/sdk/Peripheral/ch32v30x_usart.c:175

    fractionaldivider = integerdivider - (100 * (tmpreg >> 4));
    35c2:	fec42783          	lw	a5,-20(s0)
    35c6:	0047d713          	srli	a4,a5,0x4
    35ca:	06400793          	li	a5,100
    35ce:	02f707b3          	mul	a5,a4,a5
    35d2:	fe442703          	lw	a4,-28(s0)
    35d6:	40f707b3          	sub	a5,a4,a5
    35da:	fef42023          	sw	a5,-32(s0)
C:/Users/86152/Desktop/单车越野/我的/代码调试/Bicycle_Code/libraries/sdk/Peripheral/ch32v30x_usart.c:177

    if((USARTx->CTLR1 & CTLR1_OVER8_Set) != 0)
    35de:	fbc42783          	lw	a5,-68(s0)
    35e2:	00c7d783          	lhu	a5,12(a5)
    35e6:	07c2                	slli	a5,a5,0x10
    35e8:	83c1                	srli	a5,a5,0x10
    35ea:	07c2                	slli	a5,a5,0x10
    35ec:	87c1                	srai	a5,a5,0x10
    35ee:	0207d263          	bgez	a5,3612 <USART_Init+0x1fa>
C:/Users/86152/Desktop/单车越野/我的/代码调试/Bicycle_Code/libraries/sdk/Peripheral/ch32v30x_usart.c:179
    {
        tmpreg |= ((((fractionaldivider * 8) + 50) / 100)) & ((uint8_t)0x07);
    35f2:	fe042783          	lw	a5,-32(s0)
    35f6:	078e                	slli	a5,a5,0x3
    35f8:	03278713          	addi	a4,a5,50
    35fc:	06400793          	li	a5,100
    3600:	02f757b3          	divu	a5,a4,a5
    3604:	8b9d                	andi	a5,a5,7
    3606:	fec42703          	lw	a4,-20(s0)
    360a:	8fd9                	or	a5,a5,a4
    360c:	fef42623          	sw	a5,-20(s0)
    3610:	a005                	j	3630 <USART_Init+0x218>
C:/Users/86152/Desktop/单车越野/我的/代码调试/Bicycle_Code/libraries/sdk/Peripheral/ch32v30x_usart.c:183
    }
    else
    {
        tmpreg |= ((((fractionaldivider * 16) + 50) / 100)) & ((uint8_t)0x0F);
    3612:	fe042783          	lw	a5,-32(s0)
    3616:	0792                	slli	a5,a5,0x4
    3618:	03278713          	addi	a4,a5,50
    361c:	06400793          	li	a5,100
    3620:	02f757b3          	divu	a5,a4,a5
    3624:	8bbd                	andi	a5,a5,15
    3626:	fec42703          	lw	a4,-20(s0)
    362a:	8fd9                	or	a5,a5,a4
    362c:	fef42623          	sw	a5,-20(s0)
C:/Users/86152/Desktop/单车越野/我的/代码调试/Bicycle_Code/libraries/sdk/Peripheral/ch32v30x_usart.c:186
    }

    USARTx->BRR = (uint16_t)tmpreg;
    3630:	fec42783          	lw	a5,-20(s0)
    3634:	01079713          	slli	a4,a5,0x10
    3638:	8341                	srli	a4,a4,0x10
    363a:	fbc42783          	lw	a5,-68(s0)
    363e:	00e79423          	sh	a4,8(a5)
C:/Users/86152/Desktop/单车越野/我的/代码调试/Bicycle_Code/libraries/sdk/Peripheral/ch32v30x_usart.c:187
}
    3642:	0001                	nop
    3644:	40b6                	lw	ra,76(sp)
    3646:	4426                	lw	s0,72(sp)
    3648:	6161                	addi	sp,sp,80
    364a:	8082                	ret

0000364c <USART_Cmd>:
USART_Cmd():
C:/Users/86152/Desktop/单车越野/我的/代码调试/Bicycle_Code/libraries/sdk/Peripheral/ch32v30x_usart.c:262
 *          NewState: ENABLE or DISABLE.
 *
 * @return  none
 */
void USART_Cmd(USART_TypeDef *USARTx, FunctionalState NewState)
{
    364c:	1101                	addi	sp,sp,-32
    364e:	ce22                	sw	s0,28(sp)
    3650:	1000                	addi	s0,sp,32
    3652:	fea42623          	sw	a0,-20(s0)
    3656:	feb42423          	sw	a1,-24(s0)
C:/Users/86152/Desktop/单车越野/我的/代码调试/Bicycle_Code/libraries/sdk/Peripheral/ch32v30x_usart.c:263
    if(NewState != DISABLE)
    365a:	fe842783          	lw	a5,-24(s0)
    365e:	c395                	beqz	a5,3682 <USART_Cmd+0x36>
C:/Users/86152/Desktop/单车越野/我的/代码调试/Bicycle_Code/libraries/sdk/Peripheral/ch32v30x_usart.c:265
    {
        USARTx->CTLR1 |= CTLR1_UE_Set;
    3660:	fec42783          	lw	a5,-20(s0)
    3664:	00c7d783          	lhu	a5,12(a5)
    3668:	01079713          	slli	a4,a5,0x10
    366c:	8341                	srli	a4,a4,0x10
    366e:	6789                	lui	a5,0x2
    3670:	8fd9                	or	a5,a5,a4
    3672:	01079713          	slli	a4,a5,0x10
    3676:	8341                	srli	a4,a4,0x10
    3678:	fec42783          	lw	a5,-20(s0)
    367c:	00e79623          	sh	a4,12(a5) # 200c <UART4_IRQHandler+0x2e>
C:/Users/86152/Desktop/单车越野/我的/代码调试/Bicycle_Code/libraries/sdk/Peripheral/ch32v30x_usart.c:271
    }
    else
    {
        USARTx->CTLR1 &= CTLR1_UE_Reset;
    }
}
    3680:	a015                	j	36a4 <USART_Cmd+0x58>
C:/Users/86152/Desktop/单车越野/我的/代码调试/Bicycle_Code/libraries/sdk/Peripheral/ch32v30x_usart.c:269
        USARTx->CTLR1 &= CTLR1_UE_Reset;
    3682:	fec42783          	lw	a5,-20(s0)
    3686:	00c7d783          	lhu	a5,12(a5)
    368a:	01079713          	slli	a4,a5,0x10
    368e:	8341                	srli	a4,a4,0x10
    3690:	77f9                	lui	a5,0xffffe
    3692:	17fd                	addi	a5,a5,-1
    3694:	8ff9                	and	a5,a5,a4
    3696:	01079713          	slli	a4,a5,0x10
    369a:	8341                	srli	a4,a4,0x10
    369c:	fec42783          	lw	a5,-20(s0)
    36a0:	00e79623          	sh	a4,12(a5) # ffffe00c <_eusrstack+0xdffee00c>
C:/Users/86152/Desktop/单车越野/我的/代码调试/Bicycle_Code/libraries/sdk/Peripheral/ch32v30x_usart.c:271
}
    36a4:	0001                	nop
    36a6:	4472                	lw	s0,28(sp)
    36a8:	6105                	addi	sp,sp,32
    36aa:	8082                	ret

000036ac <USART_SendData>:
USART_SendData():
C:/Users/86152/Desktop/单车越野/我的/代码调试/Bicycle_Code/libraries/sdk/Peripheral/ch32v30x_usart.c:462
 *          Data - the data to transmit.
 *
 * @return  none
 */
void USART_SendData(USART_TypeDef *USARTx, uint16_t Data)
{
    36ac:	1101                	addi	sp,sp,-32
    36ae:	ce22                	sw	s0,28(sp)
    36b0:	1000                	addi	s0,sp,32
    36b2:	fea42623          	sw	a0,-20(s0)
    36b6:	87ae                	mv	a5,a1
    36b8:	fef41523          	sh	a5,-22(s0)
C:/Users/86152/Desktop/单车越野/我的/代码调试/Bicycle_Code/libraries/sdk/Peripheral/ch32v30x_usart.c:463
    USARTx->DATAR = (Data & (uint16_t)0x01FF);
    36bc:	fea45783          	lhu	a5,-22(s0)
    36c0:	1ff7f793          	andi	a5,a5,511
    36c4:	01079713          	slli	a4,a5,0x10
    36c8:	8341                	srli	a4,a4,0x10
    36ca:	fec42783          	lw	a5,-20(s0)
    36ce:	00e79223          	sh	a4,4(a5)
C:/Users/86152/Desktop/单车越野/我的/代码调试/Bicycle_Code/libraries/sdk/Peripheral/ch32v30x_usart.c:464
}
    36d2:	0001                	nop
    36d4:	4472                	lw	s0,28(sp)
    36d6:	6105                	addi	sp,sp,32
    36d8:	8082                	ret

000036da <USART_GetFlagStatus>:
USART_GetFlagStatus():
C:/Users/86152/Desktop/单车越野/我的/代码调试/Bicycle_Code/libraries/sdk/Peripheral/ch32v30x_usart.c:697
 *            USART_FLAG_PE - Parity Error flag.
 *
 * @return  none
 */
FlagStatus USART_GetFlagStatus(USART_TypeDef *USARTx, uint16_t USART_FLAG)
{
    36da:	7179                	addi	sp,sp,-48
    36dc:	d622                	sw	s0,44(sp)
    36de:	1800                	addi	s0,sp,48
    36e0:	fca42e23          	sw	a0,-36(s0)
    36e4:	87ae                	mv	a5,a1
    36e6:	fcf41d23          	sh	a5,-38(s0)
C:/Users/86152/Desktop/单车越野/我的/代码调试/Bicycle_Code/libraries/sdk/Peripheral/ch32v30x_usart.c:698
    FlagStatus bitstatus = RESET;
    36ea:	fe042623          	sw	zero,-20(s0)
C:/Users/86152/Desktop/单车越野/我的/代码调试/Bicycle_Code/libraries/sdk/Peripheral/ch32v30x_usart.c:704

    if(USART_FLAG == USART_FLAG_CTS)
    {
    }

    if((USARTx->STATR & USART_FLAG) != (uint16_t)RESET)
    36ee:	fdc42783          	lw	a5,-36(s0)
    36f2:	0007d783          	lhu	a5,0(a5)
    36f6:	01079713          	slli	a4,a5,0x10
    36fa:	8341                	srli	a4,a4,0x10
    36fc:	fda45783          	lhu	a5,-38(s0)
    3700:	8ff9                	and	a5,a5,a4
    3702:	07c2                	slli	a5,a5,0x10
    3704:	83c1                	srli	a5,a5,0x10
    3706:	c789                	beqz	a5,3710 <USART_GetFlagStatus+0x36>
C:/Users/86152/Desktop/单车越野/我的/代码调试/Bicycle_Code/libraries/sdk/Peripheral/ch32v30x_usart.c:706
    {
        bitstatus = SET;
    3708:	4785                	li	a5,1
    370a:	fef42623          	sw	a5,-20(s0)
    370e:	a019                	j	3714 <USART_GetFlagStatus+0x3a>
C:/Users/86152/Desktop/单车越野/我的/代码调试/Bicycle_Code/libraries/sdk/Peripheral/ch32v30x_usart.c:710
    }
    else
    {
        bitstatus = RESET;
    3710:	fe042623          	sw	zero,-20(s0)
C:/Users/86152/Desktop/单车越野/我的/代码调试/Bicycle_Code/libraries/sdk/Peripheral/ch32v30x_usart.c:712
    }
    return bitstatus;
    3714:	fec42783          	lw	a5,-20(s0)
C:/Users/86152/Desktop/单车越野/我的/代码调试/Bicycle_Code/libraries/sdk/Peripheral/ch32v30x_usart.c:713
}
    3718:	853e                	mv	a0,a5
    371a:	5432                	lw	s0,44(sp)
    371c:	6145                	addi	sp,sp,48
    371e:	8082                	ret

00003720 <USART_GetITStatus>:
USART_GetITStatus():
C:/Users/86152/Desktop/单车越野/我的/代码调试/Bicycle_Code/libraries/sdk/Peripheral/ch32v30x_usart.c:760
 *            USART_IT_PE - Parity Error interrupt.
 *
 * @return  none
 */
ITStatus USART_GetITStatus(USART_TypeDef *USARTx, uint16_t USART_IT)
{
    3720:	7179                	addi	sp,sp,-48
    3722:	d622                	sw	s0,44(sp)
    3724:	1800                	addi	s0,sp,48
    3726:	fca42e23          	sw	a0,-36(s0)
    372a:	87ae                	mv	a5,a1
    372c:	fcf41d23          	sh	a5,-38(s0)
C:/Users/86152/Desktop/单车越野/我的/代码调试/Bicycle_Code/libraries/sdk/Peripheral/ch32v30x_usart.c:761
    uint32_t bitpos = 0x00, itmask = 0x00, usartreg = 0x00;
    3730:	fe042223          	sw	zero,-28(s0)
    3734:	fe042623          	sw	zero,-20(s0)
    3738:	fe042023          	sw	zero,-32(s0)
C:/Users/86152/Desktop/单车越野/我的/代码调试/Bicycle_Code/libraries/sdk/Peripheral/ch32v30x_usart.c:762
    ITStatus bitstatus = RESET;
    373c:	fe042423          	sw	zero,-24(s0)
C:/Users/86152/Desktop/单车越野/我的/代码调试/Bicycle_Code/libraries/sdk/Peripheral/ch32v30x_usart.c:768

    if(USART_IT == USART_IT_CTS)
    {
    }

    usartreg = (((uint8_t)USART_IT) >> 0x05);
    3740:	fda45783          	lhu	a5,-38(s0)
    3744:	0ff7f793          	andi	a5,a5,255
    3748:	8395                	srli	a5,a5,0x5
    374a:	0ff7f793          	andi	a5,a5,255
    374e:	fef42023          	sw	a5,-32(s0)
C:/Users/86152/Desktop/单车越野/我的/代码调试/Bicycle_Code/libraries/sdk/Peripheral/ch32v30x_usart.c:769
    itmask = USART_IT & IT_Mask;
    3752:	fda45783          	lhu	a5,-38(s0)
    3756:	8bfd                	andi	a5,a5,31
    3758:	fef42623          	sw	a5,-20(s0)
C:/Users/86152/Desktop/单车越野/我的/代码调试/Bicycle_Code/libraries/sdk/Peripheral/ch32v30x_usart.c:770
    itmask = (uint32_t)0x01 << itmask;
    375c:	fec42783          	lw	a5,-20(s0)
    3760:	4705                	li	a4,1
    3762:	00f717b3          	sll	a5,a4,a5
    3766:	fef42623          	sw	a5,-20(s0)
C:/Users/86152/Desktop/单车越野/我的/代码调试/Bicycle_Code/libraries/sdk/Peripheral/ch32v30x_usart.c:772

    if(usartreg == 0x01)
    376a:	fe042703          	lw	a4,-32(s0)
    376e:	4785                	li	a5,1
    3770:	00f71f63          	bne	a4,a5,378e <USART_GetITStatus+0x6e>
C:/Users/86152/Desktop/单车越野/我的/代码调试/Bicycle_Code/libraries/sdk/Peripheral/ch32v30x_usart.c:774
    {
        itmask &= USARTx->CTLR1;
    3774:	fdc42783          	lw	a5,-36(s0)
    3778:	00c7d783          	lhu	a5,12(a5)
    377c:	07c2                	slli	a5,a5,0x10
    377e:	83c1                	srli	a5,a5,0x10
    3780:	873e                	mv	a4,a5
    3782:	fec42783          	lw	a5,-20(s0)
    3786:	8ff9                	and	a5,a5,a4
    3788:	fef42623          	sw	a5,-20(s0)
    378c:	a83d                	j	37ca <USART_GetITStatus+0xaa>
C:/Users/86152/Desktop/单车越野/我的/代码调试/Bicycle_Code/libraries/sdk/Peripheral/ch32v30x_usart.c:776
    }
    else if(usartreg == 0x02)
    378e:	fe042703          	lw	a4,-32(s0)
    3792:	4789                	li	a5,2
    3794:	00f71f63          	bne	a4,a5,37b2 <USART_GetITStatus+0x92>
C:/Users/86152/Desktop/单车越野/我的/代码调试/Bicycle_Code/libraries/sdk/Peripheral/ch32v30x_usart.c:778
    {
        itmask &= USARTx->CTLR2;
    3798:	fdc42783          	lw	a5,-36(s0)
    379c:	0107d783          	lhu	a5,16(a5)
    37a0:	07c2                	slli	a5,a5,0x10
    37a2:	83c1                	srli	a5,a5,0x10
    37a4:	873e                	mv	a4,a5
    37a6:	fec42783          	lw	a5,-20(s0)
    37aa:	8ff9                	and	a5,a5,a4
    37ac:	fef42623          	sw	a5,-20(s0)
    37b0:	a829                	j	37ca <USART_GetITStatus+0xaa>
C:/Users/86152/Desktop/单车越野/我的/代码调试/Bicycle_Code/libraries/sdk/Peripheral/ch32v30x_usart.c:782
    }
    else
    {
        itmask &= USARTx->CTLR3;
    37b2:	fdc42783          	lw	a5,-36(s0)
    37b6:	0147d783          	lhu	a5,20(a5)
    37ba:	07c2                	slli	a5,a5,0x10
    37bc:	83c1                	srli	a5,a5,0x10
    37be:	873e                	mv	a4,a5
    37c0:	fec42783          	lw	a5,-20(s0)
    37c4:	8ff9                	and	a5,a5,a4
    37c6:	fef42623          	sw	a5,-20(s0)
C:/Users/86152/Desktop/单车越野/我的/代码调试/Bicycle_Code/libraries/sdk/Peripheral/ch32v30x_usart.c:785
    }

    bitpos = USART_IT >> 0x08;
    37ca:	fda45783          	lhu	a5,-38(s0)
    37ce:	83a1                	srli	a5,a5,0x8
    37d0:	07c2                	slli	a5,a5,0x10
    37d2:	83c1                	srli	a5,a5,0x10
    37d4:	fef42223          	sw	a5,-28(s0)
C:/Users/86152/Desktop/单车越野/我的/代码调试/Bicycle_Code/libraries/sdk/Peripheral/ch32v30x_usart.c:786
    bitpos = (uint32_t)0x01 << bitpos;
    37d8:	fe442783          	lw	a5,-28(s0)
    37dc:	4705                	li	a4,1
    37de:	00f717b3          	sll	a5,a4,a5
    37e2:	fef42223          	sw	a5,-28(s0)
C:/Users/86152/Desktop/单车越野/我的/代码调试/Bicycle_Code/libraries/sdk/Peripheral/ch32v30x_usart.c:787
    bitpos &= USARTx->STATR;
    37e6:	fdc42783          	lw	a5,-36(s0)
    37ea:	0007d783          	lhu	a5,0(a5)
    37ee:	07c2                	slli	a5,a5,0x10
    37f0:	83c1                	srli	a5,a5,0x10
    37f2:	873e                	mv	a4,a5
    37f4:	fe442783          	lw	a5,-28(s0)
    37f8:	8ff9                	and	a5,a5,a4
    37fa:	fef42223          	sw	a5,-28(s0)
C:/Users/86152/Desktop/单车越野/我的/代码调试/Bicycle_Code/libraries/sdk/Peripheral/ch32v30x_usart.c:789

    if((itmask != (uint16_t)RESET) && (bitpos != (uint16_t)RESET))
    37fe:	fec42783          	lw	a5,-20(s0)
    3802:	cb81                	beqz	a5,3812 <USART_GetITStatus+0xf2>
C:/Users/86152/Desktop/单车越野/我的/代码调试/Bicycle_Code/libraries/sdk/Peripheral/ch32v30x_usart.c:789 (discriminator 1)
    3804:	fe442783          	lw	a5,-28(s0)
    3808:	c789                	beqz	a5,3812 <USART_GetITStatus+0xf2>
C:/Users/86152/Desktop/单车越野/我的/代码调试/Bicycle_Code/libraries/sdk/Peripheral/ch32v30x_usart.c:791
    {
        bitstatus = SET;
    380a:	4785                	li	a5,1
    380c:	fef42423          	sw	a5,-24(s0)
    3810:	a019                	j	3816 <USART_GetITStatus+0xf6>
C:/Users/86152/Desktop/单车越野/我的/代码调试/Bicycle_Code/libraries/sdk/Peripheral/ch32v30x_usart.c:795
    }
    else
    {
        bitstatus = RESET;
    3812:	fe042423          	sw	zero,-24(s0)
C:/Users/86152/Desktop/单车越野/我的/代码调试/Bicycle_Code/libraries/sdk/Peripheral/ch32v30x_usart.c:798
    }

    return bitstatus;
    3816:	fe842783          	lw	a5,-24(s0)
C:/Users/86152/Desktop/单车越野/我的/代码调试/Bicycle_Code/libraries/sdk/Peripheral/ch32v30x_usart.c:799
}
    381a:	853e                	mv	a0,a5
    381c:	5432                	lw	s0,44(sp)
    381e:	6145                	addi	sp,sp,48
    3820:	8082                	ret

00003822 <USART_ClearITPendingBit>:
USART_ClearITPendingBit():
C:/Users/86152/Desktop/单车越野/我的/代码调试/Bicycle_Code/libraries/sdk/Peripheral/ch32v30x_usart.c:816
 *            USART_IT_RXNE - Receive Data register not empty interrupt.
 *
 * @return  none
 */
void USART_ClearITPendingBit(USART_TypeDef *USARTx, uint16_t USART_IT)
{
    3822:	7179                	addi	sp,sp,-48
    3824:	d622                	sw	s0,44(sp)
    3826:	1800                	addi	s0,sp,48
    3828:	fca42e23          	sw	a0,-36(s0)
    382c:	87ae                	mv	a5,a1
    382e:	fcf41d23          	sh	a5,-38(s0)
C:/Users/86152/Desktop/单车越野/我的/代码调试/Bicycle_Code/libraries/sdk/Peripheral/ch32v30x_usart.c:817
    uint16_t bitpos = 0x00, itmask = 0x00;
    3832:	fe041723          	sh	zero,-18(s0)
    3836:	fe041623          	sh	zero,-20(s0)
C:/Users/86152/Desktop/单车越野/我的/代码调试/Bicycle_Code/libraries/sdk/Peripheral/ch32v30x_usart.c:823

    if(USART_IT == USART_IT_CTS)
    {
    }

    bitpos = USART_IT >> 0x08;
    383a:	fda45783          	lhu	a5,-38(s0)
    383e:	83a1                	srli	a5,a5,0x8
    3840:	fef41723          	sh	a5,-18(s0)
C:/Users/86152/Desktop/单车越野/我的/代码调试/Bicycle_Code/libraries/sdk/Peripheral/ch32v30x_usart.c:824
    itmask = ((uint16_t)0x01 << (uint16_t)bitpos);
    3844:	fee45783          	lhu	a5,-18(s0)
    3848:	4705                	li	a4,1
    384a:	00f717b3          	sll	a5,a4,a5
    384e:	fef41623          	sh	a5,-20(s0)
C:/Users/86152/Desktop/单车越野/我的/代码调试/Bicycle_Code/libraries/sdk/Peripheral/ch32v30x_usart.c:825
    USARTx->STATR = (uint16_t)~itmask;
    3852:	fec45783          	lhu	a5,-20(s0)
    3856:	fff7c793          	not	a5,a5
    385a:	01079713          	slli	a4,a5,0x10
    385e:	8341                	srli	a4,a4,0x10
    3860:	fdc42783          	lw	a5,-36(s0)
    3864:	00e79023          	sh	a4,0(a5)
C:/Users/86152/Desktop/单车越野/我的/代码调试/Bicycle_Code/libraries/sdk/Peripheral/ch32v30x_usart.c:826
}
    3868:	0001                	nop
    386a:	5432                	lw	s0,44(sp)
    386c:	6145                	addi	sp,sp,48
    386e:	8082                	ret

00003870 <DevEP1_IN_Deal>:
DevEP1_IN_Deal():
C:/Users/86152/Desktop/单车越野/我的/代码调试/Bicycle_Code/libraries/sdk/Peripheral/ch32v30x_usbotg_device.c:329
* Description    : Device endpoint1 IN.
* Input          : l: IN length(<64B)
* Return         : None
*******************************************************************************/
void DevEP1_IN_Deal( UINT8 l )
{
    3870:	1101                	addi	sp,sp,-32
    3872:	ce22                	sw	s0,28(sp)
    3874:	1000                	addi	s0,sp,32
    3876:	87aa                	mv	a5,a0
    3878:	fef407a3          	sb	a5,-17(s0)
C:/Users/86152/Desktop/单车越野/我的/代码调试/Bicycle_Code/libraries/sdk/Peripheral/ch32v30x_usbotg_device.c:330
    USBOTG_FS->UEP1_TX_LEN = l;
    387c:	500007b7          	lui	a5,0x50000
    3880:	fef44703          	lbu	a4,-17(s0)
    3884:	0742                	slli	a4,a4,0x10
    3886:	8341                	srli	a4,a4,0x10
    3888:	02e79a23          	sh	a4,52(a5) # 50000034 <_eusrstack+0x2fff0034>
C:/Users/86152/Desktop/单车越野/我的/代码调试/Bicycle_Code/libraries/sdk/Peripheral/ch32v30x_usbotg_device.c:331
    USBOTG_FS->UEP1_TX_CTRL = (USBOTG_FS->UEP1_TX_CTRL & ~USBHD_UEP_T_RES_MASK)| USBHD_UEP_T_RES_ACK;
    388c:	500007b7          	lui	a5,0x50000
    3890:	0367c783          	lbu	a5,54(a5) # 50000036 <_eusrstack+0x2fff0036>
    3894:	0ff7f713          	andi	a4,a5,255
    3898:	500007b7          	lui	a5,0x50000
    389c:	9b71                	andi	a4,a4,-4
    389e:	0ff77713          	andi	a4,a4,255
    38a2:	02e78b23          	sb	a4,54(a5) # 50000036 <_eusrstack+0x2fff0036>
C:/Users/86152/Desktop/单车越野/我的/代码调试/Bicycle_Code/libraries/sdk/Peripheral/ch32v30x_usbotg_device.c:332
}
    38a6:	0001                	nop
    38a8:	4472                	lw	s0,28(sp)
    38aa:	6105                	addi	sp,sp,32
    38ac:	8082                	ret

000038ae <DevEP2_IN_Deal>:
DevEP2_IN_Deal():
C:/Users/86152/Desktop/单车越野/我的/代码调试/Bicycle_Code/libraries/sdk/Peripheral/ch32v30x_usbotg_device.c:341
* Description    : Device endpoint2 IN.
* Input          : l: IN length(<64B)
* Return         : None
*******************************************************************************/
void DevEP2_IN_Deal( UINT8 l )
{
    38ae:	1101                	addi	sp,sp,-32
    38b0:	ce22                	sw	s0,28(sp)
    38b2:	1000                	addi	s0,sp,32
    38b4:	87aa                	mv	a5,a0
    38b6:	fef407a3          	sb	a5,-17(s0)
C:/Users/86152/Desktop/单车越野/我的/代码调试/Bicycle_Code/libraries/sdk/Peripheral/ch32v30x_usbotg_device.c:342
    USBOTG_FS->UEP2_TX_LEN = l;
    38ba:	500007b7          	lui	a5,0x50000
    38be:	fef44703          	lbu	a4,-17(s0)
    38c2:	0742                	slli	a4,a4,0x10
    38c4:	8341                	srli	a4,a4,0x10
    38c6:	02e79c23          	sh	a4,56(a5) # 50000038 <_eusrstack+0x2fff0038>
C:/Users/86152/Desktop/单车越野/我的/代码调试/Bicycle_Code/libraries/sdk/Peripheral/ch32v30x_usbotg_device.c:343
    USBOTG_FS->UEP2_TX_CTRL = (USBOTG_FS->UEP2_TX_CTRL & ~USBHD_UEP_T_RES_MASK)| USBHD_UEP_T_RES_ACK;
    38ca:	500007b7          	lui	a5,0x50000
    38ce:	03a7c783          	lbu	a5,58(a5) # 5000003a <_eusrstack+0x2fff003a>
    38d2:	0ff7f713          	andi	a4,a5,255
    38d6:	500007b7          	lui	a5,0x50000
    38da:	9b71                	andi	a4,a4,-4
    38dc:	0ff77713          	andi	a4,a4,255
    38e0:	02e78d23          	sb	a4,58(a5) # 5000003a <_eusrstack+0x2fff003a>
C:/Users/86152/Desktop/单车越野/我的/代码调试/Bicycle_Code/libraries/sdk/Peripheral/ch32v30x_usbotg_device.c:344
}
    38e4:	0001                	nop
    38e6:	4472                	lw	s0,28(sp)
    38e8:	6105                	addi	sp,sp,32
    38ea:	8082                	ret

000038ec <DevEP1_OUT_Deal>:
DevEP1_OUT_Deal():
C:/Users/86152/Desktop/单车越野/我的/代码调试/Bicycle_Code/libraries/sdk/Peripheral/ch32v30x_usbotg_device.c:353
* Description    : Deal device Endpoint 1 OUT.
* Input          : l: Data length.
* Return         : None
*******************************************************************************/
void DevEP1_OUT_Deal( UINT8 l )
{
    38ec:	7179                	addi	sp,sp,-48
    38ee:	d606                	sw	ra,44(sp)
    38f0:	d422                	sw	s0,40(sp)
    38f2:	1800                	addi	s0,sp,48
    38f4:	87aa                	mv	a5,a0
    38f6:	fcf40fa3          	sb	a5,-33(s0)
C:/Users/86152/Desktop/单车越野/我的/代码调试/Bicycle_Code/libraries/sdk/Peripheral/ch32v30x_usbotg_device.c:356
    UINT8 i;

    for(i=0; i<l; i++)
    38fa:	fe0407a3          	sb	zero,-17(s0)
    38fe:	a815                	j	3932 <DevEP1_OUT_Deal+0x46>
C:/Users/86152/Desktop/单车越野/我的/代码调试/Bicycle_Code/libraries/sdk/Peripheral/ch32v30x_usbotg_device.c:358 (discriminator 3)
    {
        pEP1_IN_DataBuf[i] = ~pEP1_OUT_DataBuf[i];
    3900:	8501a703          	lw	a4,-1968(gp) # 20000288 <pEP1_RAM_Addr>
    3904:	fef44783          	lbu	a5,-17(s0)
    3908:	97ba                	add	a5,a5,a4
    390a:	0007c703          	lbu	a4,0(a5)
    390e:	8501a683          	lw	a3,-1968(gp) # 20000288 <pEP1_RAM_Addr>
    3912:	fef44783          	lbu	a5,-17(s0)
    3916:	04078793          	addi	a5,a5,64
    391a:	97b6                	add	a5,a5,a3
    391c:	fff74713          	not	a4,a4
    3920:	0ff77713          	andi	a4,a4,255
    3924:	00e78023          	sb	a4,0(a5)
C:/Users/86152/Desktop/单车越野/我的/代码调试/Bicycle_Code/libraries/sdk/Peripheral/ch32v30x_usbotg_device.c:356 (discriminator 3)
    for(i=0; i<l; i++)
    3928:	fef44783          	lbu	a5,-17(s0)
    392c:	0785                	addi	a5,a5,1
    392e:	fef407a3          	sb	a5,-17(s0)
C:/Users/86152/Desktop/单车越野/我的/代码调试/Bicycle_Code/libraries/sdk/Peripheral/ch32v30x_usbotg_device.c:356 (discriminator 1)
    3932:	fef44703          	lbu	a4,-17(s0)
    3936:	fdf44783          	lbu	a5,-33(s0)
    393a:	fcf763e3          	bltu	a4,a5,3900 <DevEP1_OUT_Deal+0x14>
C:/Users/86152/Desktop/单车越野/我的/代码调试/Bicycle_Code/libraries/sdk/Peripheral/ch32v30x_usbotg_device.c:361
    }

    DevEP1_IN_Deal( l );
    393e:	fdf44783          	lbu	a5,-33(s0)
    3942:	853e                	mv	a0,a5
    3944:	3735                	jal	3870 <DevEP1_IN_Deal>
C:/Users/86152/Desktop/单车越野/我的/代码调试/Bicycle_Code/libraries/sdk/Peripheral/ch32v30x_usbotg_device.c:362
}
    3946:	0001                	nop
    3948:	50b2                	lw	ra,44(sp)
    394a:	5422                	lw	s0,40(sp)
    394c:	6145                	addi	sp,sp,48
    394e:	8082                	ret

00003950 <DevEP2_OUT_Deal>:
DevEP2_OUT_Deal():
C:/Users/86152/Desktop/单车越野/我的/代码调试/Bicycle_Code/libraries/sdk/Peripheral/ch32v30x_usbotg_device.c:371
* Description    : Deal device Endpoint 2 OUT.
* Input          : l: Data length.
* Return         : None
*******************************************************************************/
void DevEP2_OUT_Deal( UINT8 l )
{
    3950:	7179                	addi	sp,sp,-48
    3952:	d606                	sw	ra,44(sp)
    3954:	d422                	sw	s0,40(sp)
    3956:	1800                	addi	s0,sp,48
    3958:	87aa                	mv	a5,a0
    395a:	fcf40fa3          	sb	a5,-33(s0)
C:/Users/86152/Desktop/单车越野/我的/代码调试/Bicycle_Code/libraries/sdk/Peripheral/ch32v30x_usbotg_device.c:374
    UINT8 i;

    for(i=0; i<l; i++)
    395e:	fe0407a3          	sb	zero,-17(s0)
    3962:	a815                	j	3996 <DevEP2_OUT_Deal+0x46>
C:/Users/86152/Desktop/单车越野/我的/代码调试/Bicycle_Code/libraries/sdk/Peripheral/ch32v30x_usbotg_device.c:376 (discriminator 3)
    {
        pEP2_IN_DataBuf[i] = ~pEP2_OUT_DataBuf[i];
    3964:	8541a703          	lw	a4,-1964(gp) # 2000028c <pEP2_RAM_Addr>
    3968:	fef44783          	lbu	a5,-17(s0)
    396c:	97ba                	add	a5,a5,a4
    396e:	0007c703          	lbu	a4,0(a5)
    3972:	8541a683          	lw	a3,-1964(gp) # 2000028c <pEP2_RAM_Addr>
    3976:	fef44783          	lbu	a5,-17(s0)
    397a:	04078793          	addi	a5,a5,64
    397e:	97b6                	add	a5,a5,a3
    3980:	fff74713          	not	a4,a4
    3984:	0ff77713          	andi	a4,a4,255
    3988:	00e78023          	sb	a4,0(a5)
C:/Users/86152/Desktop/单车越野/我的/代码调试/Bicycle_Code/libraries/sdk/Peripheral/ch32v30x_usbotg_device.c:374 (discriminator 3)
    for(i=0; i<l; i++)
    398c:	fef44783          	lbu	a5,-17(s0)
    3990:	0785                	addi	a5,a5,1
    3992:	fef407a3          	sb	a5,-17(s0)
C:/Users/86152/Desktop/单车越野/我的/代码调试/Bicycle_Code/libraries/sdk/Peripheral/ch32v30x_usbotg_device.c:374 (discriminator 1)
    3996:	fef44703          	lbu	a4,-17(s0)
    399a:	fdf44783          	lbu	a5,-33(s0)
    399e:	fcf763e3          	bltu	a4,a5,3964 <DevEP2_OUT_Deal+0x14>
C:/Users/86152/Desktop/单车越野/我的/代码调试/Bicycle_Code/libraries/sdk/Peripheral/ch32v30x_usbotg_device.c:379
    }

    DevEP2_IN_Deal( l );
    39a2:	fdf44783          	lbu	a5,-33(s0)
    39a6:	853e                	mv	a0,a5
    39a8:	3719                	jal	38ae <DevEP2_IN_Deal>
C:/Users/86152/Desktop/单车越野/我的/代码调试/Bicycle_Code/libraries/sdk/Peripheral/ch32v30x_usbotg_device.c:380
}
    39aa:	0001                	nop
    39ac:	50b2                	lw	ra,44(sp)
    39ae:	5422                	lw	s0,40(sp)
    39b0:	6145                	addi	sp,sp,48
    39b2:	8082                	ret

000039b4 <OTG_FS_IRQHandler>:
OTG_FS_IRQHandler():
C:/Users/86152/Desktop/单车越野/我的/代码调试/Bicycle_Code/libraries/sdk/Peripheral/ch32v30x_usbotg_device.c:389
* Description    : OTG_FS_IRQHandler OTG设备中断处理函数
* Input          : None
* Return         : None
*******************************************************************************/
void OTG_FS_IRQHandler( void )
{
    39b4:	7159                	addi	sp,sp,-112
    39b6:	d6a2                	sw	s0,108(sp)
    39b8:	ee82                	fsw	ft0,92(sp)
    39ba:	ec86                	fsw	ft1,88(sp)
    39bc:	ea8a                	fsw	ft2,84(sp)
    39be:	e88e                	fsw	ft3,80(sp)
    39c0:	e692                	fsw	ft4,76(sp)
    39c2:	e496                	fsw	ft5,72(sp)
    39c4:	e29a                	fsw	ft6,68(sp)
    39c6:	e09e                	fsw	ft7,64(sp)
    39c8:	fe2a                	fsw	fa0,60(sp)
    39ca:	fc2e                	fsw	fa1,56(sp)
    39cc:	fa32                	fsw	fa2,52(sp)
    39ce:	f836                	fsw	fa3,48(sp)
    39d0:	f63a                	fsw	fa4,44(sp)
    39d2:	f43e                	fsw	fa5,40(sp)
    39d4:	f242                	fsw	fa6,36(sp)
    39d6:	f046                	fsw	fa7,32(sp)
    39d8:	ee72                	fsw	ft8,28(sp)
    39da:	ec76                	fsw	ft9,24(sp)
    39dc:	ea7a                	fsw	ft10,20(sp)
    39de:	e87e                	fsw	ft11,16(sp)
    39e0:	1880                	addi	s0,sp,112
C:/Users/86152/Desktop/单车越野/我的/代码调试/Bicycle_Code/libraries/sdk/Peripheral/ch32v30x_usbotg_device.c:391
    UINT8  len, chtype;
    UINT8  intflag, errflag = 0;
    39e2:	f8040f23          	sb	zero,-98(s0)
C:/Users/86152/Desktop/单车越野/我的/代码调试/Bicycle_Code/libraries/sdk/Peripheral/ch32v30x_usbotg_device.c:393

    intflag = USBOTG_FS->INT_FG;
    39e6:	500007b7          	lui	a5,0x50000
    39ea:	0067c783          	lbu	a5,6(a5) # 50000006 <_eusrstack+0x2fff0006>
    39ee:	f8f40ea3          	sb	a5,-99(s0)
C:/Users/86152/Desktop/单车越野/我的/代码调试/Bicycle_Code/libraries/sdk/Peripheral/ch32v30x_usbotg_device.c:395

    if( intflag & USBHD_UIF_TRANSFER )
    39f2:	f9d44783          	lbu	a5,-99(s0)
    39f6:	8b89                	andi	a5,a5,2
    39f8:	3c078ae3          	beqz	a5,45cc <OTG_FS_IRQHandler+0xc18>
C:/Users/86152/Desktop/单车越野/我的/代码调试/Bicycle_Code/libraries/sdk/Peripheral/ch32v30x_usbotg_device.c:397
    {
        switch ( USBOTG_FS->INT_ST & USBHD_UIS_TOKEN_MASK )
    39fc:	500007b7          	lui	a5,0x50000
    3a00:	0077c783          	lbu	a5,7(a5) # 50000007 <_eusrstack+0x2fff0007>
    3a04:	0ff7f793          	andi	a5,a5,255
    3a08:	0307f793          	andi	a5,a5,48
    3a0c:	4741                	li	a4,16
    3a0e:	3ae784e3          	beq	a5,a4,45b6 <OTG_FS_IRQHandler+0xc02>
    3a12:	4741                	li	a4,16
    3a14:	00f74663          	blt	a4,a5,3a20 <OTG_FS_IRQHandler+0x6c>
    3a18:	20078ee3          	beqz	a5,4434 <OTG_FS_IRQHandler+0xa80>
C:/Users/86152/Desktop/单车越野/我的/代码调试/Bicycle_Code/libraries/sdk/Peripheral/ch32v30x_usbotg_device.c:878
            case USBHD_UIS_TOKEN_SOF:

                break;

            default :
                break;
    3a1c:	39f0006f          	j	45ba <OTG_FS_IRQHandler+0xc06>
    3a20:	02000713          	li	a4,32
    3a24:	04e786e3          	beq	a5,a4,4270 <OTG_FS_IRQHandler+0x8bc>
    3a28:	03000713          	li	a4,48
    3a2c:	38e797e3          	bne	a5,a4,45ba <OTG_FS_IRQHandler+0xc06>
C:/Users/86152/Desktop/单车越野/我的/代码调试/Bicycle_Code/libraries/sdk/Peripheral/ch32v30x_usbotg_device.c:411
                USBOTG_FS->UEP0_TX_CTRL = USBHD_UEP_T_TOG|USBHD_UEP_T_RES_NAK;
    3a30:	500007b7          	lui	a5,0x50000
    3a34:	4719                	li	a4,6
    3a36:	02e78923          	sb	a4,50(a5) # 50000032 <_eusrstack+0x2fff0032>
C:/Users/86152/Desktop/单车越野/我的/代码调试/Bicycle_Code/libraries/sdk/Peripheral/ch32v30x_usbotg_device.c:412
                USBOTG_FS->UEP0_RX_CTRL = USBHD_UEP_R_TOG|USBHD_UEP_R_RES_ACK;
    3a3a:	500007b7          	lui	a5,0x50000
    3a3e:	4711                	li	a4,4
    3a40:	02e789a3          	sb	a4,51(a5) # 50000033 <_eusrstack+0x2fff0033>
C:/Users/86152/Desktop/单车越野/我的/代码调试/Bicycle_Code/libraries/sdk/Peripheral/ch32v30x_usbotg_device.c:413
                SetupReqLen  = pSetupReqPakHD->wLength;
    3a44:	84c1a783          	lw	a5,-1972(gp) # 20000284 <pEP0_RAM_Addr>
    3a48:	0067c703          	lbu	a4,6(a5)
    3a4c:	0077c783          	lbu	a5,7(a5)
    3a50:	07a2                	slli	a5,a5,0x8
    3a52:	8fd9                	or	a5,a5,a4
    3a54:	01079713          	slli	a4,a5,0x10
    3a58:	8341                	srli	a4,a4,0x10
    3a5a:	86e19123          	sh	a4,-1950(gp) # 2000029a <SetupReqLen>
C:/Users/86152/Desktop/单车越野/我的/代码调试/Bicycle_Code/libraries/sdk/Peripheral/ch32v30x_usbotg_device.c:414
                SetupReqCode = pSetupReqPakHD->bRequest;
    3a5e:	84c1a783          	lw	a5,-1972(gp) # 20000284 <pEP0_RAM_Addr>
    3a62:	0017c703          	lbu	a4,1(a5)
    3a66:	86e18023          	sb	a4,-1952(gp) # 20000298 <SetupReqCode>
C:/Users/86152/Desktop/单车越野/我的/代码调试/Bicycle_Code/libraries/sdk/Peripheral/ch32v30x_usbotg_device.c:415
                chtype = pSetupReqPakHD->bRequestType;
    3a6a:	84c1a783          	lw	a5,-1972(gp) # 20000284 <pEP0_RAM_Addr>
    3a6e:	0007c783          	lbu	a5,0(a5)
    3a72:	f8f40e23          	sb	a5,-100(s0)
C:/Users/86152/Desktop/单车越野/我的/代码调试/Bicycle_Code/libraries/sdk/Peripheral/ch32v30x_usbotg_device.c:416
                len = 0;
    3a76:	f8040fa3          	sb	zero,-97(s0)
C:/Users/86152/Desktop/单车越野/我的/代码调试/Bicycle_Code/libraries/sdk/Peripheral/ch32v30x_usbotg_device.c:417
                errflag = 0;
    3a7a:	f8040f23          	sb	zero,-98(s0)
C:/Users/86152/Desktop/单车越野/我的/代码调试/Bicycle_Code/libraries/sdk/Peripheral/ch32v30x_usbotg_device.c:419
                if ( ( pSetupReqPakHD->bRequestType & USB_REQ_TYP_MASK ) != USB_REQ_TYP_STANDARD )  //非标准请求
    3a7e:	84c1a783          	lw	a5,-1972(gp) # 20000284 <pEP0_RAM_Addr>
    3a82:	0007c783          	lbu	a5,0(a5)
    3a86:	0607f793          	andi	a5,a5,96
    3a8a:	12078b63          	beqz	a5,3bc0 <OTG_FS_IRQHandler+0x20c>
C:/Users/86152/Desktop/单车越野/我的/代码调试/Bicycle_Code/libraries/sdk/Peripheral/ch32v30x_usbotg_device.c:422
                    if(SetupReqCode & 0x20)
    3a8e:	8601c783          	lbu	a5,-1952(gp) # 20000298 <SetupReqCode>
    3a92:	0ff7f793          	andi	a5,a5,255
    3a96:	0207f793          	andi	a5,a5,32
    3a9a:	c3d5                	beqz	a5,3b3e <OTG_FS_IRQHandler+0x18a>
C:/Users/86152/Desktop/单车越野/我的/代码调试/Bicycle_Code/libraries/sdk/Peripheral/ch32v30x_usbotg_device.c:424
                        switch( SetupReqCode )
    3a9c:	8601c783          	lbu	a5,-1952(gp) # 20000298 <SetupReqCode>
    3aa0:	0ff7f793          	andi	a5,a5,255
    3aa4:	02100713          	li	a4,33
    3aa8:	00e78b63          	beq	a5,a4,3abe <OTG_FS_IRQHandler+0x10a>
    3aac:	02200713          	li	a4,34
    3ab0:	08e78963          	beq	a5,a4,3b42 <OTG_FS_IRQHandler+0x18e>
    3ab4:	02000713          	li	a4,32
    3ab8:	08e78763          	beq	a5,a4,3b46 <OTG_FS_IRQHandler+0x192>
    3abc:	a8ad                	j	3b36 <OTG_FS_IRQHandler+0x182>
C:/Users/86152/Desktop/单车越野/我的/代码调试/Bicycle_Code/libraries/sdk/Peripheral/ch32v30x_usbotg_device.c:427
                                pDescr = LineCoding;
    3abe:	81c18713          	addi	a4,gp,-2020 # 20000254 <LineCoding>
    3ac2:	84e1ac23          	sw	a4,-1960(gp) # 20000290 <pDescr>
C:/Users/86152/Desktop/单车越野/我的/代码调试/Bicycle_Code/libraries/sdk/Peripheral/ch32v30x_usbotg_device.c:428
                                len = sizeof(LineCoding);
    3ac6:	479d                	li	a5,7
    3ac8:	f8f40fa3          	sb	a5,-97(s0)
C:/Users/86152/Desktop/单车越野/我的/代码调试/Bicycle_Code/libraries/sdk/Peripheral/ch32v30x_usbotg_device.c:429
                                len = SetupReqLen >= DEFAULT_ENDP0_SIZE ? DEFAULT_ENDP0_SIZE : SetupReqLen;  // 本次传输长度
    3acc:	8621d783          	lhu	a5,-1950(gp) # 2000029a <SetupReqLen>
    3ad0:	01079713          	slli	a4,a5,0x10
    3ad4:	8341                	srli	a4,a4,0x10
    3ad6:	479d                	li	a5,7
    3ad8:	00e7e963          	bltu	a5,a4,3aea <OTG_FS_IRQHandler+0x136>
C:/Users/86152/Desktop/单车越野/我的/代码调试/Bicycle_Code/libraries/sdk/Peripheral/ch32v30x_usbotg_device.c:429 (discriminator 1)
    3adc:	8621d783          	lhu	a5,-1950(gp) # 2000029a <SetupReqLen>
    3ae0:	07c2                	slli	a5,a5,0x10
    3ae2:	83c1                	srli	a5,a5,0x10
    3ae4:	0ff7f793          	andi	a5,a5,255
    3ae8:	a011                	j	3aec <OTG_FS_IRQHandler+0x138>
C:/Users/86152/Desktop/单车越野/我的/代码调试/Bicycle_Code/libraries/sdk/Peripheral/ch32v30x_usbotg_device.c:429 (discriminator 2)
    3aea:	47a1                	li	a5,8
C:/Users/86152/Desktop/单车越野/我的/代码调试/Bicycle_Code/libraries/sdk/Peripheral/ch32v30x_usbotg_device.c:429 (discriminator 4)
    3aec:	f8f40fa3          	sb	a5,-97(s0)
C:/Users/86152/Desktop/单车越野/我的/代码调试/Bicycle_Code/libraries/sdk/Peripheral/ch32v30x_usbotg_device.c:430 (discriminator 4)
                                memcpy(pEP0_DataBuf,pDescr,len);
    3af0:	84c1a703          	lw	a4,-1972(gp) # 20000284 <pEP0_RAM_Addr>
    3af4:	8581a783          	lw	a5,-1960(gp) # 20000290 <pDescr>
    3af8:	f9f44683          	lbu	a3,-97(s0)
    3afc:	8636                	mv	a2,a3
    3afe:	85be                	mv	a1,a5
    3b00:	853a                	mv	a0,a4
    3b02:	306030ef          	jal	ra,6e08 <memcpy>
C:/Users/86152/Desktop/单车越野/我的/代码调试/Bicycle_Code/libraries/sdk/Peripheral/ch32v30x_usbotg_device.c:431 (discriminator 4)
                                SetupReqLen -= len;
    3b06:	8621d783          	lhu	a5,-1950(gp) # 2000029a <SetupReqLen>
    3b0a:	01079713          	slli	a4,a5,0x10
    3b0e:	8341                	srli	a4,a4,0x10
    3b10:	f9f44783          	lbu	a5,-97(s0)
    3b14:	07c2                	slli	a5,a5,0x10
    3b16:	83c1                	srli	a5,a5,0x10
    3b18:	40f707b3          	sub	a5,a4,a5
    3b1c:	01079713          	slli	a4,a5,0x10
    3b20:	8341                	srli	a4,a4,0x10
    3b22:	86e19123          	sh	a4,-1950(gp) # 2000029a <SetupReqLen>
C:/Users/86152/Desktop/单车越野/我的/代码调试/Bicycle_Code/libraries/sdk/Peripheral/ch32v30x_usbotg_device.c:432 (discriminator 4)
                                pDescr += len;
    3b26:	8581a703          	lw	a4,-1960(gp) # 20000290 <pDescr>
    3b2a:	f9f44783          	lbu	a5,-97(s0)
    3b2e:	973e                	add	a4,a4,a5
    3b30:	84e1ac23          	sw	a4,-1960(gp) # 20000290 <pDescr>
C:/Users/86152/Desktop/单车越野/我的/代码调试/Bicycle_Code/libraries/sdk/Peripheral/ch32v30x_usbotg_device.c:433 (discriminator 4)
                            break;
    3b34:	a811                	j	3b48 <OTG_FS_IRQHandler+0x194>
C:/Users/86152/Desktop/单车越野/我的/代码调试/Bicycle_Code/libraries/sdk/Peripheral/ch32v30x_usbotg_device.c:442
                                errflag = 0xFF;
    3b36:	57fd                	li	a5,-1
    3b38:	f8f40f23          	sb	a5,-98(s0)
    3b3c:	a031                	j	3b48 <OTG_FS_IRQHandler+0x194>
C:/Users/86152/Desktop/单车越野/我的/代码调试/Bicycle_Code/libraries/sdk/Peripheral/ch32v30x_usbotg_device.c:444
                    }
    3b3e:	0001                	nop
    3b40:	a021                	j	3b48 <OTG_FS_IRQHandler+0x194>
C:/Users/86152/Desktop/单车越野/我的/代码调试/Bicycle_Code/libraries/sdk/Peripheral/ch32v30x_usbotg_device.c:436
                            break;
    3b42:	0001                	nop
    3b44:	a011                	j	3b48 <OTG_FS_IRQHandler+0x194>
C:/Users/86152/Desktop/单车越野/我的/代码调试/Bicycle_Code/libraries/sdk/Peripheral/ch32v30x_usbotg_device.c:439
                            break;
    3b46:	0001                	nop
C:/Users/86152/Desktop/单车越野/我的/代码调试/Bicycle_Code/libraries/sdk/Peripheral/ch32v30x_usbotg_device.c:461
                    if( errflag != 0xFF )
    3b48:	f9e44703          	lbu	a4,-98(s0)
    3b4c:	0ff00793          	li	a5,255
    3b50:	68f70363          	beq	a4,a5,41d6 <OTG_FS_IRQHandler+0x822>
C:/Users/86152/Desktop/单车越野/我的/代码调试/Bicycle_Code/libraries/sdk/Peripheral/ch32v30x_usbotg_device.c:463
                        if( SetupReqLen > len )
    3b54:	f9f44783          	lbu	a5,-97(s0)
    3b58:	01079713          	slli	a4,a5,0x10
    3b5c:	8341                	srli	a4,a4,0x10
    3b5e:	8621d783          	lhu	a5,-1950(gp) # 2000029a <SetupReqLen>
    3b62:	07c2                	slli	a5,a5,0x10
    3b64:	83c1                	srli	a5,a5,0x10
    3b66:	00f77963          	bgeu	a4,a5,3b78 <OTG_FS_IRQHandler+0x1c4>
C:/Users/86152/Desktop/单车越野/我的/代码调试/Bicycle_Code/libraries/sdk/Peripheral/ch32v30x_usbotg_device.c:465
                            SetupReqLen = len;
    3b6a:	f9f44783          	lbu	a5,-97(s0)
    3b6e:	01079713          	slli	a4,a5,0x10
    3b72:	8341                	srli	a4,a4,0x10
    3b74:	86e19123          	sh	a4,-1950(gp) # 2000029a <SetupReqLen>
C:/Users/86152/Desktop/单车越野/我的/代码调试/Bicycle_Code/libraries/sdk/Peripheral/ch32v30x_usbotg_device.c:467
                        len = ( USBHD_Dev_SetupReqLen >= DevEP0SIZE ) ? DevEP0SIZE : USBHD_Dev_SetupReqLen;
    3b78:	85c1d783          	lhu	a5,-1956(gp) # 20000294 <USBHD_Dev_SetupReqLen>
    3b7c:	01079713          	slli	a4,a5,0x10
    3b80:	8341                	srli	a4,a4,0x10
    3b82:	479d                	li	a5,7
    3b84:	00e7e963          	bltu	a5,a4,3b96 <OTG_FS_IRQHandler+0x1e2>
C:/Users/86152/Desktop/单车越野/我的/代码调试/Bicycle_Code/libraries/sdk/Peripheral/ch32v30x_usbotg_device.c:467 (discriminator 1)
    3b88:	85c1d783          	lhu	a5,-1956(gp) # 20000294 <USBHD_Dev_SetupReqLen>
    3b8c:	07c2                	slli	a5,a5,0x10
    3b8e:	83c1                	srli	a5,a5,0x10
    3b90:	0ff7f793          	andi	a5,a5,255
    3b94:	a011                	j	3b98 <OTG_FS_IRQHandler+0x1e4>
C:/Users/86152/Desktop/单车越野/我的/代码调试/Bicycle_Code/libraries/sdk/Peripheral/ch32v30x_usbotg_device.c:467 (discriminator 2)
    3b96:	47a1                	li	a5,8
C:/Users/86152/Desktop/单车越野/我的/代码调试/Bicycle_Code/libraries/sdk/Peripheral/ch32v30x_usbotg_device.c:467 (discriminator 4)
    3b98:	f8f40fa3          	sb	a5,-97(s0)
C:/Users/86152/Desktop/单车越野/我的/代码调试/Bicycle_Code/libraries/sdk/Peripheral/ch32v30x_usbotg_device.c:468 (discriminator 4)
                        memcpy( EP0_DatabufHD, pDescr, len );
    3b9c:	8581a783          	lw	a5,-1960(gp) # 20000290 <pDescr>
    3ba0:	f9f44703          	lbu	a4,-97(s0)
    3ba4:	863a                	mv	a2,a4
    3ba6:	85be                	mv	a1,a5
    3ba8:	84418513          	addi	a0,gp,-1980 # 2000027c <EP0_DatabufHD>
    3bac:	25c030ef          	jal	ra,6e08 <memcpy>
C:/Users/86152/Desktop/单车越野/我的/代码调试/Bicycle_Code/libraries/sdk/Peripheral/ch32v30x_usbotg_device.c:469 (discriminator 4)
                        pDescr += len;
    3bb0:	8581a703          	lw	a4,-1960(gp) # 20000290 <pDescr>
    3bb4:	f9f44783          	lbu	a5,-97(s0)
    3bb8:	973e                	add	a4,a4,a5
    3bba:	84e1ac23          	sw	a4,-1960(gp) # 20000290 <pDescr>
    3bbe:	ad21                	j	41d6 <OTG_FS_IRQHandler+0x822>
C:/Users/86152/Desktop/单车越野/我的/代码调试/Bicycle_Code/libraries/sdk/Peripheral/ch32v30x_usbotg_device.c:475
                    switch( SetupReqCode )
    3bc0:	8601c783          	lbu	a5,-1952(gp) # 20000298 <SetupReqCode>
    3bc4:	0ff7f793          	andi	a5,a5,255
    3bc8:	472d                	li	a4,11
    3bca:	5ef76b63          	bltu	a4,a5,41c0 <OTG_FS_IRQHandler+0x80c>
    3bce:	00279713          	slli	a4,a5,0x2
    3bd2:	67a9                	lui	a5,0xa
    3bd4:	6f078793          	addi	a5,a5,1776 # a6f0 <MyUSBQUADescHD+0xc>
    3bd8:	97ba                	add	a5,a5,a4
    3bda:	439c                	lw	a5,0(a5)
    3bdc:	8782                	jr	a5
C:/Users/86152/Desktop/单车越野/我的/代码调试/Bicycle_Code/libraries/sdk/Peripheral/ch32v30x_usbotg_device.c:479 (discriminator 1)
                            switch( ((pSetupReqPakHD->wValue)>>8) )
    3bde:	84c1a783          	lw	a5,-1972(gp) # 20000284 <pEP0_RAM_Addr>
    3be2:	0027c703          	lbu	a4,2(a5)
    3be6:	0037c783          	lbu	a5,3(a5)
    3bea:	07a2                	slli	a5,a5,0x8
    3bec:	8fd9                	or	a5,a5,a4
    3bee:	07c2                	slli	a5,a5,0x10
    3bf0:	83c1                	srli	a5,a5,0x10
    3bf2:	83a1                	srli	a5,a5,0x8
    3bf4:	07c2                	slli	a5,a5,0x10
    3bf6:	83c1                	srli	a5,a5,0x10
    3bf8:	02200713          	li	a4,34
    3bfc:	12f76563          	bltu	a4,a5,3d26 <OTG_FS_IRQHandler+0x372>
    3c00:	00279713          	slli	a4,a5,0x2
    3c04:	67a9                	lui	a5,0xa
    3c06:	72078793          	addi	a5,a5,1824 # a720 <MyUSBQUADescHD+0x3c>
    3c0a:	97ba                	add	a5,a5,a4
    3c0c:	439c                	lw	a5,0(a5)
    3c0e:	8782                	jr	a5
C:/Users/86152/Desktop/单车越野/我的/代码调试/Bicycle_Code/libraries/sdk/Peripheral/ch32v30x_usbotg_device.c:483
                                    pDescr = MyDevDescrHD;
    3c10:	6729                	lui	a4,0xa
    3c12:	64470713          	addi	a4,a4,1604 # a644 <MyDevDescrHD>
    3c16:	84e1ac23          	sw	a4,-1960(gp) # 20000290 <pDescr>
C:/Users/86152/Desktop/单车越野/我的/代码调试/Bicycle_Code/libraries/sdk/Peripheral/ch32v30x_usbotg_device.c:484
                                    len = MyDevDescrHD[0];
    3c1a:	47c9                	li	a5,18
    3c1c:	f8f40fa3          	sb	a5,-97(s0)
C:/Users/86152/Desktop/单车越野/我的/代码调试/Bicycle_Code/libraries/sdk/Peripheral/ch32v30x_usbotg_device.c:485
                                    break;
    3c20:	a239                	j	3d2e <OTG_FS_IRQHandler+0x37a>
C:/Users/86152/Desktop/单车越野/我的/代码调试/Bicycle_Code/libraries/sdk/Peripheral/ch32v30x_usbotg_device.c:489
                                    pDescr = MyCfgDescrHD;
    3c22:	6729                	lui	a4,0xa
    3c24:	65870713          	addi	a4,a4,1624 # a658 <MyCfgDescrHD>
    3c28:	84e1ac23          	sw	a4,-1960(gp) # 20000290 <pDescr>
C:/Users/86152/Desktop/单车越野/我的/代码调试/Bicycle_Code/libraries/sdk/Peripheral/ch32v30x_usbotg_device.c:490
                                    len = MyCfgDescrHD[2];
    3c2c:	04300793          	li	a5,67
    3c30:	f8f40fa3          	sb	a5,-97(s0)
C:/Users/86152/Desktop/单车越野/我的/代码调试/Bicycle_Code/libraries/sdk/Peripheral/ch32v30x_usbotg_device.c:491
                                    break;
    3c34:	a8ed                	j	3d2e <OTG_FS_IRQHandler+0x37a>
C:/Users/86152/Desktop/单车越野/我的/代码调试/Bicycle_Code/libraries/sdk/Peripheral/ch32v30x_usbotg_device.c:495 (discriminator 2)
                                    switch( (pSetupReqPakHD->wValue)&0xff )
    3c36:	84c1a783          	lw	a5,-1972(gp) # 20000284 <pEP0_RAM_Addr>
    3c3a:	0027c703          	lbu	a4,2(a5)
    3c3e:	0037c783          	lbu	a5,3(a5)
    3c42:	07a2                	slli	a5,a5,0x8
    3c44:	8fd9                	or	a5,a5,a4
    3c46:	07c2                	slli	a5,a5,0x10
    3c48:	83c1                	srli	a5,a5,0x10
    3c4a:	0ff7f793          	andi	a5,a5,255
    3c4e:	4705                	li	a4,1
    3c50:	02e78663          	beq	a5,a4,3c7c <OTG_FS_IRQHandler+0x2c8>
    3c54:	4705                	li	a4,1
    3c56:	00f74463          	blt	a4,a5,3c5e <OTG_FS_IRQHandler+0x2aa>
    3c5a:	cb89                	beqz	a5,3c6c <OTG_FS_IRQHandler+0x2b8>
    3c5c:	a899                	j	3cb2 <OTG_FS_IRQHandler+0x2fe>
    3c5e:	4709                	li	a4,2
    3c60:	02e78763          	beq	a5,a4,3c8e <OTG_FS_IRQHandler+0x2da>
    3c64:	470d                	li	a4,3
    3c66:	02e78d63          	beq	a5,a4,3ca0 <OTG_FS_IRQHandler+0x2ec>
    3c6a:	a0a1                	j	3cb2 <OTG_FS_IRQHandler+0x2fe>
C:/Users/86152/Desktop/单车越野/我的/代码调试/Bicycle_Code/libraries/sdk/Peripheral/ch32v30x_usbotg_device.c:499
                                        pDescr = MyLangDescrHD;
    3c6c:	82818713          	addi	a4,gp,-2008 # 20000260 <MyLangDescrHD>
    3c70:	84e1ac23          	sw	a4,-1960(gp) # 20000290 <pDescr>
C:/Users/86152/Desktop/单车越野/我的/代码调试/Bicycle_Code/libraries/sdk/Peripheral/ch32v30x_usbotg_device.c:500
                                        len = MyLangDescrHD[0];
    3c74:	4791                	li	a5,4
    3c76:	f8f40fa3          	sb	a5,-97(s0)
C:/Users/86152/Desktop/单车越野/我的/代码调试/Bicycle_Code/libraries/sdk/Peripheral/ch32v30x_usbotg_device.c:501
                                            break;
    3c7a:	a081                	j	3cba <OTG_FS_IRQHandler+0x306>
C:/Users/86152/Desktop/单车越野/我的/代码调试/Bicycle_Code/libraries/sdk/Peripheral/ch32v30x_usbotg_device.c:505
                                            pDescr = MyManuInfoHD;
    3c7c:	6729                	lui	a4,0xa
    3c7e:	6b070713          	addi	a4,a4,1712 # a6b0 <MyManuInfoHD>
    3c82:	84e1ac23          	sw	a4,-1960(gp) # 20000290 <pDescr>
C:/Users/86152/Desktop/单车越野/我的/代码调试/Bicycle_Code/libraries/sdk/Peripheral/ch32v30x_usbotg_device.c:506
                                            len = MyManuInfoHD[0];
    3c86:	47b9                	li	a5,14
    3c88:	f8f40fa3          	sb	a5,-97(s0)
C:/Users/86152/Desktop/单车越野/我的/代码调试/Bicycle_Code/libraries/sdk/Peripheral/ch32v30x_usbotg_device.c:507
                                            break;
    3c8c:	a03d                	j	3cba <OTG_FS_IRQHandler+0x306>
C:/Users/86152/Desktop/单车越野/我的/代码调试/Bicycle_Code/libraries/sdk/Peripheral/ch32v30x_usbotg_device.c:511
                                            pDescr = MyProdInfoHD;
    3c8e:	6729                	lui	a4,0xa
    3c90:	6c070713          	addi	a4,a4,1728 # a6c0 <MyProdInfoHD>
    3c94:	84e1ac23          	sw	a4,-1960(gp) # 20000290 <pDescr>
C:/Users/86152/Desktop/单车越野/我的/代码调试/Bicycle_Code/libraries/sdk/Peripheral/ch32v30x_usbotg_device.c:512
                                            len = MyProdInfoHD[0];
    3c98:	47b1                	li	a5,12
    3c9a:	f8f40fa3          	sb	a5,-97(s0)
C:/Users/86152/Desktop/单车越野/我的/代码调试/Bicycle_Code/libraries/sdk/Peripheral/ch32v30x_usbotg_device.c:513
                                            break;
    3c9e:	a831                	j	3cba <OTG_FS_IRQHandler+0x306>
C:/Users/86152/Desktop/单车越野/我的/代码调试/Bicycle_Code/libraries/sdk/Peripheral/ch32v30x_usbotg_device.c:517
                                            pDescr = MySerNumInfoHD;
    3ca0:	6729                	lui	a4,0xa
    3ca2:	6cc70713          	addi	a4,a4,1740 # a6cc <MySerNumInfoHD>
    3ca6:	84e1ac23          	sw	a4,-1960(gp) # 20000290 <pDescr>
C:/Users/86152/Desktop/单车越野/我的/代码调试/Bicycle_Code/libraries/sdk/Peripheral/ch32v30x_usbotg_device.c:518
                                            len = sizeof( MySerNumInfoHD );
    3caa:	47d9                	li	a5,22
    3cac:	f8f40fa3          	sb	a5,-97(s0)
C:/Users/86152/Desktop/单车越野/我的/代码调试/Bicycle_Code/libraries/sdk/Peripheral/ch32v30x_usbotg_device.c:519
                                            break;
    3cb0:	a029                	j	3cba <OTG_FS_IRQHandler+0x306>
C:/Users/86152/Desktop/单车越野/我的/代码调试/Bicycle_Code/libraries/sdk/Peripheral/ch32v30x_usbotg_device.c:522
                                            errflag = 0xFF;
    3cb2:	57fd                	li	a5,-1
    3cb4:	f8f40f23          	sb	a5,-98(s0)
C:/Users/86152/Desktop/单车越野/我的/代码调试/Bicycle_Code/libraries/sdk/Peripheral/ch32v30x_usbotg_device.c:523
                                            break;
    3cb8:	0001                	nop
C:/Users/86152/Desktop/单车越野/我的/代码调试/Bicycle_Code/libraries/sdk/Peripheral/ch32v30x_usbotg_device.c:525
                                    break;
    3cba:	a895                	j	3d2e <OTG_FS_IRQHandler+0x37a>
C:/Users/86152/Desktop/单车越野/我的/代码调试/Bicycle_Code/libraries/sdk/Peripheral/ch32v30x_usbotg_device.c:529
                                    pDescr = MyReportDescHD;
    3cbc:	6729                	lui	a4,0xa
    3cbe:	69c70713          	addi	a4,a4,1692 # a69c <MyReportDescHD>
    3cc2:	84e1ac23          	sw	a4,-1960(gp) # 20000290 <pDescr>
C:/Users/86152/Desktop/单车越野/我的/代码调试/Bicycle_Code/libraries/sdk/Peripheral/ch32v30x_usbotg_device.c:530
                                    len = sizeof( MyReportDescHD );
    3cc6:	47d1                	li	a5,20
    3cc8:	f8f40fa3          	sb	a5,-97(s0)
C:/Users/86152/Desktop/单车越野/我的/代码调试/Bicycle_Code/libraries/sdk/Peripheral/ch32v30x_usbotg_device.c:531
                                    break;
    3ccc:	a08d                	j	3d2e <OTG_FS_IRQHandler+0x37a>
C:/Users/86152/Desktop/单车越野/我的/代码调试/Bicycle_Code/libraries/sdk/Peripheral/ch32v30x_usbotg_device.c:535
                                    pDescr = ( PUINT8 )&MyUSBQUADescHD[ 0 ];
    3cce:	6729                	lui	a4,0xa
    3cd0:	6e470713          	addi	a4,a4,1764 # a6e4 <MyUSBQUADescHD>
    3cd4:	84e1ac23          	sw	a4,-1960(gp) # 20000290 <pDescr>
C:/Users/86152/Desktop/单车越野/我的/代码调试/Bicycle_Code/libraries/sdk/Peripheral/ch32v30x_usbotg_device.c:536
                                    len = sizeof( MyUSBQUADescHD );
    3cd8:	47a9                	li	a5,10
    3cda:	f8f40fa3          	sb	a5,-97(s0)
C:/Users/86152/Desktop/单车越野/我的/代码调试/Bicycle_Code/libraries/sdk/Peripheral/ch32v30x_usbotg_device.c:537
                                    break;
    3cde:	a881                	j	3d2e <OTG_FS_IRQHandler+0x37a>
C:/Users/86152/Desktop/单车越野/我的/代码调试/Bicycle_Code/libraries/sdk/Peripheral/ch32v30x_usbotg_device.c:542
                                    if( USBHD_Dev_Speed == 0x00 )
    3ce0:	8181c783          	lbu	a5,-2024(gp) # 20000250 <USBHD_Dev_Speed>
    3ce4:	0ff7f793          	andi	a5,a5,255
    3ce8:	e79d                	bnez	a5,3d16 <OTG_FS_IRQHandler+0x362>
C:/Users/86152/Desktop/单车越野/我的/代码调试/Bicycle_Code/libraries/sdk/Peripheral/ch32v30x_usbotg_device.c:545
                                      memcpy( &TAB_USB_FS_OSC_DESC[ 2 ], &MyCfgDescrHD[ 2 ], sizeof( MyCfgDescrHD ) - 2 );
    3cea:	04100613          	li	a2,65
    3cee:	67a9                	lui	a5,0xa
    3cf0:	65a78593          	addi	a1,a5,1626 # a65a <MyCfgDescrHD+0x2>
    3cf4:	200007b7          	lui	a5,0x20000
    3cf8:	02678513          	addi	a0,a5,38 # 20000026 <TAB_USB_FS_OSC_DESC+0x2>
    3cfc:	10c030ef          	jal	ra,6e08 <memcpy>
C:/Users/86152/Desktop/单车越野/我的/代码调试/Bicycle_Code/libraries/sdk/Peripheral/ch32v30x_usbotg_device.c:546
                                      pDescr = ( PUINT8 )&TAB_USB_FS_OSC_DESC[ 0 ];
    3d00:	20000737          	lui	a4,0x20000
    3d04:	02470713          	addi	a4,a4,36 # 20000024 <TAB_USB_FS_OSC_DESC>
    3d08:	84e1ac23          	sw	a4,-1960(gp) # 20000290 <pDescr>
C:/Users/86152/Desktop/单车越野/我的/代码调试/Bicycle_Code/libraries/sdk/Peripheral/ch32v30x_usbotg_device.c:547
                                      len = sizeof( TAB_USB_FS_OSC_DESC );
    3d0c:	04300793          	li	a5,67
    3d10:	f8f40fa3          	sb	a5,-97(s0)
C:/Users/86152/Desktop/单车越野/我的/代码调试/Bicycle_Code/libraries/sdk/Peripheral/ch32v30x_usbotg_device.c:553
                                    break;
    3d14:	a829                	j	3d2e <OTG_FS_IRQHandler+0x37a>
C:/Users/86152/Desktop/单车越野/我的/代码调试/Bicycle_Code/libraries/sdk/Peripheral/ch32v30x_usbotg_device.c:551
                                      errflag = 0xFF;
    3d16:	57fd                	li	a5,-1
    3d18:	f8f40f23          	sb	a5,-98(s0)
C:/Users/86152/Desktop/单车越野/我的/代码调试/Bicycle_Code/libraries/sdk/Peripheral/ch32v30x_usbotg_device.c:553
                                    break;
    3d1c:	a809                	j	3d2e <OTG_FS_IRQHandler+0x37a>
C:/Users/86152/Desktop/单车越野/我的/代码调试/Bicycle_Code/libraries/sdk/Peripheral/ch32v30x_usbotg_device.c:558
                                    errflag = 0xFF;
    3d1e:	57fd                	li	a5,-1
    3d20:	f8f40f23          	sb	a5,-98(s0)
C:/Users/86152/Desktop/单车越野/我的/代码调试/Bicycle_Code/libraries/sdk/Peripheral/ch32v30x_usbotg_device.c:559
                                    break;
    3d24:	a029                	j	3d2e <OTG_FS_IRQHandler+0x37a>
C:/Users/86152/Desktop/单车越野/我的/代码调试/Bicycle_Code/libraries/sdk/Peripheral/ch32v30x_usbotg_device.c:562
                                    errflag = 0xff;
    3d26:	57fd                	li	a5,-1
    3d28:	f8f40f23          	sb	a5,-98(s0)
C:/Users/86152/Desktop/单车越野/我的/代码调试/Bicycle_Code/libraries/sdk/Peripheral/ch32v30x_usbotg_device.c:563
                                    break;
    3d2c:	0001                	nop
C:/Users/86152/Desktop/单车越野/我的/代码调试/Bicycle_Code/libraries/sdk/Peripheral/ch32v30x_usbotg_device.c:567
                            if( SetupReqLen>len )   SetupReqLen = len;
    3d2e:	f9f44783          	lbu	a5,-97(s0)
    3d32:	01079713          	slli	a4,a5,0x10
    3d36:	8341                	srli	a4,a4,0x10
    3d38:	8621d783          	lhu	a5,-1950(gp) # 2000029a <SetupReqLen>
    3d3c:	07c2                	slli	a5,a5,0x10
    3d3e:	83c1                	srli	a5,a5,0x10
    3d40:	00f77963          	bgeu	a4,a5,3d52 <OTG_FS_IRQHandler+0x39e>
C:/Users/86152/Desktop/单车越野/我的/代码调试/Bicycle_Code/libraries/sdk/Peripheral/ch32v30x_usbotg_device.c:567 (discriminator 1)
    3d44:	f9f44783          	lbu	a5,-97(s0)
    3d48:	01079713          	slli	a4,a5,0x10
    3d4c:	8341                	srli	a4,a4,0x10
    3d4e:	86e19123          	sh	a4,-1950(gp) # 2000029a <SetupReqLen>
C:/Users/86152/Desktop/单车越野/我的/代码调试/Bicycle_Code/libraries/sdk/Peripheral/ch32v30x_usbotg_device.c:568
                            len = (SetupReqLen >= DevEP0SIZE) ? DevEP0SIZE : SetupReqLen;
    3d52:	8621d783          	lhu	a5,-1950(gp) # 2000029a <SetupReqLen>
    3d56:	01079713          	slli	a4,a5,0x10
    3d5a:	8341                	srli	a4,a4,0x10
    3d5c:	479d                	li	a5,7
    3d5e:	00e7e963          	bltu	a5,a4,3d70 <OTG_FS_IRQHandler+0x3bc>
C:/Users/86152/Desktop/单车越野/我的/代码调试/Bicycle_Code/libraries/sdk/Peripheral/ch32v30x_usbotg_device.c:568 (discriminator 1)
    3d62:	8621d783          	lhu	a5,-1950(gp) # 2000029a <SetupReqLen>
    3d66:	07c2                	slli	a5,a5,0x10
    3d68:	83c1                	srli	a5,a5,0x10
    3d6a:	0ff7f793          	andi	a5,a5,255
    3d6e:	a011                	j	3d72 <OTG_FS_IRQHandler+0x3be>
C:/Users/86152/Desktop/单车越野/我的/代码调试/Bicycle_Code/libraries/sdk/Peripheral/ch32v30x_usbotg_device.c:568 (discriminator 2)
    3d70:	47a1                	li	a5,8
C:/Users/86152/Desktop/单车越野/我的/代码调试/Bicycle_Code/libraries/sdk/Peripheral/ch32v30x_usbotg_device.c:568 (discriminator 4)
    3d72:	f8f40fa3          	sb	a5,-97(s0)
C:/Users/86152/Desktop/单车越野/我的/代码调试/Bicycle_Code/libraries/sdk/Peripheral/ch32v30x_usbotg_device.c:569 (discriminator 4)
                            memcpy( pEP0_DataBuf, pDescr, len );
    3d76:	84c1a703          	lw	a4,-1972(gp) # 20000284 <pEP0_RAM_Addr>
    3d7a:	8581a783          	lw	a5,-1960(gp) # 20000290 <pDescr>
    3d7e:	f9f44683          	lbu	a3,-97(s0)
    3d82:	8636                	mv	a2,a3
    3d84:	85be                	mv	a1,a5
    3d86:	853a                	mv	a0,a4
    3d88:	080030ef          	jal	ra,6e08 <memcpy>
C:/Users/86152/Desktop/单车越野/我的/代码调试/Bicycle_Code/libraries/sdk/Peripheral/ch32v30x_usbotg_device.c:570 (discriminator 4)
                            pDescr += len;
    3d8c:	8581a703          	lw	a4,-1960(gp) # 20000290 <pDescr>
    3d90:	f9f44783          	lbu	a5,-97(s0)
    3d94:	973e                	add	a4,a4,a5
    3d96:	84e1ac23          	sw	a4,-1960(gp) # 20000290 <pDescr>
C:/Users/86152/Desktop/单车越野/我的/代码调试/Bicycle_Code/libraries/sdk/Peripheral/ch32v30x_usbotg_device.c:572 (discriminator 4)
                            break;
    3d9a:	a935                	j	41d6 <OTG_FS_IRQHandler+0x822>
C:/Users/86152/Desktop/单车越野/我的/代码调试/Bicycle_Code/libraries/sdk/Peripheral/ch32v30x_usbotg_device.c:576
                            SetupReqLen = (pSetupReqPakHD->wValue)&0xff;
    3d9c:	84c1a783          	lw	a5,-1972(gp) # 20000284 <pEP0_RAM_Addr>
    3da0:	0027c703          	lbu	a4,2(a5)
    3da4:	0037c783          	lbu	a5,3(a5)
    3da8:	07a2                	slli	a5,a5,0x8
    3daa:	8fd9                	or	a5,a5,a4
    3dac:	07c2                	slli	a5,a5,0x10
    3dae:	83c1                	srli	a5,a5,0x10
    3db0:	0ff7f793          	andi	a5,a5,255
    3db4:	01079713          	slli	a4,a5,0x10
    3db8:	8341                	srli	a4,a4,0x10
    3dba:	86e19123          	sh	a4,-1950(gp) # 2000029a <SetupReqLen>
C:/Users/86152/Desktop/单车越野/我的/代码调试/Bicycle_Code/libraries/sdk/Peripheral/ch32v30x_usbotg_device.c:577
                            break;
    3dbe:	a921                	j	41d6 <OTG_FS_IRQHandler+0x822>
C:/Users/86152/Desktop/单车越野/我的/代码调试/Bicycle_Code/libraries/sdk/Peripheral/ch32v30x_usbotg_device.c:581
                            pEP0_DataBuf[0] = DevConfig;
    3dc0:	84c1a783          	lw	a5,-1972(gp) # 20000284 <pEP0_RAM_Addr>
    3dc4:	85f1c703          	lbu	a4,-1953(gp) # 20000297 <DevConfig>
    3dc8:	0ff77713          	andi	a4,a4,255
    3dcc:	00e78023          	sb	a4,0(a5)
C:/Users/86152/Desktop/单车越野/我的/代码调试/Bicycle_Code/libraries/sdk/Peripheral/ch32v30x_usbotg_device.c:582
                            if ( SetupReqLen > 1 ) SetupReqLen = 1;
    3dd0:	8621d783          	lhu	a5,-1950(gp) # 2000029a <SetupReqLen>
    3dd4:	01079713          	slli	a4,a5,0x10
    3dd8:	8341                	srli	a4,a4,0x10
    3dda:	4785                	li	a5,1
    3ddc:	3ee7f663          	bgeu	a5,a4,41c8 <OTG_FS_IRQHandler+0x814>
C:/Users/86152/Desktop/单车越野/我的/代码调试/Bicycle_Code/libraries/sdk/Peripheral/ch32v30x_usbotg_device.c:582 (discriminator 1)
    3de0:	4705                	li	a4,1
    3de2:	86e19123          	sh	a4,-1950(gp) # 2000029a <SetupReqLen>
C:/Users/86152/Desktop/单车越野/我的/代码调试/Bicycle_Code/libraries/sdk/Peripheral/ch32v30x_usbotg_device.c:583 (discriminator 1)
                            break;
    3de6:	a6cd                	j	41c8 <OTG_FS_IRQHandler+0x814>
C:/Users/86152/Desktop/单车越野/我的/代码调试/Bicycle_Code/libraries/sdk/Peripheral/ch32v30x_usbotg_device.c:587
                            DevConfig = (pSetupReqPakHD->wValue)&0xff;
    3de8:	84c1a783          	lw	a5,-1972(gp) # 20000284 <pEP0_RAM_Addr>
    3dec:	0027c703          	lbu	a4,2(a5)
    3df0:	0037c783          	lbu	a5,3(a5)
    3df4:	07a2                	slli	a5,a5,0x8
    3df6:	8fd9                	or	a5,a5,a4
    3df8:	07c2                	slli	a5,a5,0x10
    3dfa:	83c1                	srli	a5,a5,0x10
    3dfc:	0ff7f713          	andi	a4,a5,255
    3e00:	84e18fa3          	sb	a4,-1953(gp) # 20000297 <DevConfig>
C:/Users/86152/Desktop/单车越野/我的/代码调试/Bicycle_Code/libraries/sdk/Peripheral/ch32v30x_usbotg_device.c:588
                            break;
    3e04:	aec9                	j	41d6 <OTG_FS_IRQHandler+0x822>
C:/Users/86152/Desktop/单车越野/我的/代码调试/Bicycle_Code/libraries/sdk/Peripheral/ch32v30x_usbotg_device.c:592
                            if ( ( pSetupReqPakHD->bRequestType & USB_REQ_RECIP_MASK ) == USB_REQ_RECIP_ENDP )
    3e06:	84c1a783          	lw	a5,-1972(gp) # 20000284 <pEP0_RAM_Addr>
    3e0a:	0007c783          	lbu	a5,0(a5)
    3e0e:	01f7f713          	andi	a4,a5,31
    3e12:	4789                	li	a5,2
    3e14:	0cf71f63          	bne	a4,a5,3ef2 <OTG_FS_IRQHandler+0x53e>
C:/Users/86152/Desktop/单车越野/我的/代码调试/Bicycle_Code/libraries/sdk/Peripheral/ch32v30x_usbotg_device.c:595
                                switch( (pSetupReqPakHD->wIndex)&0xff )
    3e18:	84c1a783          	lw	a5,-1972(gp) # 20000284 <pEP0_RAM_Addr>
    3e1c:	0047c703          	lbu	a4,4(a5)
    3e20:	0057c783          	lbu	a5,5(a5)
    3e24:	07a2                	slli	a5,a5,0x8
    3e26:	8fd9                	or	a5,a5,a4
    3e28:	07c2                	slli	a5,a5,0x10
    3e2a:	83c1                	srli	a5,a5,0x10
    3e2c:	0ff7f793          	andi	a5,a5,255
    3e30:	4709                	li	a4,2
    3e32:	04e78863          	beq	a5,a4,3e82 <OTG_FS_IRQHandler+0x4ce>
    3e36:	4709                	li	a4,2
    3e38:	00f74663          	blt	a4,a5,3e44 <OTG_FS_IRQHandler+0x490>
    3e3c:	4705                	li	a4,1
    3e3e:	08e78763          	beq	a5,a4,3ecc <OTG_FS_IRQHandler+0x518>
    3e42:	a05d                	j	3ee8 <OTG_FS_IRQHandler+0x534>
    3e44:	08100713          	li	a4,129
    3e48:	04e78b63          	beq	a5,a4,3e9e <OTG_FS_IRQHandler+0x4ea>
    3e4c:	08200713          	li	a4,130
    3e50:	08e79c63          	bne	a5,a4,3ee8 <OTG_FS_IRQHandler+0x534>
C:/Users/86152/Desktop/单车越野/我的/代码调试/Bicycle_Code/libraries/sdk/Peripheral/ch32v30x_usbotg_device.c:598
                                    USBOTG_FS->UEP2_TX_CTRL = (USBOTG_FS->UEP2_TX_CTRL & ~( USBHD_UEP_T_TOG|USBHD_UEP_T_RES_MASK )) | USBHD_UEP_T_RES_NAK;
    3e54:	500007b7          	lui	a5,0x50000
    3e58:	03a7c783          	lbu	a5,58(a5) # 5000003a <_eusrstack+0x2fff003a>
    3e5c:	0ff7f793          	andi	a5,a5,255
    3e60:	07e2                	slli	a5,a5,0x18
    3e62:	87e1                	srai	a5,a5,0x18
    3e64:	9be1                	andi	a5,a5,-8
    3e66:	07e2                	slli	a5,a5,0x18
    3e68:	87e1                	srai	a5,a5,0x18
    3e6a:	0027e793          	ori	a5,a5,2
    3e6e:	01879713          	slli	a4,a5,0x18
    3e72:	8761                	srai	a4,a4,0x18
    3e74:	500007b7          	lui	a5,0x50000
    3e78:	0ff77713          	andi	a4,a4,255
    3e7c:	02e78d23          	sb	a4,58(a5) # 5000003a <_eusrstack+0x2fff003a>
C:/Users/86152/Desktop/单车越野/我的/代码调试/Bicycle_Code/libraries/sdk/Peripheral/ch32v30x_usbotg_device.c:599
                                    break;
    3e80:	a8ad                	j	3efa <OTG_FS_IRQHandler+0x546>
C:/Users/86152/Desktop/单车越野/我的/代码调试/Bicycle_Code/libraries/sdk/Peripheral/ch32v30x_usbotg_device.c:602
                                    USBOTG_FS->UEP2_RX_CTRL = (USBOTG_FS->UEP2_RX_CTRL & ~( USBHD_UEP_R_TOG|USBHD_UEP_R_RES_MASK )) | USBHD_UEP_R_RES_ACK;
    3e82:	500007b7          	lui	a5,0x50000
    3e86:	03b7c783          	lbu	a5,59(a5) # 5000003b <_eusrstack+0x2fff003b>
    3e8a:	0ff7f713          	andi	a4,a5,255
    3e8e:	500007b7          	lui	a5,0x50000
    3e92:	9b61                	andi	a4,a4,-8
    3e94:	0ff77713          	andi	a4,a4,255
    3e98:	02e78da3          	sb	a4,59(a5) # 5000003b <_eusrstack+0x2fff003b>
C:/Users/86152/Desktop/单车越野/我的/代码调试/Bicycle_Code/libraries/sdk/Peripheral/ch32v30x_usbotg_device.c:603
                                    break;
    3e9c:	a8b9                	j	3efa <OTG_FS_IRQHandler+0x546>
C:/Users/86152/Desktop/单车越野/我的/代码调试/Bicycle_Code/libraries/sdk/Peripheral/ch32v30x_usbotg_device.c:606
                                    USBOTG_FS->UEP1_TX_CTRL = (USBOTG_FS->UEP1_TX_CTRL & ~( USBHD_UEP_T_TOG|USBHD_UEP_T_RES_MASK )) | USBHD_UEP_T_RES_NAK;
    3e9e:	500007b7          	lui	a5,0x50000
    3ea2:	0367c783          	lbu	a5,54(a5) # 50000036 <_eusrstack+0x2fff0036>
    3ea6:	0ff7f793          	andi	a5,a5,255
    3eaa:	07e2                	slli	a5,a5,0x18
    3eac:	87e1                	srai	a5,a5,0x18
    3eae:	9be1                	andi	a5,a5,-8
    3eb0:	07e2                	slli	a5,a5,0x18
    3eb2:	87e1                	srai	a5,a5,0x18
    3eb4:	0027e793          	ori	a5,a5,2
    3eb8:	01879713          	slli	a4,a5,0x18
    3ebc:	8761                	srai	a4,a4,0x18
    3ebe:	500007b7          	lui	a5,0x50000
    3ec2:	0ff77713          	andi	a4,a4,255
    3ec6:	02e78b23          	sb	a4,54(a5) # 50000036 <_eusrstack+0x2fff0036>
C:/Users/86152/Desktop/单车越野/我的/代码调试/Bicycle_Code/libraries/sdk/Peripheral/ch32v30x_usbotg_device.c:607
                                    break;
    3eca:	a805                	j	3efa <OTG_FS_IRQHandler+0x546>
C:/Users/86152/Desktop/单车越野/我的/代码调试/Bicycle_Code/libraries/sdk/Peripheral/ch32v30x_usbotg_device.c:610
                                    USBOTG_FS->UEP1_RX_CTRL = (USBOTG_FS->UEP1_RX_CTRL & ~( USBHD_UEP_R_TOG|USBHD_UEP_R_RES_MASK )) | USBHD_UEP_R_RES_ACK;
    3ecc:	500007b7          	lui	a5,0x50000
    3ed0:	0377c783          	lbu	a5,55(a5) # 50000037 <_eusrstack+0x2fff0037>
    3ed4:	0ff7f713          	andi	a4,a5,255
    3ed8:	500007b7          	lui	a5,0x50000
    3edc:	9b61                	andi	a4,a4,-8
    3ede:	0ff77713          	andi	a4,a4,255
    3ee2:	02e78ba3          	sb	a4,55(a5) # 50000037 <_eusrstack+0x2fff0037>
C:/Users/86152/Desktop/单车越野/我的/代码调试/Bicycle_Code/libraries/sdk/Peripheral/ch32v30x_usbotg_device.c:611
                                    break;
    3ee6:	a811                	j	3efa <OTG_FS_IRQHandler+0x546>
C:/Users/86152/Desktop/单车越野/我的/代码调试/Bicycle_Code/libraries/sdk/Peripheral/ch32v30x_usbotg_device.c:614
                                    errflag = 0xFF;
    3ee8:	57fd                	li	a5,-1
    3eea:	f8f40f23          	sb	a5,-98(s0)
C:/Users/86152/Desktop/单车越野/我的/代码调试/Bicycle_Code/libraries/sdk/Peripheral/ch32v30x_usbotg_device.c:615
                                    break;
    3eee:	0001                	nop
    3ef0:	a029                	j	3efa <OTG_FS_IRQHandler+0x546>
C:/Users/86152/Desktop/单车越野/我的/代码调试/Bicycle_Code/libraries/sdk/Peripheral/ch32v30x_usbotg_device.c:619
                            else    errflag = 0xFF;
    3ef2:	57fd                	li	a5,-1
    3ef4:	f8f40f23          	sb	a5,-98(s0)
C:/Users/86152/Desktop/单车越野/我的/代码调试/Bicycle_Code/libraries/sdk/Peripheral/ch32v30x_usbotg_device.c:620
                            break;
    3ef8:	acf9                	j	41d6 <OTG_FS_IRQHandler+0x822>
    3efa:	acf1                	j	41d6 <OTG_FS_IRQHandler+0x822>
C:/Users/86152/Desktop/单车越野/我的/代码调试/Bicycle_Code/libraries/sdk/Peripheral/ch32v30x_usbotg_device.c:624
                            if( ( pMySetupReqPakHD->bRequestType & 0x1F ) == 0x00 )
    3efc:	84418793          	addi	a5,gp,-1980 # 2000027c <EP0_DatabufHD>
    3f00:	0007c783          	lbu	a5,0(a5)
    3f04:	8bfd                	andi	a5,a5,31
    3f06:	e3a1                	bnez	a5,3f46 <OTG_FS_IRQHandler+0x592>
C:/Users/86152/Desktop/单车越野/我的/代码调试/Bicycle_Code/libraries/sdk/Peripheral/ch32v30x_usbotg_device.c:627
                                if( pMySetupReqPakHD->wValue == 0x01 )
    3f08:	84418793          	addi	a5,gp,-1980 # 2000027c <EP0_DatabufHD>
    3f0c:	0027c703          	lbu	a4,2(a5)
    3f10:	0037c783          	lbu	a5,3(a5)
    3f14:	07a2                	slli	a5,a5,0x8
    3f16:	8fd9                	or	a5,a5,a4
    3f18:	01079713          	slli	a4,a5,0x10
    3f1c:	8341                	srli	a4,a4,0x10
    3f1e:	4785                	li	a5,1
    3f20:	00f71f63          	bne	a4,a5,3f3e <OTG_FS_IRQHandler+0x58a>
C:/Users/86152/Desktop/单车越野/我的/代码调试/Bicycle_Code/libraries/sdk/Peripheral/ch32v30x_usbotg_device.c:629
                                    if( MyCfgDescrHD[ 7 ] & 0x20 )
    3f24:	0a000793          	li	a5,160
    3f28:	0207f793          	andi	a5,a5,32
    3f2c:	c789                	beqz	a5,3f36 <OTG_FS_IRQHandler+0x582>
C:/Users/86152/Desktop/单车越野/我的/代码调试/Bicycle_Code/libraries/sdk/Peripheral/ch32v30x_usbotg_device.c:632
                                        USBHD_Dev_SleepStatus = 0x01;
    3f2e:	4705                	li	a4,1
    3f30:	84e18f23          	sb	a4,-1954(gp) # 20000296 <USBHD_Dev_SleepStatus>
C:/Users/86152/Desktop/单车越野/我的/代码调试/Bicycle_Code/libraries/sdk/Peripheral/ch32v30x_usbotg_device.c:690
                            break;
    3f34:	a44d                	j	41d6 <OTG_FS_IRQHandler+0x822>
C:/Users/86152/Desktop/单车越野/我的/代码调试/Bicycle_Code/libraries/sdk/Peripheral/ch32v30x_usbotg_device.c:636
                                        errflag = 0xFF;
    3f36:	57fd                	li	a5,-1
    3f38:	f8f40f23          	sb	a5,-98(s0)
C:/Users/86152/Desktop/单车越野/我的/代码调试/Bicycle_Code/libraries/sdk/Peripheral/ch32v30x_usbotg_device.c:690
                            break;
    3f3c:	ac69                	j	41d6 <OTG_FS_IRQHandler+0x822>
C:/Users/86152/Desktop/单车越野/我的/代码调试/Bicycle_Code/libraries/sdk/Peripheral/ch32v30x_usbotg_device.c:641
                                    errflag = 0xFF;
    3f3e:	57fd                	li	a5,-1
    3f40:	f8f40f23          	sb	a5,-98(s0)
C:/Users/86152/Desktop/单车越野/我的/代码调试/Bicycle_Code/libraries/sdk/Peripheral/ch32v30x_usbotg_device.c:690
                            break;
    3f44:	ac49                	j	41d6 <OTG_FS_IRQHandler+0x822>
C:/Users/86152/Desktop/单车越野/我的/代码调试/Bicycle_Code/libraries/sdk/Peripheral/ch32v30x_usbotg_device.c:644
                            else if( ( pMySetupReqPakHD->bRequestType & 0x1F ) == 0x02 )
    3f46:	84418793          	addi	a5,gp,-1980 # 2000027c <EP0_DatabufHD>
    3f4a:	0007c783          	lbu	a5,0(a5)
    3f4e:	01f7f713          	andi	a4,a5,31
    3f52:	4789                	li	a5,2
    3f54:	10f71c63          	bne	a4,a5,406c <OTG_FS_IRQHandler+0x6b8>
C:/Users/86152/Desktop/单车越野/我的/代码调试/Bicycle_Code/libraries/sdk/Peripheral/ch32v30x_usbotg_device.c:647
                                if( pMySetupReqPakHD->wValue == 0x00 )
    3f58:	84418793          	addi	a5,gp,-1980 # 2000027c <EP0_DatabufHD>
    3f5c:	0027c703          	lbu	a4,2(a5)
    3f60:	0037c783          	lbu	a5,3(a5)
    3f64:	07a2                	slli	a5,a5,0x8
    3f66:	8fd9                	or	a5,a5,a4
    3f68:	07c2                	slli	a5,a5,0x10
    3f6a:	83c1                	srli	a5,a5,0x10
    3f6c:	efe5                	bnez	a5,4064 <OTG_FS_IRQHandler+0x6b0>
C:/Users/86152/Desktop/单车越野/我的/代码调试/Bicycle_Code/libraries/sdk/Peripheral/ch32v30x_usbotg_device.c:650
                                    switch( ( pMySetupReqPakHD->wIndex ) & 0xff )
    3f6e:	84418793          	addi	a5,gp,-1980 # 2000027c <EP0_DatabufHD>
    3f72:	0047c703          	lbu	a4,4(a5)
    3f76:	0057c783          	lbu	a5,5(a5)
    3f7a:	07a2                	slli	a5,a5,0x8
    3f7c:	8fd9                	or	a5,a5,a4
    3f7e:	07c2                	slli	a5,a5,0x10
    3f80:	83c1                	srli	a5,a5,0x10
    3f82:	0ff7f793          	andi	a5,a5,255
    3f86:	4709                	li	a4,2
    3f88:	04e78763          	beq	a5,a4,3fd6 <OTG_FS_IRQHandler+0x622>
    3f8c:	4709                	li	a4,2
    3f8e:	00f74663          	blt	a4,a5,3f9a <OTG_FS_IRQHandler+0x5e6>
    3f92:	4705                	li	a4,1
    3f94:	08e78d63          	beq	a5,a4,402e <OTG_FS_IRQHandler+0x67a>
    3f98:	a0c9                	j	405a <OTG_FS_IRQHandler+0x6a6>
    3f9a:	08100713          	li	a4,129
    3f9e:	06e78263          	beq	a5,a4,4002 <OTG_FS_IRQHandler+0x64e>
    3fa2:	08200713          	li	a4,130
    3fa6:	0ae79a63          	bne	a5,a4,405a <OTG_FS_IRQHandler+0x6a6>
C:/Users/86152/Desktop/单车越野/我的/代码调试/Bicycle_Code/libraries/sdk/Peripheral/ch32v30x_usbotg_device.c:654
                                            USBOTG_FS->UEP2_TX_CTRL = ( USBOTG_FS->UEP2_TX_CTRL &= ~USBHD_UEP_T_RES_MASK ) | USBHD_UEP_T_RES_STALL;
    3faa:	500007b7          	lui	a5,0x50000
    3fae:	03a7c783          	lbu	a5,58(a5) # 5000003a <_eusrstack+0x2fff003a>
    3fb2:	0ff7f793          	andi	a5,a5,255
    3fb6:	50000737          	lui	a4,0x50000
    3fba:	9bf1                	andi	a5,a5,-4
    3fbc:	0ff7f793          	andi	a5,a5,255
    3fc0:	02f70d23          	sb	a5,58(a4) # 5000003a <_eusrstack+0x2fff003a>
    3fc4:	50000737          	lui	a4,0x50000
    3fc8:	0037e793          	ori	a5,a5,3
    3fcc:	0ff7f793          	andi	a5,a5,255
    3fd0:	02f70d23          	sb	a5,58(a4) # 5000003a <_eusrstack+0x2fff003a>
C:/Users/86152/Desktop/单车越野/我的/代码调试/Bicycle_Code/libraries/sdk/Peripheral/ch32v30x_usbotg_device.c:656
                                            break;
    3fd4:	a045                	j	4074 <OTG_FS_IRQHandler+0x6c0>
C:/Users/86152/Desktop/单车越野/我的/代码调试/Bicycle_Code/libraries/sdk/Peripheral/ch32v30x_usbotg_device.c:660
                                            USBOTG_FS->UEP2_RX_CTRL = ( USBOTG_FS->UEP2_RX_CTRL &= ~USBHD_UEP_R_RES_MASK ) | USBHD_UEP_R_RES_STALL;
    3fd6:	500007b7          	lui	a5,0x50000
    3fda:	03b7c783          	lbu	a5,59(a5) # 5000003b <_eusrstack+0x2fff003b>
    3fde:	0ff7f793          	andi	a5,a5,255
    3fe2:	50000737          	lui	a4,0x50000
    3fe6:	9bf1                	andi	a5,a5,-4
    3fe8:	0ff7f793          	andi	a5,a5,255
    3fec:	02f70da3          	sb	a5,59(a4) # 5000003b <_eusrstack+0x2fff003b>
    3ff0:	50000737          	lui	a4,0x50000
    3ff4:	0037e793          	ori	a5,a5,3
    3ff8:	0ff7f793          	andi	a5,a5,255
    3ffc:	02f70da3          	sb	a5,59(a4) # 5000003b <_eusrstack+0x2fff003b>
C:/Users/86152/Desktop/单车越野/我的/代码调试/Bicycle_Code/libraries/sdk/Peripheral/ch32v30x_usbotg_device.c:662
                                            break;
    4000:	a895                	j	4074 <OTG_FS_IRQHandler+0x6c0>
C:/Users/86152/Desktop/单车越野/我的/代码调试/Bicycle_Code/libraries/sdk/Peripheral/ch32v30x_usbotg_device.c:666
                                            USBOTG_FS->UEP1_TX_CTRL = ( USBOTG_FS->UEP1_TX_CTRL &= ~USBHD_UEP_T_RES_MASK ) | USBHD_UEP_T_RES_STALL;
    4002:	500007b7          	lui	a5,0x50000
    4006:	0367c783          	lbu	a5,54(a5) # 50000036 <_eusrstack+0x2fff0036>
    400a:	0ff7f793          	andi	a5,a5,255
    400e:	50000737          	lui	a4,0x50000
    4012:	9bf1                	andi	a5,a5,-4
    4014:	0ff7f793          	andi	a5,a5,255
    4018:	02f70b23          	sb	a5,54(a4) # 50000036 <_eusrstack+0x2fff0036>
    401c:	50000737          	lui	a4,0x50000
    4020:	0037e793          	ori	a5,a5,3
    4024:	0ff7f793          	andi	a5,a5,255
    4028:	02f70b23          	sb	a5,54(a4) # 50000036 <_eusrstack+0x2fff0036>
C:/Users/86152/Desktop/单车越野/我的/代码调试/Bicycle_Code/libraries/sdk/Peripheral/ch32v30x_usbotg_device.c:668
                                            break;
    402c:	a0a1                	j	4074 <OTG_FS_IRQHandler+0x6c0>
C:/Users/86152/Desktop/单车越野/我的/代码调试/Bicycle_Code/libraries/sdk/Peripheral/ch32v30x_usbotg_device.c:672
                                            USBOTG_FS->UEP1_RX_CTRL = ( USBOTG_FS->UEP1_RX_CTRL &= ~USBHD_UEP_R_RES_MASK ) | USBHD_UEP_R_RES_STALL;
    402e:	500007b7          	lui	a5,0x50000
    4032:	0377c783          	lbu	a5,55(a5) # 50000037 <_eusrstack+0x2fff0037>
    4036:	0ff7f793          	andi	a5,a5,255
    403a:	50000737          	lui	a4,0x50000
    403e:	9bf1                	andi	a5,a5,-4
    4040:	0ff7f793          	andi	a5,a5,255
    4044:	02f70ba3          	sb	a5,55(a4) # 50000037 <_eusrstack+0x2fff0037>
    4048:	50000737          	lui	a4,0x50000
    404c:	0037e793          	ori	a5,a5,3
    4050:	0ff7f793          	andi	a5,a5,255
    4054:	02f70ba3          	sb	a5,55(a4) # 50000037 <_eusrstack+0x2fff0037>
C:/Users/86152/Desktop/单车越野/我的/代码调试/Bicycle_Code/libraries/sdk/Peripheral/ch32v30x_usbotg_device.c:674
                                            break;
    4058:	a831                	j	4074 <OTG_FS_IRQHandler+0x6c0>
C:/Users/86152/Desktop/单车越野/我的/代码调试/Bicycle_Code/libraries/sdk/Peripheral/ch32v30x_usbotg_device.c:677
                                            errflag = 0xFF;
    405a:	57fd                	li	a5,-1
    405c:	f8f40f23          	sb	a5,-98(s0)
C:/Users/86152/Desktop/单车越野/我的/代码调试/Bicycle_Code/libraries/sdk/Peripheral/ch32v30x_usbotg_device.c:678
                                            break;
    4060:	0001                	nop
    4062:	a809                	j	4074 <OTG_FS_IRQHandler+0x6c0>
C:/Users/86152/Desktop/单车越野/我的/代码调试/Bicycle_Code/libraries/sdk/Peripheral/ch32v30x_usbotg_device.c:683
                                    errflag = 0xFF;
    4064:	57fd                	li	a5,-1
    4066:	f8f40f23          	sb	a5,-98(s0)
C:/Users/86152/Desktop/单车越野/我的/代码调试/Bicycle_Code/libraries/sdk/Peripheral/ch32v30x_usbotg_device.c:690
                            break;
    406a:	a2b5                	j	41d6 <OTG_FS_IRQHandler+0x822>
C:/Users/86152/Desktop/单车越野/我的/代码调试/Bicycle_Code/libraries/sdk/Peripheral/ch32v30x_usbotg_device.c:688
                                errflag = 0xFF;
    406c:	57fd                	li	a5,-1
    406e:	f8f40f23          	sb	a5,-98(s0)
C:/Users/86152/Desktop/单车越野/我的/代码调试/Bicycle_Code/libraries/sdk/Peripheral/ch32v30x_usbotg_device.c:690
                            break;
    4072:	a295                	j	41d6 <OTG_FS_IRQHandler+0x822>
C:/Users/86152/Desktop/单车越野/我的/代码调试/Bicycle_Code/libraries/sdk/Peripheral/ch32v30x_usbotg_device.c:690 (discriminator 4)
    4074:	a28d                	j	41d6 <OTG_FS_IRQHandler+0x822>
C:/Users/86152/Desktop/单车越野/我的/代码调试/Bicycle_Code/libraries/sdk/Peripheral/ch32v30x_usbotg_device.c:694
                            pEP0_DataBuf[0] = 0x00;
    4076:	84c1a783          	lw	a5,-1972(gp) # 20000284 <pEP0_RAM_Addr>
    407a:	00078023          	sb	zero,0(a5)
C:/Users/86152/Desktop/单车越野/我的/代码调试/Bicycle_Code/libraries/sdk/Peripheral/ch32v30x_usbotg_device.c:695
                            if ( SetupReqLen > 1 ) SetupReqLen = 1;
    407e:	8621d783          	lhu	a5,-1950(gp) # 2000029a <SetupReqLen>
    4082:	01079713          	slli	a4,a5,0x10
    4086:	8341                	srli	a4,a4,0x10
    4088:	4785                	li	a5,1
    408a:	14e7f163          	bgeu	a5,a4,41cc <OTG_FS_IRQHandler+0x818>
C:/Users/86152/Desktop/单车越野/我的/代码调试/Bicycle_Code/libraries/sdk/Peripheral/ch32v30x_usbotg_device.c:695 (discriminator 1)
    408e:	4705                	li	a4,1
    4090:	86e19123          	sh	a4,-1950(gp) # 2000029a <SetupReqLen>
C:/Users/86152/Desktop/单车越野/我的/代码调试/Bicycle_Code/libraries/sdk/Peripheral/ch32v30x_usbotg_device.c:696 (discriminator 1)
                            break;
    4094:	aa25                	j	41cc <OTG_FS_IRQHandler+0x818>
C:/Users/86152/Desktop/单车越野/我的/代码调试/Bicycle_Code/libraries/sdk/Peripheral/ch32v30x_usbotg_device.c:700
                            EP0_DatabufHD[ 0 ] = 0x00;
    4096:	84018223          	sb	zero,-1980(gp) # 2000027c <EP0_DatabufHD>
C:/Users/86152/Desktop/单车越野/我的/代码调试/Bicycle_Code/libraries/sdk/Peripheral/ch32v30x_usbotg_device.c:701
                            if( USBHD_Dev_SetupReqLen > 1 )
    409a:	85c1d783          	lhu	a5,-1956(gp) # 20000294 <USBHD_Dev_SetupReqLen>
    409e:	01079713          	slli	a4,a5,0x10
    40a2:	8341                	srli	a4,a4,0x10
    40a4:	4785                	li	a5,1
    40a6:	12e7f563          	bgeu	a5,a4,41d0 <OTG_FS_IRQHandler+0x81c>
C:/Users/86152/Desktop/单车越野/我的/代码调试/Bicycle_Code/libraries/sdk/Peripheral/ch32v30x_usbotg_device.c:703
                                USBHD_Dev_SetupReqLen = 1;
    40aa:	4705                	li	a4,1
    40ac:	84e19e23          	sh	a4,-1956(gp) # 20000294 <USBHD_Dev_SetupReqLen>
C:/Users/86152/Desktop/单车越野/我的/代码调试/Bicycle_Code/libraries/sdk/Peripheral/ch32v30x_usbotg_device.c:705
                            break;
    40b0:	a205                	j	41d0 <OTG_FS_IRQHandler+0x81c>
C:/Users/86152/Desktop/单车越野/我的/代码调试/Bicycle_Code/libraries/sdk/Peripheral/ch32v30x_usbotg_device.c:709
                            EP0_DatabufHD[ 0 ] = 0x00;
    40b2:	84018223          	sb	zero,-1980(gp) # 2000027c <EP0_DatabufHD>
C:/Users/86152/Desktop/单车越野/我的/代码调试/Bicycle_Code/libraries/sdk/Peripheral/ch32v30x_usbotg_device.c:710
                            EP0_DatabufHD[ 1 ] = 0x00;
    40b6:	84418793          	addi	a5,gp,-1980 # 2000027c <EP0_DatabufHD>
    40ba:	000780a3          	sb	zero,1(a5)
C:/Users/86152/Desktop/单车越野/我的/代码调试/Bicycle_Code/libraries/sdk/Peripheral/ch32v30x_usbotg_device.c:711
                            if( pMySetupReqPakHD->wIndex == 0x81 )
    40be:	84418793          	addi	a5,gp,-1980 # 2000027c <EP0_DatabufHD>
    40c2:	0047c703          	lbu	a4,4(a5)
    40c6:	0057c783          	lbu	a5,5(a5)
    40ca:	07a2                	slli	a5,a5,0x8
    40cc:	8fd9                	or	a5,a5,a4
    40ce:	01079713          	slli	a4,a5,0x10
    40d2:	8341                	srli	a4,a4,0x10
    40d4:	08100793          	li	a5,129
    40d8:	02f71163          	bne	a4,a5,40fa <OTG_FS_IRQHandler+0x746>
C:/Users/86152/Desktop/单车越野/我的/代码调试/Bicycle_Code/libraries/sdk/Peripheral/ch32v30x_usbotg_device.c:713
                                if( ( USBOTG_FS->UEP1_TX_CTRL & USBHD_UEP_T_RES_MASK ) == USBHD_UEP_T_RES_STALL )
    40dc:	500007b7          	lui	a5,0x50000
    40e0:	0367c783          	lbu	a5,54(a5) # 50000036 <_eusrstack+0x2fff0036>
    40e4:	0ff7f793          	andi	a5,a5,255
    40e8:	0037f713          	andi	a4,a5,3
    40ec:	478d                	li	a5,3
    40ee:	0af71d63          	bne	a4,a5,41a8 <OTG_FS_IRQHandler+0x7f4>
C:/Users/86152/Desktop/单车越野/我的/代码调试/Bicycle_Code/libraries/sdk/Peripheral/ch32v30x_usbotg_device.c:715
                                    EP0_DatabufHD[ 0 ] = 0x01;
    40f2:	4705                	li	a4,1
    40f4:	84e18223          	sb	a4,-1980(gp) # 2000027c <EP0_DatabufHD>
    40f8:	a845                	j	41a8 <OTG_FS_IRQHandler+0x7f4>
C:/Users/86152/Desktop/单车越野/我的/代码调试/Bicycle_Code/libraries/sdk/Peripheral/ch32v30x_usbotg_device.c:718
                            else if( pMySetupReqPakHD->wIndex == 0x01 )
    40fa:	84418793          	addi	a5,gp,-1980 # 2000027c <EP0_DatabufHD>
    40fe:	0047c703          	lbu	a4,4(a5)
    4102:	0057c783          	lbu	a5,5(a5)
    4106:	07a2                	slli	a5,a5,0x8
    4108:	8fd9                	or	a5,a5,a4
    410a:	01079713          	slli	a4,a5,0x10
    410e:	8341                	srli	a4,a4,0x10
    4110:	4785                	li	a5,1
    4112:	02f71163          	bne	a4,a5,4134 <OTG_FS_IRQHandler+0x780>
C:/Users/86152/Desktop/单车越野/我的/代码调试/Bicycle_Code/libraries/sdk/Peripheral/ch32v30x_usbotg_device.c:720
                                if( ( USBOTG_FS->UEP1_RX_CTRL & USBHD_UEP_R_RES_MASK ) == USBHD_UEP_R_RES_STALL )
    4116:	500007b7          	lui	a5,0x50000
    411a:	0377c783          	lbu	a5,55(a5) # 50000037 <_eusrstack+0x2fff0037>
    411e:	0ff7f793          	andi	a5,a5,255
    4122:	0037f713          	andi	a4,a5,3
    4126:	478d                	li	a5,3
    4128:	08f71063          	bne	a4,a5,41a8 <OTG_FS_IRQHandler+0x7f4>
C:/Users/86152/Desktop/单车越野/我的/代码调试/Bicycle_Code/libraries/sdk/Peripheral/ch32v30x_usbotg_device.c:722
                                    EP0_DatabufHD[ 0 ] = 0x01;
    412c:	4705                	li	a4,1
    412e:	84e18223          	sb	a4,-1980(gp) # 2000027c <EP0_DatabufHD>
    4132:	a89d                	j	41a8 <OTG_FS_IRQHandler+0x7f4>
C:/Users/86152/Desktop/单车越野/我的/代码调试/Bicycle_Code/libraries/sdk/Peripheral/ch32v30x_usbotg_device.c:725
                            else if( pMySetupReqPakHD->wIndex == 0x82 )
    4134:	84418793          	addi	a5,gp,-1980 # 2000027c <EP0_DatabufHD>
    4138:	0047c703          	lbu	a4,4(a5)
    413c:	0057c783          	lbu	a5,5(a5)
    4140:	07a2                	slli	a5,a5,0x8
    4142:	8fd9                	or	a5,a5,a4
    4144:	01079713          	slli	a4,a5,0x10
    4148:	8341                	srli	a4,a4,0x10
    414a:	08200793          	li	a5,130
    414e:	02f71163          	bne	a4,a5,4170 <OTG_FS_IRQHandler+0x7bc>
C:/Users/86152/Desktop/单车越野/我的/代码调试/Bicycle_Code/libraries/sdk/Peripheral/ch32v30x_usbotg_device.c:727
                                if( ( USBOTG_FS->UEP2_TX_CTRL & USBHD_UEP_T_RES_MASK ) == USBHD_UEP_T_RES_STALL )
    4152:	500007b7          	lui	a5,0x50000
    4156:	03a7c783          	lbu	a5,58(a5) # 5000003a <_eusrstack+0x2fff003a>
    415a:	0ff7f793          	andi	a5,a5,255
    415e:	0037f713          	andi	a4,a5,3
    4162:	478d                	li	a5,3
    4164:	04f71263          	bne	a4,a5,41a8 <OTG_FS_IRQHandler+0x7f4>
C:/Users/86152/Desktop/单车越野/我的/代码调试/Bicycle_Code/libraries/sdk/Peripheral/ch32v30x_usbotg_device.c:729
                                    EP0_DatabufHD[ 0 ] = 0x01;
    4168:	4705                	li	a4,1
    416a:	84e18223          	sb	a4,-1980(gp) # 2000027c <EP0_DatabufHD>
    416e:	a82d                	j	41a8 <OTG_FS_IRQHandler+0x7f4>
C:/Users/86152/Desktop/单车越野/我的/代码调试/Bicycle_Code/libraries/sdk/Peripheral/ch32v30x_usbotg_device.c:732
                            else if( pMySetupReqPakHD->wIndex == 0x02 )
    4170:	84418793          	addi	a5,gp,-1980 # 2000027c <EP0_DatabufHD>
    4174:	0047c703          	lbu	a4,4(a5)
    4178:	0057c783          	lbu	a5,5(a5)
    417c:	07a2                	slli	a5,a5,0x8
    417e:	8fd9                	or	a5,a5,a4
    4180:	01079713          	slli	a4,a5,0x10
    4184:	8341                	srli	a4,a4,0x10
    4186:	4789                	li	a5,2
    4188:	02f71063          	bne	a4,a5,41a8 <OTG_FS_IRQHandler+0x7f4>
C:/Users/86152/Desktop/单车越野/我的/代码调试/Bicycle_Code/libraries/sdk/Peripheral/ch32v30x_usbotg_device.c:734
                                if( ( USBOTG_FS->UEP2_RX_CTRL & USBHD_UEP_R_RES_MASK ) == USBHD_UEP_R_RES_STALL )
    418c:	500007b7          	lui	a5,0x50000
    4190:	03b7c783          	lbu	a5,59(a5) # 5000003b <_eusrstack+0x2fff003b>
    4194:	0ff7f793          	andi	a5,a5,255
    4198:	0037f713          	andi	a4,a5,3
    419c:	478d                	li	a5,3
    419e:	00f71563          	bne	a4,a5,41a8 <OTG_FS_IRQHandler+0x7f4>
C:/Users/86152/Desktop/单车越野/我的/代码调试/Bicycle_Code/libraries/sdk/Peripheral/ch32v30x_usbotg_device.c:736
                                    EP0_DatabufHD[ 0 ] = 0x01;
    41a2:	4705                	li	a4,1
    41a4:	84e18223          	sb	a4,-1980(gp) # 2000027c <EP0_DatabufHD>
C:/Users/86152/Desktop/单车越野/我的/代码调试/Bicycle_Code/libraries/sdk/Peripheral/ch32v30x_usbotg_device.c:739
                            if( USBHD_Dev_SetupReqLen > 2 )
    41a8:	85c1d783          	lhu	a5,-1956(gp) # 20000294 <USBHD_Dev_SetupReqLen>
    41ac:	01079713          	slli	a4,a5,0x10
    41b0:	8341                	srli	a4,a4,0x10
    41b2:	4789                	li	a5,2
    41b4:	02e7f063          	bgeu	a5,a4,41d4 <OTG_FS_IRQHandler+0x820>
C:/Users/86152/Desktop/单车越野/我的/代码调试/Bicycle_Code/libraries/sdk/Peripheral/ch32v30x_usbotg_device.c:741
                                USBHD_Dev_SetupReqLen = 2;
    41b8:	4709                	li	a4,2
    41ba:	84e19e23          	sh	a4,-1956(gp) # 20000294 <USBHD_Dev_SetupReqLen>
C:/Users/86152/Desktop/单车越野/我的/代码调试/Bicycle_Code/libraries/sdk/Peripheral/ch32v30x_usbotg_device.c:743
                            break;
    41be:	a819                	j	41d4 <OTG_FS_IRQHandler+0x820>
C:/Users/86152/Desktop/单车越野/我的/代码调试/Bicycle_Code/libraries/sdk/Peripheral/ch32v30x_usbotg_device.c:746
                            errflag = 0xFF;
    41c0:	57fd                	li	a5,-1
    41c2:	f8f40f23          	sb	a5,-98(s0)
C:/Users/86152/Desktop/单车越野/我的/代码调试/Bicycle_Code/libraries/sdk/Peripheral/ch32v30x_usbotg_device.c:747
                            break;
    41c6:	a801                	j	41d6 <OTG_FS_IRQHandler+0x822>
C:/Users/86152/Desktop/单车越野/我的/代码调试/Bicycle_Code/libraries/sdk/Peripheral/ch32v30x_usbotg_device.c:583
                            break;
    41c8:	0001                	nop
    41ca:	a031                	j	41d6 <OTG_FS_IRQHandler+0x822>
C:/Users/86152/Desktop/单车越野/我的/代码调试/Bicycle_Code/libraries/sdk/Peripheral/ch32v30x_usbotg_device.c:696
                            break;
    41cc:	0001                	nop
    41ce:	a021                	j	41d6 <OTG_FS_IRQHandler+0x822>
C:/Users/86152/Desktop/单车越野/我的/代码调试/Bicycle_Code/libraries/sdk/Peripheral/ch32v30x_usbotg_device.c:705
                            break;
    41d0:	0001                	nop
    41d2:	a011                	j	41d6 <OTG_FS_IRQHandler+0x822>
C:/Users/86152/Desktop/单车越野/我的/代码调试/Bicycle_Code/libraries/sdk/Peripheral/ch32v30x_usbotg_device.c:743
                            break;
    41d4:	0001                	nop
C:/Users/86152/Desktop/单车越野/我的/代码调试/Bicycle_Code/libraries/sdk/Peripheral/ch32v30x_usbotg_device.c:750
                if( errflag == 0xff)
    41d6:	f9e44703          	lbu	a4,-98(s0)
    41da:	0ff00793          	li	a5,255
    41de:	00f71d63          	bne	a4,a5,41f8 <OTG_FS_IRQHandler+0x844>
C:/Users/86152/Desktop/单车越野/我的/代码调试/Bicycle_Code/libraries/sdk/Peripheral/ch32v30x_usbotg_device.c:753
                    USBOTG_FS->UEP0_TX_CTRL = USBHD_UEP_T_TOG|USBHD_UEP_T_RES_STALL;
    41e2:	500007b7          	lui	a5,0x50000
    41e6:	471d                	li	a4,7
    41e8:	02e78923          	sb	a4,50(a5) # 50000032 <_eusrstack+0x2fff0032>
C:/Users/86152/Desktop/单车越野/我的/代码调试/Bicycle_Code/libraries/sdk/Peripheral/ch32v30x_usbotg_device.c:754
                    USBOTG_FS->UEP0_RX_CTRL = USBHD_UEP_R_TOG|USBHD_UEP_R_RES_STALL;
    41ec:	500007b7          	lui	a5,0x50000
    41f0:	471d                	li	a4,7
    41f2:	02e789a3          	sb	a4,51(a5) # 50000033 <_eusrstack+0x2fff0033>
C:/Users/86152/Desktop/单车越野/我的/代码调试/Bicycle_Code/libraries/sdk/Peripheral/ch32v30x_usbotg_device.c:769
                break;
    41f6:	a6e9                	j	45c0 <OTG_FS_IRQHandler+0xc0c>
C:/Users/86152/Desktop/单车越野/我的/代码调试/Bicycle_Code/libraries/sdk/Peripheral/ch32v30x_usbotg_device.c:758
                    if( chtype & 0x80 )
    41f8:	f9c40783          	lb	a5,-100(s0)
    41fc:	0407d563          	bgez	a5,4246 <OTG_FS_IRQHandler+0x892>
C:/Users/86152/Desktop/单车越野/我的/代码调试/Bicycle_Code/libraries/sdk/Peripheral/ch32v30x_usbotg_device.c:760
                        len = (SetupReqLen>DevEP0SIZE) ? DevEP0SIZE : SetupReqLen;
    4200:	8621d783          	lhu	a5,-1950(gp) # 2000029a <SetupReqLen>
    4204:	01079713          	slli	a4,a5,0x10
    4208:	8341                	srli	a4,a4,0x10
    420a:	47a1                	li	a5,8
    420c:	00e7e963          	bltu	a5,a4,421e <OTG_FS_IRQHandler+0x86a>
C:/Users/86152/Desktop/单车越野/我的/代码调试/Bicycle_Code/libraries/sdk/Peripheral/ch32v30x_usbotg_device.c:760 (discriminator 1)
    4210:	8621d783          	lhu	a5,-1950(gp) # 2000029a <SetupReqLen>
    4214:	07c2                	slli	a5,a5,0x10
    4216:	83c1                	srli	a5,a5,0x10
    4218:	0ff7f793          	andi	a5,a5,255
    421c:	a011                	j	4220 <OTG_FS_IRQHandler+0x86c>
C:/Users/86152/Desktop/单车越野/我的/代码调试/Bicycle_Code/libraries/sdk/Peripheral/ch32v30x_usbotg_device.c:760 (discriminator 2)
    421e:	47a1                	li	a5,8
C:/Users/86152/Desktop/单车越野/我的/代码调试/Bicycle_Code/libraries/sdk/Peripheral/ch32v30x_usbotg_device.c:760 (discriminator 4)
    4220:	f8f40fa3          	sb	a5,-97(s0)
C:/Users/86152/Desktop/单车越野/我的/代码调试/Bicycle_Code/libraries/sdk/Peripheral/ch32v30x_usbotg_device.c:761 (discriminator 4)
                        SetupReqLen -= len;
    4224:	8621d783          	lhu	a5,-1950(gp) # 2000029a <SetupReqLen>
    4228:	01079713          	slli	a4,a5,0x10
    422c:	8341                	srli	a4,a4,0x10
    422e:	f9f44783          	lbu	a5,-97(s0)
    4232:	07c2                	slli	a5,a5,0x10
    4234:	83c1                	srli	a5,a5,0x10
    4236:	40f707b3          	sub	a5,a4,a5
    423a:	01079713          	slli	a4,a5,0x10
    423e:	8341                	srli	a4,a4,0x10
    4240:	86e19123          	sh	a4,-1950(gp) # 2000029a <SetupReqLen>
    4244:	a019                	j	424a <OTG_FS_IRQHandler+0x896>
C:/Users/86152/Desktop/单车越野/我的/代码调试/Bicycle_Code/libraries/sdk/Peripheral/ch32v30x_usbotg_device.c:763
                    else  len = 0;
    4246:	f8040fa3          	sb	zero,-97(s0)
C:/Users/86152/Desktop/单车越野/我的/代码调试/Bicycle_Code/libraries/sdk/Peripheral/ch32v30x_usbotg_device.c:765
                    USBOTG_FS->UEP0_TX_LEN  = len;
    424a:	500007b7          	lui	a5,0x50000
    424e:	f9f44703          	lbu	a4,-97(s0)
    4252:	0742                	slli	a4,a4,0x10
    4254:	8341                	srli	a4,a4,0x10
    4256:	02e79823          	sh	a4,48(a5) # 50000030 <_eusrstack+0x2fff0030>
C:/Users/86152/Desktop/单车越野/我的/代码调试/Bicycle_Code/libraries/sdk/Peripheral/ch32v30x_usbotg_device.c:766
                    USBOTG_FS->UEP0_TX_CTRL = USBHD_UEP_T_TOG|USBHD_UEP_T_RES_ACK;
    425a:	500007b7          	lui	a5,0x50000
    425e:	4711                	li	a4,4
    4260:	02e78923          	sb	a4,50(a5) # 50000032 <_eusrstack+0x2fff0032>
C:/Users/86152/Desktop/单车越野/我的/代码调试/Bicycle_Code/libraries/sdk/Peripheral/ch32v30x_usbotg_device.c:767
                    USBOTG_FS->UEP0_RX_CTRL = USBHD_UEP_R_TOG|USBHD_UEP_R_RES_ACK;
    4264:	500007b7          	lui	a5,0x50000
    4268:	4711                	li	a4,4
    426a:	02e789a3          	sb	a4,51(a5) # 50000033 <_eusrstack+0x2fff0033>
C:/Users/86152/Desktop/单车越野/我的/代码调试/Bicycle_Code/libraries/sdk/Peripheral/ch32v30x_usbotg_device.c:769
                break;
    426e:	ae89                	j	45c0 <OTG_FS_IRQHandler+0xc0c>
C:/Users/86152/Desktop/单车越野/我的/代码调试/Bicycle_Code/libraries/sdk/Peripheral/ch32v30x_usbotg_device.c:772
                switch ( USBOTG_FS->INT_ST & ( USBHD_UIS_TOKEN_MASK | USBHD_UIS_ENDP_MASK ) )
    4270:	500007b7          	lui	a5,0x50000
    4274:	0077c783          	lbu	a5,7(a5) # 50000007 <_eusrstack+0x2fff0007>
    4278:	0ff7f793          	andi	a5,a5,255
    427c:	03f7f793          	andi	a5,a5,63
    4280:	02100713          	li	a4,33
    4284:	12e78563          	beq	a5,a4,43ae <OTG_FS_IRQHandler+0x9fa>
    4288:	02200713          	li	a4,34
    428c:	14e78d63          	beq	a5,a4,43e6 <OTG_FS_IRQHandler+0xa32>
    4290:	02000713          	li	a4,32
    4294:	18e79e63          	bne	a5,a4,4430 <OTG_FS_IRQHandler+0xa7c>
C:/Users/86152/Desktop/单车越野/我的/代码调试/Bicycle_Code/libraries/sdk/Peripheral/ch32v30x_usbotg_device.c:775 (discriminator 6)
                        switch( SetupReqCode )
    4298:	8601c783          	lbu	a5,-1952(gp) # 20000298 <SetupReqCode>
    429c:	0ff7f793          	andi	a5,a5,255
    42a0:	4715                	li	a4,5
    42a2:	0ae78063          	beq	a5,a4,4342 <OTG_FS_IRQHandler+0x98e>
    42a6:	4719                	li	a4,6
    42a8:	0ee79463          	bne	a5,a4,4390 <OTG_FS_IRQHandler+0x9dc>
C:/Users/86152/Desktop/单车越野/我的/代码调试/Bicycle_Code/libraries/sdk/Peripheral/ch32v30x_usbotg_device.c:778
                                    len = SetupReqLen >= DevEP0SIZE ? DevEP0SIZE : SetupReqLen;
    42ac:	8621d783          	lhu	a5,-1950(gp) # 2000029a <SetupReqLen>
    42b0:	01079713          	slli	a4,a5,0x10
    42b4:	8341                	srli	a4,a4,0x10
    42b6:	479d                	li	a5,7
    42b8:	00e7e963          	bltu	a5,a4,42ca <OTG_FS_IRQHandler+0x916>
C:/Users/86152/Desktop/单车越野/我的/代码调试/Bicycle_Code/libraries/sdk/Peripheral/ch32v30x_usbotg_device.c:778 (discriminator 1)
    42bc:	8621d783          	lhu	a5,-1950(gp) # 2000029a <SetupReqLen>
    42c0:	07c2                	slli	a5,a5,0x10
    42c2:	83c1                	srli	a5,a5,0x10
    42c4:	0ff7f793          	andi	a5,a5,255
    42c8:	a011                	j	42cc <OTG_FS_IRQHandler+0x918>
C:/Users/86152/Desktop/单车越野/我的/代码调试/Bicycle_Code/libraries/sdk/Peripheral/ch32v30x_usbotg_device.c:778 (discriminator 2)
    42ca:	47a1                	li	a5,8
C:/Users/86152/Desktop/单车越野/我的/代码调试/Bicycle_Code/libraries/sdk/Peripheral/ch32v30x_usbotg_device.c:778 (discriminator 4)
    42cc:	f8f40fa3          	sb	a5,-97(s0)
C:/Users/86152/Desktop/单车越野/我的/代码调试/Bicycle_Code/libraries/sdk/Peripheral/ch32v30x_usbotg_device.c:779 (discriminator 4)
                                    memcpy( pEP0_DataBuf, pDescr, len );
    42d0:	84c1a703          	lw	a4,-1972(gp) # 20000284 <pEP0_RAM_Addr>
    42d4:	8581a783          	lw	a5,-1960(gp) # 20000290 <pDescr>
    42d8:	f9f44683          	lbu	a3,-97(s0)
    42dc:	8636                	mv	a2,a3
    42de:	85be                	mv	a1,a5
    42e0:	853a                	mv	a0,a4
    42e2:	327020ef          	jal	ra,6e08 <memcpy>
C:/Users/86152/Desktop/单车越野/我的/代码调试/Bicycle_Code/libraries/sdk/Peripheral/ch32v30x_usbotg_device.c:780 (discriminator 4)
                                    SetupReqLen -= len;
    42e6:	8621d783          	lhu	a5,-1950(gp) # 2000029a <SetupReqLen>
    42ea:	01079713          	slli	a4,a5,0x10
    42ee:	8341                	srli	a4,a4,0x10
    42f0:	f9f44783          	lbu	a5,-97(s0)
    42f4:	07c2                	slli	a5,a5,0x10
    42f6:	83c1                	srli	a5,a5,0x10
    42f8:	40f707b3          	sub	a5,a4,a5
    42fc:	01079713          	slli	a4,a5,0x10
    4300:	8341                	srli	a4,a4,0x10
    4302:	86e19123          	sh	a4,-1950(gp) # 2000029a <SetupReqLen>
C:/Users/86152/Desktop/单车越野/我的/代码调试/Bicycle_Code/libraries/sdk/Peripheral/ch32v30x_usbotg_device.c:781 (discriminator 4)
                                    pDescr += len;
    4306:	8581a703          	lw	a4,-1960(gp) # 20000290 <pDescr>
    430a:	f9f44783          	lbu	a5,-97(s0)
    430e:	973e                	add	a4,a4,a5
    4310:	84e1ac23          	sw	a4,-1960(gp) # 20000290 <pDescr>
C:/Users/86152/Desktop/单车越野/我的/代码调试/Bicycle_Code/libraries/sdk/Peripheral/ch32v30x_usbotg_device.c:782 (discriminator 4)
                                    USBOTG_FS->UEP0_TX_LEN   = len;
    4314:	500007b7          	lui	a5,0x50000
    4318:	f9f44703          	lbu	a4,-97(s0)
    431c:	0742                	slli	a4,a4,0x10
    431e:	8341                	srli	a4,a4,0x10
    4320:	02e79823          	sh	a4,48(a5) # 50000030 <_eusrstack+0x2fff0030>
C:/Users/86152/Desktop/单车越野/我的/代码调试/Bicycle_Code/libraries/sdk/Peripheral/ch32v30x_usbotg_device.c:783 (discriminator 4)
                                    USBOTG_FS->UEP0_TX_CTRL ^= USBHD_UEP_T_TOG;
    4324:	500007b7          	lui	a5,0x50000
    4328:	0327c783          	lbu	a5,50(a5) # 50000032 <_eusrstack+0x2fff0032>
    432c:	0ff7f713          	andi	a4,a5,255
    4330:	500007b7          	lui	a5,0x50000
    4334:	00474713          	xori	a4,a4,4
    4338:	0ff77713          	andi	a4,a4,255
    433c:	02e78923          	sb	a4,50(a5) # 50000032 <_eusrstack+0x2fff0032>
C:/Users/86152/Desktop/单车越野/我的/代码调试/Bicycle_Code/libraries/sdk/Peripheral/ch32v30x_usbotg_device.c:784 (discriminator 4)
                                    break;
    4340:	a0b5                	j	43ac <OTG_FS_IRQHandler+0x9f8>
C:/Users/86152/Desktop/单车越野/我的/代码调试/Bicycle_Code/libraries/sdk/Peripheral/ch32v30x_usbotg_device.c:787
                                    USBOTG_FS->DEV_ADDR = (USBOTG_FS->DEV_ADDR&USBHD_UDA_GP_BIT) | SetupReqLen;
    4342:	500007b7          	lui	a5,0x50000
    4346:	0037c783          	lbu	a5,3(a5) # 50000003 <_eusrstack+0x2fff0003>
    434a:	0ff7f793          	andi	a5,a5,255
    434e:	07e2                	slli	a5,a5,0x18
    4350:	87e1                	srai	a5,a5,0x18
    4352:	f807f793          	andi	a5,a5,-128
    4356:	01879713          	slli	a4,a5,0x18
    435a:	8761                	srai	a4,a4,0x18
    435c:	8621d783          	lhu	a5,-1950(gp) # 2000029a <SetupReqLen>
    4360:	07c2                	slli	a5,a5,0x10
    4362:	83c1                	srli	a5,a5,0x10
    4364:	07e2                	slli	a5,a5,0x18
    4366:	87e1                	srai	a5,a5,0x18
    4368:	8fd9                	or	a5,a5,a4
    436a:	01879713          	slli	a4,a5,0x18
    436e:	8761                	srai	a4,a4,0x18
    4370:	500007b7          	lui	a5,0x50000
    4374:	0ff77713          	andi	a4,a4,255
    4378:	00e781a3          	sb	a4,3(a5) # 50000003 <_eusrstack+0x2fff0003>
C:/Users/86152/Desktop/单车越野/我的/代码调试/Bicycle_Code/libraries/sdk/Peripheral/ch32v30x_usbotg_device.c:788
                                    USBOTG_FS->UEP0_TX_CTRL = USBHD_UEP_T_RES_NAK;
    437c:	500007b7          	lui	a5,0x50000
    4380:	4709                	li	a4,2
    4382:	02e78923          	sb	a4,50(a5) # 50000032 <_eusrstack+0x2fff0032>
C:/Users/86152/Desktop/单车越野/我的/代码调试/Bicycle_Code/libraries/sdk/Peripheral/ch32v30x_usbotg_device.c:789
                                    USBOTG_FS->UEP0_RX_CTRL = USBHD_UEP_R_RES_ACK;
    4386:	500007b7          	lui	a5,0x50000
    438a:	020789a3          	sb	zero,51(a5) # 50000033 <_eusrstack+0x2fff0033>
C:/Users/86152/Desktop/单车越野/我的/代码调试/Bicycle_Code/libraries/sdk/Peripheral/ch32v30x_usbotg_device.c:790
                                    break;
    438e:	a839                	j	43ac <OTG_FS_IRQHandler+0x9f8>
C:/Users/86152/Desktop/单车越野/我的/代码调试/Bicycle_Code/libraries/sdk/Peripheral/ch32v30x_usbotg_device.c:793
                                    USBOTG_FS->UEP0_TX_LEN = 0;
    4390:	500007b7          	lui	a5,0x50000
    4394:	02079823          	sh	zero,48(a5) # 50000030 <_eusrstack+0x2fff0030>
C:/Users/86152/Desktop/单车越野/我的/代码调试/Bicycle_Code/libraries/sdk/Peripheral/ch32v30x_usbotg_device.c:794
                                    USBOTG_FS->UEP0_TX_CTRL = USBHD_UEP_T_RES_NAK;
    4398:	500007b7          	lui	a5,0x50000
    439c:	4709                	li	a4,2
    439e:	02e78923          	sb	a4,50(a5) # 50000032 <_eusrstack+0x2fff0032>
C:/Users/86152/Desktop/单车越野/我的/代码调试/Bicycle_Code/libraries/sdk/Peripheral/ch32v30x_usbotg_device.c:795
                                    USBOTG_FS->UEP0_RX_CTRL = USBHD_UEP_R_RES_ACK;
    43a2:	500007b7          	lui	a5,0x50000
    43a6:	020789a3          	sb	zero,51(a5) # 50000033 <_eusrstack+0x2fff0033>
C:/Users/86152/Desktop/单车越野/我的/代码调试/Bicycle_Code/libraries/sdk/Peripheral/ch32v30x_usbotg_device.c:796
                                    break;
    43aa:	0001                	nop
C:/Users/86152/Desktop/单车越野/我的/代码调试/Bicycle_Code/libraries/sdk/Peripheral/ch32v30x_usbotg_device.c:799
                        break;
    43ac:	a059                	j	4432 <OTG_FS_IRQHandler+0xa7e>
C:/Users/86152/Desktop/单车越野/我的/代码调试/Bicycle_Code/libraries/sdk/Peripheral/ch32v30x_usbotg_device.c:802
                    USBOTG_FS->UEP1_TX_CTRL  = (USBHD_UEP1_TX_CTRL & ~USBHD_UEP_T_RES_MASK) | USBHD_UEP_T_RES_ACK;
    43ae:	500007b7          	lui	a5,0x50000
    43b2:	0367c783          	lbu	a5,54(a5) # 50000036 <_eusrstack+0x2fff0036>
    43b6:	0ff7f713          	andi	a4,a5,255
    43ba:	500007b7          	lui	a5,0x50000
    43be:	9b71                	andi	a4,a4,-4
    43c0:	0ff77713          	andi	a4,a4,255
    43c4:	02e78b23          	sb	a4,54(a5) # 50000036 <_eusrstack+0x2fff0036>
C:/Users/86152/Desktop/单车越野/我的/代码调试/Bicycle_Code/libraries/sdk/Peripheral/ch32v30x_usbotg_device.c:803
                    USBOTG_FS->UEP1_TX_CTRL ^= USBHD_UEP_T_TOG;
    43c8:	500007b7          	lui	a5,0x50000
    43cc:	0367c783          	lbu	a5,54(a5) # 50000036 <_eusrstack+0x2fff0036>
    43d0:	0ff7f713          	andi	a4,a5,255
    43d4:	500007b7          	lui	a5,0x50000
    43d8:	00474713          	xori	a4,a4,4
    43dc:	0ff77713          	andi	a4,a4,255
    43e0:	02e78b23          	sb	a4,54(a5) # 50000036 <_eusrstack+0x2fff0036>
C:/Users/86152/Desktop/单车越野/我的/代码调试/Bicycle_Code/libraries/sdk/Peripheral/ch32v30x_usbotg_device.c:804
                    break;
    43e4:	a0b9                	j	4432 <OTG_FS_IRQHandler+0xa7e>
C:/Users/86152/Desktop/单车越野/我的/代码调试/Bicycle_Code/libraries/sdk/Peripheral/ch32v30x_usbotg_device.c:807
                    USBOTG_FS->UEP2_TX_CTRL ^= USBHD_UEP_T_TOG;
    43e6:	500007b7          	lui	a5,0x50000
    43ea:	03a7c783          	lbu	a5,58(a5) # 5000003a <_eusrstack+0x2fff003a>
    43ee:	0ff7f713          	andi	a4,a5,255
    43f2:	500007b7          	lui	a5,0x50000
    43f6:	00474713          	xori	a4,a4,4
    43fa:	0ff77713          	andi	a4,a4,255
    43fe:	02e78d23          	sb	a4,58(a5) # 5000003a <_eusrstack+0x2fff003a>
C:/Users/86152/Desktop/单车越野/我的/代码调试/Bicycle_Code/libraries/sdk/Peripheral/ch32v30x_usbotg_device.c:808
                    USBOTG_FS->UEP2_TX_CTRL = (USBOTG_FS->UEP2_TX_CTRL & ~USBHD_UEP_T_RES_MASK) | USBHD_UEP_T_RES_NAK;
    4402:	500007b7          	lui	a5,0x50000
    4406:	03a7c783          	lbu	a5,58(a5) # 5000003a <_eusrstack+0x2fff003a>
    440a:	0ff7f793          	andi	a5,a5,255
    440e:	07e2                	slli	a5,a5,0x18
    4410:	87e1                	srai	a5,a5,0x18
    4412:	9bf1                	andi	a5,a5,-4
    4414:	07e2                	slli	a5,a5,0x18
    4416:	87e1                	srai	a5,a5,0x18
    4418:	0027e793          	ori	a5,a5,2
    441c:	01879713          	slli	a4,a5,0x18
    4420:	8761                	srai	a4,a4,0x18
    4422:	500007b7          	lui	a5,0x50000
    4426:	0ff77713          	andi	a4,a4,255
    442a:	02e78d23          	sb	a4,58(a5) # 5000003a <_eusrstack+0x2fff003a>
C:/Users/86152/Desktop/单车越野/我的/代码调试/Bicycle_Code/libraries/sdk/Peripheral/ch32v30x_usbotg_device.c:809
                    break;
    442e:	a011                	j	4432 <OTG_FS_IRQHandler+0xa7e>
C:/Users/86152/Desktop/单车越野/我的/代码调试/Bicycle_Code/libraries/sdk/Peripheral/ch32v30x_usbotg_device.c:813
                    break;
    4430:	0001                	nop
C:/Users/86152/Desktop/单车越野/我的/代码调试/Bicycle_Code/libraries/sdk/Peripheral/ch32v30x_usbotg_device.c:816
                break;
    4432:	a279                	j	45c0 <OTG_FS_IRQHandler+0xc0c>
C:/Users/86152/Desktop/单车越野/我的/代码调试/Bicycle_Code/libraries/sdk/Peripheral/ch32v30x_usbotg_device.c:820
                switch ( USBOTG_FS->INT_ST & ( USBHD_UIS_TOKEN_MASK | USBHD_UIS_ENDP_MASK ) )
    4434:	500007b7          	lui	a5,0x50000
    4438:	0077c783          	lbu	a5,7(a5) # 50000007 <_eusrstack+0x2fff0007>
    443c:	0ff7f793          	andi	a5,a5,255
    4440:	03f7f793          	andi	a5,a5,63
    4444:	4705                	li	a4,1
    4446:	0ce78a63          	beq	a5,a4,451a <OTG_FS_IRQHandler+0xb66>
    444a:	4709                	li	a4,2
    444c:	10e78c63          	beq	a5,a4,4564 <OTG_FS_IRQHandler+0xbb0>
    4450:	16079763          	bnez	a5,45be <OTG_FS_IRQHandler+0xc0a>
C:/Users/86152/Desktop/单车越野/我的/代码调试/Bicycle_Code/libraries/sdk/Peripheral/ch32v30x_usbotg_device.c:823 (discriminator 7)
                        switch( SetupReqCode )
    4454:	8601c783          	lbu	a5,-1952(gp) # 20000298 <SetupReqCode>
    4458:	0ff7f793          	andi	a5,a5,255
    445c:	873e                	mv	a4,a5
    445e:	02000793          	li	a5,32
    4462:	0af71363          	bne	a4,a5,4508 <OTG_FS_IRQHandler+0xb54>
C:/Users/86152/Desktop/单车越野/我的/代码调试/Bicycle_Code/libraries/sdk/Peripheral/ch32v30x_usbotg_device.c:826
                                if((((LINECODINGST *)pEP0_DataBuf)->dataRat[0] || ((LINECODINGST *)pEP0_DataBuf)->dataRat[1] ||
    4466:	84c1a783          	lw	a5,-1972(gp) # 20000284 <pEP0_RAM_Addr>
    446a:	0007c783          	lbu	a5,0(a5)
    446e:	e385                	bnez	a5,448e <OTG_FS_IRQHandler+0xada>
C:/Users/86152/Desktop/单车越野/我的/代码调试/Bicycle_Code/libraries/sdk/Peripheral/ch32v30x_usbotg_device.c:826 (discriminator 1)
    4470:	84c1a783          	lw	a5,-1972(gp) # 20000284 <pEP0_RAM_Addr>
    4474:	0017c783          	lbu	a5,1(a5)
    4478:	eb99                	bnez	a5,448e <OTG_FS_IRQHandler+0xada>
C:/Users/86152/Desktop/单车越野/我的/代码调试/Bicycle_Code/libraries/sdk/Peripheral/ch32v30x_usbotg_device.c:827 (discriminator 2)
                                  ((LINECODINGST *)pEP0_DataBuf)->dataRat[2] || ((LINECODINGST *)pEP0_DataBuf)->dataRat[3]))
    447a:	84c1a783          	lw	a5,-1972(gp) # 20000284 <pEP0_RAM_Addr>
    447e:	0027c783          	lbu	a5,2(a5)
C:/Users/86152/Desktop/单车越野/我的/代码调试/Bicycle_Code/libraries/sdk/Peripheral/ch32v30x_usbotg_device.c:826 (discriminator 2)
                                if((((LINECODINGST *)pEP0_DataBuf)->dataRat[0] || ((LINECODINGST *)pEP0_DataBuf)->dataRat[1] ||
    4482:	e791                	bnez	a5,448e <OTG_FS_IRQHandler+0xada>
C:/Users/86152/Desktop/单车越野/我的/代码调试/Bicycle_Code/libraries/sdk/Peripheral/ch32v30x_usbotg_device.c:827
                                  ((LINECODINGST *)pEP0_DataBuf)->dataRat[2] || ((LINECODINGST *)pEP0_DataBuf)->dataRat[3]))
    4484:	84c1a783          	lw	a5,-1972(gp) # 20000284 <pEP0_RAM_Addr>
    4488:	0037c783          	lbu	a5,3(a5)
    448c:	cf9d                	beqz	a5,44ca <OTG_FS_IRQHandler+0xb16>
C:/Users/86152/Desktop/单车越野/我的/代码调试/Bicycle_Code/libraries/sdk/Peripheral/ch32v30x_usbotg_device.c:831
                                            (((LINECODINGST *)pEP0_DataBuf)->dataRat[3] <<24) |
    448e:	84c1a783          	lw	a5,-1972(gp) # 20000284 <pEP0_RAM_Addr>
    4492:	0037c783          	lbu	a5,3(a5)
    4496:	01879713          	slli	a4,a5,0x18
C:/Users/86152/Desktop/单车越野/我的/代码调试/Bicycle_Code/libraries/sdk/Peripheral/ch32v30x_usbotg_device.c:832
                                            (((LINECODINGST *)pEP0_DataBuf)->dataRat[2] <<16) |
    449a:	84c1a783          	lw	a5,-1972(gp) # 20000284 <pEP0_RAM_Addr>
    449e:	0027c783          	lbu	a5,2(a5)
    44a2:	07c2                	slli	a5,a5,0x10
C:/Users/86152/Desktop/单车越野/我的/代码调试/Bicycle_Code/libraries/sdk/Peripheral/ch32v30x_usbotg_device.c:831
                                            (((LINECODINGST *)pEP0_DataBuf)->dataRat[3] <<24) |
    44a4:	8f5d                	or	a4,a4,a5
C:/Users/86152/Desktop/单车越野/我的/代码调试/Bicycle_Code/libraries/sdk/Peripheral/ch32v30x_usbotg_device.c:833
                                            (((LINECODINGST *)pEP0_DataBuf)->dataRat[1] <<8) |
    44a6:	84c1a783          	lw	a5,-1972(gp) # 20000284 <pEP0_RAM_Addr>
    44aa:	0017c783          	lbu	a5,1(a5)
    44ae:	07a2                	slli	a5,a5,0x8
C:/Users/86152/Desktop/单车越野/我的/代码调试/Bicycle_Code/libraries/sdk/Peripheral/ch32v30x_usbotg_device.c:832
                                            (((LINECODINGST *)pEP0_DataBuf)->dataRat[2] <<16) |
    44b0:	8fd9                	or	a5,a5,a4
C:/Users/86152/Desktop/单车越野/我的/代码调试/Bicycle_Code/libraries/sdk/Peripheral/ch32v30x_usbotg_device.c:834
                                            (((LINECODINGST *)pEP0_DataBuf)->dataRat[0]));
    44b2:	84c1a703          	lw	a4,-1972(gp) # 20000284 <pEP0_RAM_Addr>
    44b6:	00074703          	lbu	a4,0(a4)
C:/Users/86152/Desktop/单车越野/我的/代码调试/Bicycle_Code/libraries/sdk/Peripheral/ch32v30x_usbotg_device.c:830
                                    printf( "\nBaud Rate = %d",
    44ba:	8fd9                	or	a5,a5,a4
    44bc:	85be                	mv	a1,a5
    44be:	67a9                	lui	a5,0xa
    44c0:	5e078513          	addi	a0,a5,1504 # a5e0 <_sbrk+0x24a>
    44c4:	3f0030ef          	jal	ra,78b4 <iprintf>
C:/Users/86152/Desktop/单车越野/我的/代码调试/Bicycle_Code/libraries/sdk/Peripheral/ch32v30x_usbotg_device.c:843
                               break;
    44c8:	a83d                	j	4506 <OTG_FS_IRQHandler+0xb52>
C:/Users/86152/Desktop/单车越野/我的/代码调试/Bicycle_Code/libraries/sdk/Peripheral/ch32v30x_usbotg_device.c:838
                                    printf( "\ndataBit = %d",  ((LINECODINGST *)pEP0_DataBuf)->dataBit);
    44ca:	84c1a783          	lw	a5,-1972(gp) # 20000284 <pEP0_RAM_Addr>
    44ce:	0067c783          	lbu	a5,6(a5)
    44d2:	85be                	mv	a1,a5
    44d4:	67a9                	lui	a5,0xa
    44d6:	5f078513          	addi	a0,a5,1520 # a5f0 <_sbrk+0x25a>
    44da:	3da030ef          	jal	ra,78b4 <iprintf>
C:/Users/86152/Desktop/单车越野/我的/代码调试/Bicycle_Code/libraries/sdk/Peripheral/ch32v30x_usbotg_device.c:839
                                    printf( "\nstopBit = %d",  ((LINECODINGST *)pEP0_DataBuf)->stopBit);
    44de:	84c1a783          	lw	a5,-1972(gp) # 20000284 <pEP0_RAM_Addr>
    44e2:	0047c783          	lbu	a5,4(a5)
    44e6:	85be                	mv	a1,a5
    44e8:	67a9                	lui	a5,0xa
    44ea:	60078513          	addi	a0,a5,1536 # a600 <_sbrk+0x26a>
    44ee:	3c6030ef          	jal	ra,78b4 <iprintf>
C:/Users/86152/Desktop/单车越野/我的/代码调试/Bicycle_Code/libraries/sdk/Peripheral/ch32v30x_usbotg_device.c:840
                                    printf( "\nparityType = %d",  ((LINECODINGST *)pEP0_DataBuf)->parityType);
    44f2:	84c1a783          	lw	a5,-1972(gp) # 20000284 <pEP0_RAM_Addr>
    44f6:	0057c783          	lbu	a5,5(a5)
    44fa:	85be                	mv	a1,a5
    44fc:	67a9                	lui	a5,0xa
    44fe:	61078513          	addi	a0,a5,1552 # a610 <_sbrk+0x27a>
    4502:	3b2030ef          	jal	ra,78b4 <iprintf>
C:/Users/86152/Desktop/单车越野/我的/代码调试/Bicycle_Code/libraries/sdk/Peripheral/ch32v30x_usbotg_device.c:843
                               break;
    4506:	0001                	nop
C:/Users/86152/Desktop/单车越野/我的/代码调试/Bicycle_Code/libraries/sdk/Peripheral/ch32v30x_usbotg_device.c:847
                    len = USBOTG_FS->RX_LEN;
    4508:	500007b7          	lui	a5,0x50000
    450c:	0087d783          	lhu	a5,8(a5) # 50000008 <_eusrstack+0x2fff0008>
    4510:	07c2                	slli	a5,a5,0x10
    4512:	83c1                	srli	a5,a5,0x10
    4514:	f8f40fa3          	sb	a5,-97(s0)
C:/Users/86152/Desktop/单车越野/我的/代码调试/Bicycle_Code/libraries/sdk/Peripheral/ch32v30x_usbotg_device.c:848
                    break;
    4518:	a871                	j	45b4 <OTG_FS_IRQHandler+0xc00>
C:/Users/86152/Desktop/单车越野/我的/代码调试/Bicycle_Code/libraries/sdk/Peripheral/ch32v30x_usbotg_device.c:851
                        if ( USBOTG_FS->INT_ST & USBHD_UIS_TOG_OK )
    451a:	500007b7          	lui	a5,0x50000
    451e:	0077c783          	lbu	a5,7(a5) # 50000007 <_eusrstack+0x2fff0007>
    4522:	0ff7f793          	andi	a5,a5,255
    4526:	0407f793          	andi	a5,a5,64
    452a:	c3d1                	beqz	a5,45ae <OTG_FS_IRQHandler+0xbfa>
C:/Users/86152/Desktop/单车越野/我的/代码调试/Bicycle_Code/libraries/sdk/Peripheral/ch32v30x_usbotg_device.c:853
                            USBOTG_FS->UEP1_RX_CTRL ^= USBHD_UEP_R_TOG;
    452c:	500007b7          	lui	a5,0x50000
    4530:	0377c783          	lbu	a5,55(a5) # 50000037 <_eusrstack+0x2fff0037>
    4534:	0ff7f713          	andi	a4,a5,255
    4538:	500007b7          	lui	a5,0x50000
    453c:	00474713          	xori	a4,a4,4
    4540:	0ff77713          	andi	a4,a4,255
    4544:	02e78ba3          	sb	a4,55(a5) # 50000037 <_eusrstack+0x2fff0037>
C:/Users/86152/Desktop/单车越野/我的/代码调试/Bicycle_Code/libraries/sdk/Peripheral/ch32v30x_usbotg_device.c:854
                            len = USBOTG_FS->RX_LEN;
    4548:	500007b7          	lui	a5,0x50000
    454c:	0087d783          	lhu	a5,8(a5) # 50000008 <_eusrstack+0x2fff0008>
    4550:	07c2                	slli	a5,a5,0x10
    4552:	83c1                	srli	a5,a5,0x10
    4554:	f8f40fa3          	sb	a5,-97(s0)
C:/Users/86152/Desktop/单车越野/我的/代码调试/Bicycle_Code/libraries/sdk/Peripheral/ch32v30x_usbotg_device.c:856
                            DevEP1_OUT_Deal( len );
    4558:	f9f44783          	lbu	a5,-97(s0)
    455c:	853e                	mv	a0,a5
    455e:	b8eff0ef          	jal	ra,38ec <DevEP1_OUT_Deal>
C:/Users/86152/Desktop/单车越野/我的/代码调试/Bicycle_Code/libraries/sdk/Peripheral/ch32v30x_usbotg_device.c:858
                        break;
    4562:	a0b1                	j	45ae <OTG_FS_IRQHandler+0xbfa>
C:/Users/86152/Desktop/单车越野/我的/代码调试/Bicycle_Code/libraries/sdk/Peripheral/ch32v30x_usbotg_device.c:861
                        if ( USBOTG_FS->INT_ST & USBHD_UIS_TOG_OK )
    4564:	500007b7          	lui	a5,0x50000
    4568:	0077c783          	lbu	a5,7(a5) # 50000007 <_eusrstack+0x2fff0007>
    456c:	0ff7f793          	andi	a5,a5,255
    4570:	0407f793          	andi	a5,a5,64
    4574:	cf9d                	beqz	a5,45b2 <OTG_FS_IRQHandler+0xbfe>
C:/Users/86152/Desktop/单车越野/我的/代码调试/Bicycle_Code/libraries/sdk/Peripheral/ch32v30x_usbotg_device.c:863
                            USBOTG_FS->UEP2_RX_CTRL ^= USBHD_UEP_R_TOG;
    4576:	500007b7          	lui	a5,0x50000
    457a:	03b7c783          	lbu	a5,59(a5) # 5000003b <_eusrstack+0x2fff003b>
    457e:	0ff7f713          	andi	a4,a5,255
    4582:	500007b7          	lui	a5,0x50000
    4586:	00474713          	xori	a4,a4,4
    458a:	0ff77713          	andi	a4,a4,255
    458e:	02e78da3          	sb	a4,59(a5) # 5000003b <_eusrstack+0x2fff003b>
C:/Users/86152/Desktop/单车越野/我的/代码调试/Bicycle_Code/libraries/sdk/Peripheral/ch32v30x_usbotg_device.c:864
                            len = USBOTG_FS->RX_LEN;
    4592:	500007b7          	lui	a5,0x50000
    4596:	0087d783          	lhu	a5,8(a5) # 50000008 <_eusrstack+0x2fff0008>
    459a:	07c2                	slli	a5,a5,0x10
    459c:	83c1                	srli	a5,a5,0x10
    459e:	f8f40fa3          	sb	a5,-97(s0)
C:/Users/86152/Desktop/单车越野/我的/代码调试/Bicycle_Code/libraries/sdk/Peripheral/ch32v30x_usbotg_device.c:866
                            DevEP2_OUT_Deal( len );
    45a2:	f9f44783          	lbu	a5,-97(s0)
    45a6:	853e                	mv	a0,a5
    45a8:	ba8ff0ef          	jal	ra,3950 <DevEP2_OUT_Deal>
C:/Users/86152/Desktop/单车越野/我的/代码调试/Bicycle_Code/libraries/sdk/Peripheral/ch32v30x_usbotg_device.c:868
                        break;
    45ac:	a019                	j	45b2 <OTG_FS_IRQHandler+0xbfe>
C:/Users/86152/Desktop/单车越野/我的/代码调试/Bicycle_Code/libraries/sdk/Peripheral/ch32v30x_usbotg_device.c:858
                        break;
    45ae:	0001                	nop
    45b0:	a039                	j	45be <OTG_FS_IRQHandler+0xc0a>
C:/Users/86152/Desktop/单车越野/我的/代码调试/Bicycle_Code/libraries/sdk/Peripheral/ch32v30x_usbotg_device.c:868
                        break;
    45b2:	0001                	nop
C:/Users/86152/Desktop/单车越野/我的/代码调试/Bicycle_Code/libraries/sdk/Peripheral/ch32v30x_usbotg_device.c:871
                break;
    45b4:	a029                	j	45be <OTG_FS_IRQHandler+0xc0a>
C:/Users/86152/Desktop/单车越野/我的/代码调试/Bicycle_Code/libraries/sdk/Peripheral/ch32v30x_usbotg_device.c:875
                break;
    45b6:	0001                	nop
    45b8:	a021                	j	45c0 <OTG_FS_IRQHandler+0xc0c>
C:/Users/86152/Desktop/单车越野/我的/代码调试/Bicycle_Code/libraries/sdk/Peripheral/ch32v30x_usbotg_device.c:878
                break;
    45ba:	0001                	nop
    45bc:	a011                	j	45c0 <OTG_FS_IRQHandler+0xc0c>
C:/Users/86152/Desktop/单车越野/我的/代码调试/Bicycle_Code/libraries/sdk/Peripheral/ch32v30x_usbotg_device.c:871
                break;
    45be:	0001                	nop
C:/Users/86152/Desktop/单车越野/我的/代码调试/Bicycle_Code/libraries/sdk/Peripheral/ch32v30x_usbotg_device.c:882

        }

        USBOTG_FS->INT_FG = USBHD_UIF_TRANSFER;
    45c0:	500007b7          	lui	a5,0x50000
    45c4:	4709                	li	a4,2
    45c6:	00e78323          	sb	a4,6(a5) # 50000006 <_eusrstack+0x2fff0006>
C:/Users/86152/Desktop/单车越野/我的/代码调试/Bicycle_Code/libraries/sdk/Peripheral/ch32v30x_usbotg_device.c:908
    }
    else
    {
        USBOTG_FS->INT_FG = intflag;
    }
}
    45ca:	a079                	j	4658 <OTG_FS_IRQHandler+0xca4>
C:/Users/86152/Desktop/单车越野/我的/代码调试/Bicycle_Code/libraries/sdk/Peripheral/ch32v30x_usbotg_device.c:884
    else if( intflag & USBHD_UIF_BUS_RST )
    45cc:	f9d44783          	lbu	a5,-99(s0)
    45d0:	8b85                	andi	a5,a5,1
    45d2:	cfb9                	beqz	a5,4630 <OTG_FS_IRQHandler+0xc7c>
C:/Users/86152/Desktop/单车越野/我的/代码调试/Bicycle_Code/libraries/sdk/Peripheral/ch32v30x_usbotg_device.c:886
        USBOTG_FS->DEV_ADDR = 0;
    45d4:	500007b7          	lui	a5,0x50000
    45d8:	000781a3          	sb	zero,3(a5) # 50000003 <_eusrstack+0x2fff0003>
C:/Users/86152/Desktop/单车越野/我的/代码调试/Bicycle_Code/libraries/sdk/Peripheral/ch32v30x_usbotg_device.c:888
        USBOTG_FS->UEP0_RX_CTRL = USBHD_UEP_R_RES_ACK;
    45dc:	500007b7          	lui	a5,0x50000
    45e0:	020789a3          	sb	zero,51(a5) # 50000033 <_eusrstack+0x2fff0033>
C:/Users/86152/Desktop/单车越野/我的/代码调试/Bicycle_Code/libraries/sdk/Peripheral/ch32v30x_usbotg_device.c:889
        USBOTG_FS->UEP1_RX_CTRL = USBHD_UEP_R_RES_ACK;
    45e4:	500007b7          	lui	a5,0x50000
    45e8:	02078ba3          	sb	zero,55(a5) # 50000037 <_eusrstack+0x2fff0037>
C:/Users/86152/Desktop/单车越野/我的/代码调试/Bicycle_Code/libraries/sdk/Peripheral/ch32v30x_usbotg_device.c:890
        USBOTG_FS->UEP2_RX_CTRL = USBHD_UEP_R_RES_ACK;
    45ec:	500007b7          	lui	a5,0x50000
    45f0:	02078da3          	sb	zero,59(a5) # 5000003b <_eusrstack+0x2fff003b>
C:/Users/86152/Desktop/单车越野/我的/代码调试/Bicycle_Code/libraries/sdk/Peripheral/ch32v30x_usbotg_device.c:892
        USBOTG_FS->UEP0_TX_CTRL = USBHD_UEP_T_RES_NAK;
    45f4:	500007b7          	lui	a5,0x50000
    45f8:	4709                	li	a4,2
    45fa:	02e78923          	sb	a4,50(a5) # 50000032 <_eusrstack+0x2fff0032>
C:/Users/86152/Desktop/单车越野/我的/代码调试/Bicycle_Code/libraries/sdk/Peripheral/ch32v30x_usbotg_device.c:893
        USBOTG_FS->UEP1_TX_CTRL = USBHD_UEP_T_RES_NAK;
    45fe:	500007b7          	lui	a5,0x50000
    4602:	4709                	li	a4,2
    4604:	02e78b23          	sb	a4,54(a5) # 50000036 <_eusrstack+0x2fff0036>
C:/Users/86152/Desktop/单车越野/我的/代码调试/Bicycle_Code/libraries/sdk/Peripheral/ch32v30x_usbotg_device.c:894
        USBOTG_FS->UEP2_TX_CTRL = USBHD_UEP_T_RES_NAK;
    4608:	500007b7          	lui	a5,0x50000
    460c:	4709                	li	a4,2
    460e:	02e78d23          	sb	a4,58(a5) # 5000003a <_eusrstack+0x2fff003a>
C:/Users/86152/Desktop/单车越野/我的/代码调试/Bicycle_Code/libraries/sdk/Peripheral/ch32v30x_usbotg_device.c:896
        USBOTG_FS->INT_FG |= USBHD_UIF_BUS_RST;
    4612:	500007b7          	lui	a5,0x50000
    4616:	0067c783          	lbu	a5,6(a5) # 50000006 <_eusrstack+0x2fff0006>
    461a:	0ff7f713          	andi	a4,a5,255
    461e:	500007b7          	lui	a5,0x50000
    4622:	00176713          	ori	a4,a4,1
    4626:	0ff77713          	andi	a4,a4,255
    462a:	00e78323          	sb	a4,6(a5) # 50000006 <_eusrstack+0x2fff0006>
C:/Users/86152/Desktop/单车越野/我的/代码调试/Bicycle_Code/libraries/sdk/Peripheral/ch32v30x_usbotg_device.c:908
}
    462e:	a02d                	j	4658 <OTG_FS_IRQHandler+0xca4>
C:/Users/86152/Desktop/单车越野/我的/代码调试/Bicycle_Code/libraries/sdk/Peripheral/ch32v30x_usbotg_device.c:898
    else if( intflag & USBHD_UIF_SUSPEND )
    4630:	f9d44783          	lbu	a5,-99(s0)
    4634:	8b91                	andi	a5,a5,4
    4636:	cb99                	beqz	a5,464c <OTG_FS_IRQHandler+0xc98>
C:/Users/86152/Desktop/单车越野/我的/代码调试/Bicycle_Code/libraries/sdk/Peripheral/ch32v30x_usbotg_device.c:900
        if ( USBOTG_FS->MIS_ST & USBHD_UMS_SUSPEND ) {;}
    4638:	500007b7          	lui	a5,0x50000
    463c:	0057c783          	lbu	a5,5(a5) # 50000005 <_eusrstack+0x2fff0005>
C:/Users/86152/Desktop/单车越野/我的/代码调试/Bicycle_Code/libraries/sdk/Peripheral/ch32v30x_usbotg_device.c:902
        USBOTG_FS->INT_FG = USBHD_UIF_SUSPEND;
    4640:	500007b7          	lui	a5,0x50000
    4644:	4711                	li	a4,4
    4646:	00e78323          	sb	a4,6(a5) # 50000006 <_eusrstack+0x2fff0006>
C:/Users/86152/Desktop/单车越野/我的/代码调试/Bicycle_Code/libraries/sdk/Peripheral/ch32v30x_usbotg_device.c:908
}
    464a:	a039                	j	4658 <OTG_FS_IRQHandler+0xca4>
C:/Users/86152/Desktop/单车越野/我的/代码调试/Bicycle_Code/libraries/sdk/Peripheral/ch32v30x_usbotg_device.c:906
        USBOTG_FS->INT_FG = intflag;
    464c:	500007b7          	lui	a5,0x50000
    4650:	f9d44703          	lbu	a4,-99(s0)
    4654:	00e78323          	sb	a4,6(a5) # 50000006 <_eusrstack+0x2fff0006>
C:/Users/86152/Desktop/单车越野/我的/代码调试/Bicycle_Code/libraries/sdk/Peripheral/ch32v30x_usbotg_device.c:908
}
    4658:	0001                	nop
    465a:	5436                	lw	s0,108(sp)
    465c:	6076                	flw	ft0,92(sp)
    465e:	60e6                	flw	ft1,88(sp)
    4660:	6156                	flw	ft2,84(sp)
    4662:	61c6                	flw	ft3,80(sp)
    4664:	6236                	flw	ft4,76(sp)
    4666:	62a6                	flw	ft5,72(sp)
    4668:	6316                	flw	ft6,68(sp)
    466a:	6386                	flw	ft7,64(sp)
    466c:	7572                	flw	fa0,60(sp)
    466e:	75e2                	flw	fa1,56(sp)
    4670:	7652                	flw	fa2,52(sp)
    4672:	76c2                	flw	fa3,48(sp)
    4674:	7732                	flw	fa4,44(sp)
    4676:	77a2                	flw	fa5,40(sp)
    4678:	7812                	flw	fa6,36(sp)
    467a:	7882                	flw	fa7,32(sp)
    467c:	6e72                	flw	ft8,28(sp)
    467e:	6ee2                	flw	ft9,24(sp)
    4680:	6f52                	flw	ft10,20(sp)
    4682:	6fc2                	flw	ft11,16(sp)
    4684:	6165                	addi	sp,sp,112
    4686:	30200073          	mret

0000468a <__adddf3>:
__adddf3():
    468a:	1101                	addi	sp,sp,-32
    468c:	ce06                	sw	ra,28(sp)
    468e:	cc22                	sw	s0,24(sp)
    4690:	ca26                	sw	s1,20(sp)
    4692:	c84a                	sw	s2,16(sp)
    4694:	c64e                	sw	s3,12(sp)
    4696:	c452                	sw	s4,8(sp)
    4698:	002029f3          	frrm	s3
    469c:	001008b7          	lui	a7,0x100
    46a0:	18fd                	addi	a7,a7,-1
    46a2:	00b8f7b3          	and	a5,a7,a1
    46a6:	0146de13          	srli	t3,a3,0x14
    46aa:	00d8f8b3          	and	a7,a7,a3
    46ae:	0145d413          	srli	s0,a1,0x14
    46b2:	01d65313          	srli	t1,a2,0x1d
    46b6:	078e                	slli	a5,a5,0x3
    46b8:	01d55713          	srli	a4,a0,0x1d
    46bc:	088e                	slli	a7,a7,0x3
    46be:	01f5d913          	srli	s2,a1,0x1f
    46c2:	7ff47413          	andi	s0,s0,2047
    46c6:	7ffe7593          	andi	a1,t3,2047
    46ca:	82fd                	srli	a3,a3,0x1f
    46cc:	011368b3          	or	a7,t1,a7
    46d0:	8f5d                	or	a4,a4,a5
    46d2:	00351813          	slli	a6,a0,0x3
    46d6:	00361e13          	slli	t3,a2,0x3
    46da:	40b40333          	sub	t1,s0,a1
    46de:	1cd90563          	beq	s2,a3,48a8 <__adddf3+0x21e>
    46e2:	16605363          	blez	t1,4848 <__adddf3+0x1be>
    46e6:	20058763          	beqz	a1,48f4 <__adddf3+0x26a>
    46ea:	008006b7          	lui	a3,0x800
    46ee:	7ff00793          	li	a5,2047
    46f2:	00d8e8b3          	or	a7,a7,a3
    46f6:	3ef40063          	beq	s0,a5,4ad6 <__adddf3+0x44c>
    46fa:	03800793          	li	a5,56
    46fe:	3867c863          	blt	a5,t1,4a8e <__adddf3+0x404>
    4702:	47fd                	li	a5,31
    4704:	5267cc63          	blt	a5,t1,4c3c <__adddf3+0x5b2>
    4708:	02000793          	li	a5,32
    470c:	406787b3          	sub	a5,a5,t1
    4710:	00f894b3          	sll	s1,a7,a5
    4714:	006e56b3          	srl	a3,t3,t1
    4718:	00fe17b3          	sll	a5,t3,a5
    471c:	8cd5                	or	s1,s1,a3
    471e:	00f03e33          	snez	t3,a5
    4722:	0068d8b3          	srl	a7,a7,t1
    4726:	01c4e4b3          	or	s1,s1,t3
    472a:	41170733          	sub	a4,a4,a7
    472e:	409804b3          	sub	s1,a6,s1
    4732:	00983833          	sltu	a6,a6,s1
    4736:	41070733          	sub	a4,a4,a6
    473a:	00871793          	slli	a5,a4,0x8
    473e:	2407d863          	bgez	a5,498e <__adddf3+0x304>
    4742:	00971a13          	slli	s4,a4,0x9
    4746:	009a5a13          	srli	s4,s4,0x9
    474a:	300a0a63          	beqz	s4,4a5e <__adddf3+0x3d4>
    474e:	8552                	mv	a0,s4
    4750:	642020ef          	jal	ra,6d92 <__clzsi2>
    4754:	1561                	addi	a0,a0,-8
    4756:	02000793          	li	a5,32
    475a:	8f89                	sub	a5,a5,a0
    475c:	00aa1733          	sll	a4,s4,a0
    4760:	00f4d7b3          	srl	a5,s1,a5
    4764:	8fd9                	or	a5,a5,a4
    4766:	00a49a33          	sll	s4,s1,a0
    476a:	30854763          	blt	a0,s0,4a78 <__adddf3+0x3ee>
    476e:	8d01                	sub	a0,a0,s0
    4770:	00150713          	addi	a4,a0,1
    4774:	46fd                	li	a3,31
    4776:	48e6ce63          	blt	a3,a4,4c12 <__adddf3+0x588>
    477a:	02000693          	li	a3,32
    477e:	8e99                	sub	a3,a3,a4
    4780:	00d794b3          	sll	s1,a5,a3
    4784:	00ea5633          	srl	a2,s4,a4
    4788:	00da16b3          	sll	a3,s4,a3
    478c:	8cd1                	or	s1,s1,a2
    478e:	00d036b3          	snez	a3,a3
    4792:	8cd5                	or	s1,s1,a3
    4794:	00e7d733          	srl	a4,a5,a4
    4798:	00e4e7b3          	or	a5,s1,a4
    479c:	cff5                	beqz	a5,4898 <__adddf3+0x20e>
    479e:	0074f793          	andi	a5,s1,7
    47a2:	00149593          	slli	a1,s1,0x1
    47a6:	00171613          	slli	a2,a4,0x1
    47aa:	01f4d693          	srli	a3,s1,0x1f
    47ae:	0075f513          	andi	a0,a1,7
    47b2:	96b2                	add	a3,a3,a2
    47b4:	4301                	li	t1,0
    47b6:	c911                	beqz	a0,47ca <__adddf3+0x140>
    47b8:	4609                	li	a2,2
    47ba:	60c98363          	beq	s3,a2,4dc0 <__adddf3+0x736>
    47be:	460d                	li	a2,3
    47c0:	4305                	li	t1,1
    47c2:	62c98363          	beq	s3,a2,4de8 <__adddf3+0x75e>
    47c6:	60098663          	beqz	s3,4dd2 <__adddf3+0x748>
    47ca:	01000637          	lui	a2,0x1000
    47ce:	8ef1                	and	a3,a3,a2
    47d0:	0016b613          	seqz	a2,a3
    47d4:	0a0786e3          	beqz	a5,5080 <__adddf3+0x9f6>
    47d8:	4401                	li	s0,0
    47da:	4789                	li	a5,2
    47dc:	24f98e63          	beq	s3,a5,4a38 <__adddf3+0x3ae>
    47e0:	478d                	li	a5,3
    47e2:	4305                	li	t1,1
    47e4:	26f98a63          	beq	s3,a5,4a58 <__adddf3+0x3ce>
    47e8:	22098c63          	beqz	s3,4a20 <__adddf3+0x396>
    47ec:	008007b7          	lui	a5,0x800
    47f0:	8ff9                	and	a5,a5,a4
    47f2:	c219                	beqz	a2,47f8 <__adddf3+0x16e>
    47f4:	00236313          	ori	t1,t1,2
    47f8:	060787e3          	beqz	a5,5066 <__adddf3+0x9dc>
    47fc:	0405                	addi	s0,s0,1
    47fe:	7ff00793          	li	a5,2047
    4802:	1af40863          	beq	s0,a5,49b2 <__adddf3+0x328>
    4806:	ff8007b7          	lui	a5,0xff800
    480a:	17fd                	addi	a5,a5,-1
    480c:	8ff9                	and	a5,a5,a4
    480e:	01d79813          	slli	a6,a5,0x1d
    4812:	808d                	srli	s1,s1,0x3
    4814:	07a6                	slli	a5,a5,0x9
    4816:	00986833          	or	a6,a6,s1
    481a:	83b1                	srli	a5,a5,0xc
    481c:	7ff47413          	andi	s0,s0,2047
    4820:	00c79713          	slli	a4,a5,0xc
    4824:	0452                	slli	s0,s0,0x14
    4826:	8331                	srli	a4,a4,0xc
    4828:	097e                	slli	s2,s2,0x1f
    482a:	8f41                	or	a4,a4,s0
    482c:	01276733          	or	a4,a4,s2
    4830:	8542                	mv	a0,a6
    4832:	85ba                	mv	a1,a4
    4834:	28031563          	bnez	t1,4abe <__adddf3+0x434>
    4838:	40f2                	lw	ra,28(sp)
    483a:	4462                	lw	s0,24(sp)
    483c:	44d2                	lw	s1,20(sp)
    483e:	4942                	lw	s2,16(sp)
    4840:	49b2                	lw	s3,12(sp)
    4842:	4a22                	lw	s4,8(sp)
    4844:	6105                	addi	sp,sp,32
    4846:	8082                	ret
    4848:	0c031463          	bnez	t1,4910 <__adddf3+0x286>
    484c:	00140793          	addi	a5,s0,1
    4850:	7fe7f793          	andi	a5,a5,2046
    4854:	2c079163          	bnez	a5,4b16 <__adddf3+0x48c>
    4858:	01076eb3          	or	t4,a4,a6
    485c:	01c8e7b3          	or	a5,a7,t3
    4860:	5c041463          	bnez	s0,4e28 <__adddf3+0x79e>
    4864:	4e0e8663          	beqz	t4,4d50 <__adddf3+0x6c6>
    4868:	4e078a63          	beqz	a5,4d5c <__adddf3+0x6d2>
    486c:	41c805b3          	sub	a1,a6,t3
    4870:	00b837b3          	sltu	a5,a6,a1
    4874:	41170633          	sub	a2,a4,a7
    4878:	8e1d                	sub	a2,a2,a5
    487a:	00861793          	slli	a5,a2,0x8
    487e:	6e07d863          	bgez	a5,4f6e <__adddf3+0x8e4>
    4882:	410e04b3          	sub	s1,t3,a6
    4886:	009e37b3          	sltu	a5,t3,s1
    488a:	40e88733          	sub	a4,a7,a4
    488e:	8f1d                	sub	a4,a4,a5
    4890:	00e4e7b3          	or	a5,s1,a4
    4894:	8936                	mv	s2,a3
    4896:	f781                	bnez	a5,479e <__adddf3+0x114>
    4898:	4801                	li	a6,0
    489a:	4401                	li	s0,0
    489c:	4301                	li	t1,0
    489e:	07b2                	slli	a5,a5,0xc
    48a0:	83b1                	srli	a5,a5,0xc
    48a2:	7ff47413          	andi	s0,s0,2047
    48a6:	bfad                	j	4820 <__adddf3+0x196>
    48a8:	12605663          	blez	t1,49d4 <__adddf3+0x34a>
    48ac:	c9dd                	beqz	a1,4962 <__adddf3+0x2d8>
    48ae:	008006b7          	lui	a3,0x800
    48b2:	7ff00793          	li	a5,2047
    48b6:	00d8e8b3          	or	a7,a7,a3
    48ba:	20f40e63          	beq	s0,a5,4ad6 <__adddf3+0x44c>
    48be:	03800793          	li	a5,56
    48c2:	3067c663          	blt	a5,t1,4bce <__adddf3+0x544>
    48c6:	47fd                	li	a5,31
    48c8:	3e67da63          	bge	a5,t1,4cbc <__adddf3+0x632>
    48cc:	fe030493          	addi	s1,t1,-32
    48d0:	02000693          	li	a3,32
    48d4:	0098d7b3          	srl	a5,a7,s1
    48d8:	00d30a63          	beq	t1,a3,48ec <__adddf3+0x262>
    48dc:	04000693          	li	a3,64
    48e0:	40668333          	sub	t1,a3,t1
    48e4:	006898b3          	sll	a7,a7,t1
    48e8:	011e6e33          	or	t3,t3,a7
    48ec:	01c034b3          	snez	s1,t3
    48f0:	8cdd                	or	s1,s1,a5
    48f2:	a4d5                	j	4bd6 <__adddf3+0x54c>
    48f4:	01c8e7b3          	or	a5,a7,t3
    48f8:	1a078063          	beqz	a5,4a98 <__adddf3+0x40e>
    48fc:	fff30793          	addi	a5,t1,-1
    4900:	48078363          	beqz	a5,4d86 <__adddf3+0x6fc>
    4904:	7ff00693          	li	a3,2047
    4908:	1cd30763          	beq	t1,a3,4ad6 <__adddf3+0x44c>
    490c:	833e                	mv	t1,a5
    490e:	b3f5                	j	46fa <__adddf3+0x70>
    4910:	408587b3          	sub	a5,a1,s0
    4914:	28041163          	bnez	s0,4b96 <__adddf3+0x50c>
    4918:	01076533          	or	a0,a4,a6
    491c:	c12d                	beqz	a0,497e <__adddf3+0x2f4>
    491e:	fff78513          	addi	a0,a5,-1 # ff7fffff <_eusrstack+0xdf7effff>
    4922:	56050d63          	beqz	a0,4e9c <__adddf3+0x812>
    4926:	7ff00313          	li	t1,2047
    492a:	42678b63          	beq	a5,t1,4d60 <__adddf3+0x6d6>
    492e:	87aa                	mv	a5,a0
    4930:	03800613          	li	a2,56
    4934:	32f64863          	blt	a2,a5,4c64 <__adddf3+0x5da>
    4938:	467d                	li	a2,31
    493a:	52f64d63          	blt	a2,a5,4e74 <__adddf3+0x7ea>
    493e:	02000613          	li	a2,32
    4942:	8e1d                	sub	a2,a2,a5
    4944:	00c714b3          	sll	s1,a4,a2
    4948:	00f85533          	srl	a0,a6,a5
    494c:	00c81633          	sll	a2,a6,a2
    4950:	8cc9                	or	s1,s1,a0
    4952:	00c03633          	snez	a2,a2
    4956:	00f757b3          	srl	a5,a4,a5
    495a:	8cd1                	or	s1,s1,a2
    495c:	40f888b3          	sub	a7,a7,a5
    4960:	a631                	j	4c6c <__adddf3+0x5e2>
    4962:	01c8e7b3          	or	a5,a7,t3
    4966:	12078963          	beqz	a5,4a98 <__adddf3+0x40e>
    496a:	fff30793          	addi	a5,t1,-1
    496e:	36078a63          	beqz	a5,4ce2 <__adddf3+0x658>
    4972:	7ff00693          	li	a3,2047
    4976:	4cd30e63          	beq	t1,a3,4e52 <__adddf3+0x7c8>
    497a:	833e                	mv	t1,a5
    497c:	b789                	j	48be <__adddf3+0x234>
    497e:	7ff00713          	li	a4,2047
    4982:	62e78b63          	beq	a5,a4,4fb8 <__adddf3+0x92e>
    4986:	8746                	mv	a4,a7
    4988:	84f2                	mv	s1,t3
    498a:	843e                	mv	s0,a5
    498c:	8936                	mv	s2,a3
    498e:	00e4e7b3          	or	a5,s1,a4
    4992:	e00405e3          	beqz	s0,479c <__adddf3+0x112>
    4996:	0074f793          	andi	a5,s1,7
    499a:	4601                	li	a2,0
    499c:	e2079fe3          	bnez	a5,47da <__adddf3+0x150>
    49a0:	008007b7          	lui	a5,0x800
    49a4:	8ff9                	and	a5,a5,a4
    49a6:	4301                	li	t1,0
    49a8:	bd81                	j	47f8 <__adddf3+0x16e>
    49aa:	478d                	li	a5,3
    49ac:	0af98063          	beq	s3,a5,4a4c <__adddf3+0x3c2>
    49b0:	4315                	li	t1,5
    49b2:	10098b63          	beqz	s3,4ac8 <__adddf3+0x43e>
    49b6:	478d                	li	a5,3
    49b8:	10f98663          	beq	s3,a5,4ac4 <__adddf3+0x43a>
    49bc:	4789                	li	a5,2
    49be:	34f98d63          	beq	s3,a5,4d18 <__adddf3+0x68e>
    49c2:	00536313          	ori	t1,t1,5
    49c6:	200007b7          	lui	a5,0x20000
    49ca:	587d                	li	a6,-1
    49cc:	17fd                	addi	a5,a5,-1
    49ce:	7fe00413          	li	s0,2046
    49d2:	b5f1                	j	489e <__adddf3+0x214>
    49d4:	16031863          	bnez	t1,4b44 <__adddf3+0x4ba>
    49d8:	00140693          	addi	a3,s0,1
    49dc:	7fe6f793          	andi	a5,a3,2046
    49e0:	40079763          	bnez	a5,4dee <__adddf3+0x764>
    49e4:	010766b3          	or	a3,a4,a6
    49e8:	32041d63          	bnez	s0,4d22 <__adddf3+0x698>
    49ec:	01c8e7b3          	or	a5,a7,t3
    49f0:	4a068f63          	beqz	a3,4eae <__adddf3+0x824>
    49f4:	36078463          	beqz	a5,4d5c <__adddf3+0x6d2>
    49f8:	01c804b3          	add	s1,a6,t3
    49fc:	011707b3          	add	a5,a4,a7
    4a00:	0104b833          	sltu	a6,s1,a6
    4a04:	01078733          	add	a4,a5,a6
    4a08:	00871793          	slli	a5,a4,0x8
    4a0c:	d807d6e3          	bgez	a5,4798 <__adddf3+0x10e>
    4a10:	ff8007b7          	lui	a5,0xff800
    4a14:	17fd                	addi	a5,a5,-1
    4a16:	8f7d                	and	a4,a4,a5
    4a18:	4405                	li	s0,1
    4a1a:	0074f793          	andi	a5,s1,7
    4a1e:	bfb5                	j	499a <__adddf3+0x310>
    4a20:	00f4f793          	andi	a5,s1,15
    4a24:	4691                	li	a3,4
    4a26:	dcd783e3          	beq	a5,a3,47ec <__adddf3+0x162>
    4a2a:	00448793          	addi	a5,s1,4
    4a2e:	0097b4b3          	sltu	s1,a5,s1
    4a32:	9726                	add	a4,a4,s1
    4a34:	84be                	mv	s1,a5
    4a36:	bb5d                	j	47ec <__adddf3+0x162>
    4a38:	4305                	li	t1,1
    4a3a:	da0909e3          	beqz	s2,47ec <__adddf3+0x162>
    4a3e:	00848793          	addi	a5,s1,8
    4a42:	0097b4b3          	sltu	s1,a5,s1
    4a46:	9726                	add	a4,a4,s1
    4a48:	84be                	mv	s1,a5
    4a4a:	b34d                	j	47ec <__adddf3+0x162>
    4a4c:	577d                	li	a4,-1
    4a4e:	54fd                	li	s1,-1
    4a50:	7fe00413          	li	s0,2046
    4a54:	4601                	li	a2,0
    4a56:	4315                	li	t1,5
    4a58:	fe0903e3          	beqz	s2,4a3e <__adddf3+0x3b4>
    4a5c:	bb41                	j	47ec <__adddf3+0x162>
    4a5e:	8526                	mv	a0,s1
    4a60:	332020ef          	jal	ra,6d92 <__clzsi2>
    4a64:	ff850793          	addi	a5,a0,-8
    4a68:	477d                	li	a4,31
    4a6a:	0561                	addi	a0,a0,24
    4a6c:	00f497b3          	sll	a5,s1,a5
    4a70:	cea753e3          	bge	a4,a0,4756 <__adddf3+0xcc>
    4a74:	ce855de3          	bge	a0,s0,476e <__adddf3+0xe4>
    4a78:	ff800737          	lui	a4,0xff800
    4a7c:	177d                	addi	a4,a4,-1
    4a7e:	8f7d                	and	a4,a4,a5
    4a80:	84d2                	mv	s1,s4
    4a82:	8c09                	sub	s0,s0,a0
    4a84:	00e4e7b3          	or	a5,s1,a4
    4a88:	d0040ae3          	beqz	s0,479c <__adddf3+0x112>
    4a8c:	b729                	j	4996 <__adddf3+0x30c>
    4a8e:	01c8e8b3          	or	a7,a7,t3
    4a92:	011034b3          	snez	s1,a7
    4a96:	b961                	j	472e <__adddf3+0xa4>
    4a98:	7ff00793          	li	a5,2047
    4a9c:	30f30363          	beq	t1,a5,4da2 <__adddf3+0x718>
    4aa0:	008007b7          	lui	a5,0x800
    4aa4:	841a                	mv	s0,t1
    4aa6:	8ff9                	and	a5,a5,a4
    4aa8:	84c2                	mv	s1,a6
    4aaa:	4301                	li	t1,0
    4aac:	b3b1                	j	47f8 <__adddf3+0x16e>
    4aae:	46858863          	beq	a1,s0,4f1e <__adddf3+0x894>
    4ab2:	46079f63          	bnez	a5,4f30 <__adddf3+0x8a6>
    4ab6:	4501                	li	a0,0
    4ab8:	7ff805b7          	lui	a1,0x7ff80
    4abc:	4341                	li	t1,16
    4abe:	00132073          	csrs	fflags,t1
    4ac2:	bb9d                	j	4838 <__adddf3+0x1ae>
    4ac4:	ee091fe3          	bnez	s2,49c2 <__adddf3+0x338>
    4ac8:	00536313          	ori	t1,t1,5
    4acc:	7ff00413          	li	s0,2047
    4ad0:	4781                	li	a5,0
    4ad2:	4801                	li	a6,0
    4ad4:	b3b1                	j	4820 <__adddf3+0x196>
    4ad6:	01076833          	or	a6,a4,a6
    4ada:	02080c63          	beqz	a6,4b12 <__adddf3+0x488>
    4ade:	00400337          	lui	t1,0x400
    4ae2:	050e                	slli	a0,a0,0x3
    4ae4:	00677333          	and	t1,a4,t1
    4ae8:	01d71813          	slli	a6,a4,0x1d
    4aec:	810d                	srli	a0,a0,0x3
    4aee:	00133313          	seqz	t1,t1
    4af2:	00a86833          	or	a6,a6,a0
    4af6:	00375793          	srli	a5,a4,0x3
    4afa:	0312                	slli	t1,t1,0x4
    4afc:	0107e7b3          	or	a5,a5,a6
    4b00:	d7f1                	beqz	a5,4acc <__adddf3+0x442>
    4b02:	4901                	li	s2,0
    4b04:	7ff00413          	li	s0,2047
    4b08:	000807b7          	lui	a5,0x80
    4b0c:	4801                	li	a6,0
    4b0e:	bb09                	j	4820 <__adddf3+0x196>
    4b10:	8936                	mv	s2,a3
    4b12:	4301                	li	t1,0
    4b14:	bf65                	j	4acc <__adddf3+0x442>
    4b16:	41c804b3          	sub	s1,a6,t3
    4b1a:	009837b3          	sltu	a5,a6,s1
    4b1e:	41170a33          	sub	s4,a4,a7
    4b22:	40fa0a33          	sub	s4,s4,a5
    4b26:	008a1793          	slli	a5,s4,0x8
    4b2a:	2e07c563          	bltz	a5,4e14 <__adddf3+0x78a>
    4b2e:	0144e7b3          	or	a5,s1,s4
    4b32:	c0079ce3          	bnez	a5,474a <__adddf3+0xc0>
    4b36:	ffe98913          	addi	s2,s3,-2
    4b3a:	00193913          	seqz	s2,s2
    4b3e:	4801                	li	a6,0
    4b40:	4401                	li	s0,0
    4b42:	bbb1                	j	489e <__adddf3+0x214>
    4b44:	408587b3          	sub	a5,a1,s0
    4b48:	12040b63          	beqz	s0,4c7e <__adddf3+0x5f4>
    4b4c:	00800537          	lui	a0,0x800
    4b50:	7ff00693          	li	a3,2047
    4b54:	8f49                	or	a4,a4,a0
    4b56:	34d58f63          	beq	a1,a3,4eb4 <__adddf3+0x82a>
    4b5a:	03800693          	li	a3,56
    4b5e:	30f6c663          	blt	a3,a5,4e6a <__adddf3+0x7e0>
    4b62:	46fd                	li	a3,31
    4b64:	40f6cf63          	blt	a3,a5,4f82 <__adddf3+0x8f8>
    4b68:	02000693          	li	a3,32
    4b6c:	8e9d                	sub	a3,a3,a5
    4b6e:	00d714b3          	sll	s1,a4,a3
    4b72:	00f85633          	srl	a2,a6,a5
    4b76:	00d816b3          	sll	a3,a6,a3
    4b7a:	8cd1                	or	s1,s1,a2
    4b7c:	00d036b3          	snez	a3,a3
    4b80:	00f757b3          	srl	a5,a4,a5
    4b84:	8cd5                	or	s1,s1,a3
    4b86:	98be                	add	a7,a7,a5
    4b88:	94f2                	add	s1,s1,t3
    4b8a:	01c4b7b3          	sltu	a5,s1,t3
    4b8e:	01178733          	add	a4,a5,a7
    4b92:	842e                	mv	s0,a1
    4b94:	a0a9                	j	4bde <__adddf3+0x554>
    4b96:	00800337          	lui	t1,0x800
    4b9a:	7ff00513          	li	a0,2047
    4b9e:	00676733          	or	a4,a4,t1
    4ba2:	d8a597e3          	bne	a1,a0,4930 <__adddf3+0x2a6>
    4ba6:	01c8e7b3          	or	a5,a7,t3
    4baa:	d3bd                	beqz	a5,4b10 <__adddf3+0x486>
    4bac:	00361813          	slli	a6,a2,0x3
    4bb0:	01d89793          	slli	a5,a7,0x1d
    4bb4:	00385813          	srli	a6,a6,0x3
    4bb8:	00989713          	slli	a4,a7,0x9
    4bbc:	00f86833          	or	a6,a6,a5
    4bc0:	8936                	mv	s2,a3
    4bc2:	0038d793          	srli	a5,a7,0x3
    4bc6:	1a074e63          	bltz	a4,4d82 <__adddf3+0x6f8>
    4bca:	4341                	li	t1,16
    4bcc:	bf05                	j	4afc <__adddf3+0x472>
    4bce:	01c8e8b3          	or	a7,a7,t3
    4bd2:	011034b3          	snez	s1,a7
    4bd6:	94c2                	add	s1,s1,a6
    4bd8:	0104b833          	sltu	a6,s1,a6
    4bdc:	9742                	add	a4,a4,a6
    4bde:	00871793          	slli	a5,a4,0x8
    4be2:	da07d6e3          	bgez	a5,498e <__adddf3+0x304>
    4be6:	0405                	addi	s0,s0,1
    4be8:	7ff00793          	li	a5,2047
    4bec:	0af40763          	beq	s0,a5,4c9a <__adddf3+0x610>
    4bf0:	ff8007b7          	lui	a5,0xff800
    4bf4:	17fd                	addi	a5,a5,-1
    4bf6:	8ff9                	and	a5,a5,a4
    4bf8:	0014d713          	srli	a4,s1,0x1
    4bfc:	8885                	andi	s1,s1,1
    4bfe:	8cd9                	or	s1,s1,a4
    4c00:	01f79813          	slli	a6,a5,0x1f
    4c04:	009864b3          	or	s1,a6,s1
    4c08:	0017d713          	srli	a4,a5,0x1
    4c0c:	0074f793          	andi	a5,s1,7
    4c10:	b369                	j	499a <__adddf3+0x310>
    4c12:	1505                	addi	a0,a0,-31
    4c14:	02000693          	li	a3,32
    4c18:	00a7d533          	srl	a0,a5,a0
    4c1c:	00d70a63          	beq	a4,a3,4c30 <__adddf3+0x5a6>
    4c20:	04000693          	li	a3,64
    4c24:	40e68733          	sub	a4,a3,a4
    4c28:	00e797b3          	sll	a5,a5,a4
    4c2c:	00fa6a33          	or	s4,s4,a5
    4c30:	014037b3          	snez	a5,s4
    4c34:	8fc9                	or	a5,a5,a0
    4c36:	84be                	mv	s1,a5
    4c38:	4701                	li	a4,0
    4c3a:	b68d                	j	479c <__adddf3+0x112>
    4c3c:	fe030493          	addi	s1,t1,-32 # 7fffe0 <_data_lma+0x7f538c>
    4c40:	02000693          	li	a3,32
    4c44:	0098d7b3          	srl	a5,a7,s1
    4c48:	00d30a63          	beq	t1,a3,4c5c <__adddf3+0x5d2>
    4c4c:	04000693          	li	a3,64
    4c50:	40668333          	sub	t1,a3,t1
    4c54:	006898b3          	sll	a7,a7,t1
    4c58:	011e6e33          	or	t3,t3,a7
    4c5c:	01c034b3          	snez	s1,t3
    4c60:	8cdd                	or	s1,s1,a5
    4c62:	b4f1                	j	472e <__adddf3+0xa4>
    4c64:	010764b3          	or	s1,a4,a6
    4c68:	009034b3          	snez	s1,s1
    4c6c:	409e04b3          	sub	s1,t3,s1
    4c70:	009e37b3          	sltu	a5,t3,s1
    4c74:	40f88733          	sub	a4,a7,a5
    4c78:	842e                	mv	s0,a1
    4c7a:	8936                	mv	s2,a3
    4c7c:	bc7d                	j	473a <__adddf3+0xb0>
    4c7e:	010766b3          	or	a3,a4,a6
    4c82:	24068d63          	beqz	a3,4edc <__adddf3+0x852>
    4c86:	fff78693          	addi	a3,a5,-1 # ff7fffff <_eusrstack+0xdf7effff>
    4c8a:	32068063          	beqz	a3,4faa <__adddf3+0x920>
    4c8e:	7ff00513          	li	a0,2047
    4c92:	22a78163          	beq	a5,a0,4eb4 <__adddf3+0x82a>
    4c96:	87b6                	mv	a5,a3
    4c98:	b5c9                	j	4b5a <__adddf3+0x4d0>
    4c9a:	1a098a63          	beqz	s3,4e4e <__adddf3+0x7c4>
    4c9e:	478d                	li	a5,3
    4ca0:	38f98c63          	beq	s3,a5,5038 <__adddf3+0x9ae>
    4ca4:	4789                	li	a5,2
    4ca6:	38f98063          	beq	s3,a5,5026 <__adddf3+0x99c>
    4caa:	d00990e3          	bnez	s3,49aa <__adddf3+0x320>
    4cae:	4601                	li	a2,0
    4cb0:	54fd                	li	s1,-1
    4cb2:	4315                	li	t1,5
    4cb4:	7fe00413          	li	s0,2046
    4cb8:	577d                	li	a4,-1
    4cba:	bb85                	j	4a2a <__adddf3+0x3a0>
    4cbc:	02000793          	li	a5,32
    4cc0:	406787b3          	sub	a5,a5,t1
    4cc4:	00f894b3          	sll	s1,a7,a5
    4cc8:	006e56b3          	srl	a3,t3,t1
    4ccc:	00fe17b3          	sll	a5,t3,a5
    4cd0:	8cd5                	or	s1,s1,a3
    4cd2:	00f03e33          	snez	t3,a5
    4cd6:	0068d8b3          	srl	a7,a7,t1
    4cda:	01c4e4b3          	or	s1,s1,t3
    4cde:	9746                	add	a4,a4,a7
    4ce0:	bddd                	j	4bd6 <__adddf3+0x54c>
    4ce2:	01c804b3          	add	s1,a6,t3
    4ce6:	011707b3          	add	a5,a4,a7
    4cea:	0104b833          	sltu	a6,s1,a6
    4cee:	01078733          	add	a4,a5,a6
    4cf2:	00871793          	slli	a5,a4,0x8
    4cf6:	4405                	li	s0,1
    4cf8:	c807dfe3          	bgez	a5,4996 <__adddf3+0x30c>
    4cfc:	ff8007b7          	lui	a5,0xff800
    4d00:	17fd                	addi	a5,a5,-1
    4d02:	8ff9                	and	a5,a5,a4
    4d04:	01f79713          	slli	a4,a5,0x1f
    4d08:	8085                	srli	s1,s1,0x1
    4d0a:	8cd9                	or	s1,s1,a4
    4d0c:	4409                	li	s0,2
    4d0e:	0017d713          	srli	a4,a5,0x1
    4d12:	0074f793          	andi	a5,s1,7
    4d16:	b151                	j	499a <__adddf3+0x310>
    4d18:	00536313          	ori	t1,t1,5
    4d1c:	ca0905e3          	beqz	s2,49c6 <__adddf3+0x33c>
    4d20:	b375                	j	4acc <__adddf3+0x442>
    4d22:	7ff00793          	li	a5,2047
    4d26:	2cf40263          	beq	s0,a5,4fea <__adddf3+0x960>
    4d2a:	2ef58463          	beq	a1,a5,5012 <__adddf3+0x988>
    4d2e:	22068563          	beqz	a3,4f58 <__adddf3+0x8ce>
    4d32:	01c8e8b3          	or	a7,a7,t3
    4d36:	dc0896e3          	bnez	a7,4b02 <__adddf3+0x478>
    4d3a:	00351813          	slli	a6,a0,0x3
    4d3e:	01d71793          	slli	a5,a4,0x1d
    4d42:	00385813          	srli	a6,a6,0x3
    4d46:	00f86833          	or	a6,a6,a5
    4d4a:	00375793          	srli	a5,a4,0x3
    4d4e:	b37d                	j	4afc <__adddf3+0x472>
    4d50:	de0783e3          	beqz	a5,4b36 <__adddf3+0x4ac>
    4d54:	4781                	li	a5,0
    4d56:	8746                	mv	a4,a7
    4d58:	8872                	mv	a6,t3
    4d5a:	8936                	mv	s2,a3
    4d5c:	84c2                	mv	s1,a6
    4d5e:	b491                	j	47a2 <__adddf3+0x118>
    4d60:	01c8e7b3          	or	a5,a7,t3
    4d64:	da0786e3          	beqz	a5,4b10 <__adddf3+0x486>
    4d68:	060e                	slli	a2,a2,0x3
    4d6a:	01d89813          	slli	a6,a7,0x1d
    4d6e:	820d                	srli	a2,a2,0x3
    4d70:	00989713          	slli	a4,a7,0x9
    4d74:	00c86833          	or	a6,a6,a2
    4d78:	0038d793          	srli	a5,a7,0x3
    4d7c:	8936                	mv	s2,a3
    4d7e:	e40756e3          	bgez	a4,4bca <__adddf3+0x540>
    4d82:	4301                	li	t1,0
    4d84:	bba5                	j	4afc <__adddf3+0x472>
    4d86:	41c804b3          	sub	s1,a6,t3
    4d8a:	411707b3          	sub	a5,a4,a7
    4d8e:	00983833          	sltu	a6,a6,s1
    4d92:	41078733          	sub	a4,a5,a6
    4d96:	00871793          	slli	a5,a4,0x8
    4d9a:	4405                	li	s0,1
    4d9c:	9a07c3e3          	bltz	a5,4742 <__adddf3+0xb8>
    4da0:	bedd                	j	4996 <__adddf3+0x30c>
    4da2:	010767b3          	or	a5,a4,a6
    4da6:	ebd5                	bnez	a5,4e5a <__adddf3+0x7d0>
    4da8:	4701                	li	a4,0
    4daa:	4801                	li	a6,0
    4dac:	4301                	li	t1,0
    4dae:	01d71793          	slli	a5,a4,0x1d
    4db2:	00385813          	srli	a6,a6,0x3
    4db6:	00f86833          	or	a6,a6,a5
    4dba:	00375793          	srli	a5,a4,0x3
    4dbe:	bb3d                	j	4afc <__adddf3+0x472>
    4dc0:	4305                	li	t1,1
    4dc2:	a00904e3          	beqz	s2,47ca <__adddf3+0x140>
    4dc6:	ff85b613          	sltiu	a2,a1,-8
    4dca:	00164613          	xori	a2,a2,1
    4dce:	96b2                	add	a3,a3,a2
    4dd0:	baed                	j	47ca <__adddf3+0x140>
    4dd2:	00f5f613          	andi	a2,a1,15
    4dd6:	4511                	li	a0,4
    4dd8:	9ea609e3          	beq	a2,a0,47ca <__adddf3+0x140>
    4ddc:	ffc5b593          	sltiu	a1,a1,-4
    4de0:	0015c593          	xori	a1,a1,1
    4de4:	96ae                	add	a3,a3,a1
    4de6:	b2d5                	j	47ca <__adddf3+0x140>
    4de8:	9e0911e3          	bnez	s2,47ca <__adddf3+0x140>
    4dec:	bfe9                	j	4dc6 <__adddf3+0x73c>
    4dee:	7ff00793          	li	a5,2047
    4df2:	0ef68d63          	beq	a3,a5,4eec <__adddf3+0x862>
    4df6:	01c807b3          	add	a5,a6,t3
    4dfa:	0107b833          	sltu	a6,a5,a6
    4dfe:	9746                	add	a4,a4,a7
    4e00:	9742                	add	a4,a4,a6
    4e02:	01f71493          	slli	s1,a4,0x1f
    4e06:	8385                	srli	a5,a5,0x1
    4e08:	8cdd                	or	s1,s1,a5
    4e0a:	8305                	srli	a4,a4,0x1
    4e0c:	0074f793          	andi	a5,s1,7
    4e10:	8436                	mv	s0,a3
    4e12:	b661                	j	499a <__adddf3+0x310>
    4e14:	410e04b3          	sub	s1,t3,a6
    4e18:	40e888b3          	sub	a7,a7,a4
    4e1c:	009e37b3          	sltu	a5,t3,s1
    4e20:	40f88a33          	sub	s4,a7,a5
    4e24:	8936                	mv	s2,a3
    4e26:	b215                	j	474a <__adddf3+0xc0>
    4e28:	7ff00813          	li	a6,2047
    4e2c:	0d040e63          	beq	s0,a6,4f08 <__adddf3+0x87e>
    4e30:	0f058763          	beq	a1,a6,4f1e <__adddf3+0x894>
    4e34:	c60e8fe3          	beqz	t4,4ab2 <__adddf3+0x428>
    4e38:	cc0795e3          	bnez	a5,4b02 <__adddf3+0x478>
    4e3c:	050e                	slli	a0,a0,0x3
    4e3e:	01d71813          	slli	a6,a4,0x1d
    4e42:	810d                	srli	a0,a0,0x3
    4e44:	00a86833          	or	a6,a6,a0
    4e48:	00375793          	srli	a5,a4,0x3
    4e4c:	b945                	j	4afc <__adddf3+0x472>
    4e4e:	4315                	li	t1,5
    4e50:	b9b5                	j	4acc <__adddf3+0x442>
    4e52:	010767b3          	or	a5,a4,a6
    4e56:	ca078ee3          	beqz	a5,4b12 <__adddf3+0x488>
    4e5a:	00400337          	lui	t1,0x400
    4e5e:	00677333          	and	t1,a4,t1
    4e62:	00133313          	seqz	t1,t1
    4e66:	0312                	slli	t1,t1,0x4
    4e68:	b799                	j	4dae <__adddf3+0x724>
    4e6a:	010764b3          	or	s1,a4,a6
    4e6e:	009034b3          	snez	s1,s1
    4e72:	bb19                	j	4b88 <__adddf3+0x4fe>
    4e74:	fe078613          	addi	a2,a5,-32 # ff7fffe0 <_eusrstack+0xdf7effe0>
    4e78:	02000513          	li	a0,32
    4e7c:	00c75633          	srl	a2,a4,a2
    4e80:	00a78a63          	beq	a5,a0,4e94 <__adddf3+0x80a>
    4e84:	04000513          	li	a0,64
    4e88:	40f507b3          	sub	a5,a0,a5
    4e8c:	00f717b3          	sll	a5,a4,a5
    4e90:	00f86833          	or	a6,a6,a5
    4e94:	010034b3          	snez	s1,a6
    4e98:	8cd1                	or	s1,s1,a2
    4e9a:	bbc9                	j	4c6c <__adddf3+0x5e2>
    4e9c:	410e04b3          	sub	s1,t3,a6
    4ea0:	40e88733          	sub	a4,a7,a4
    4ea4:	009e37b3          	sltu	a5,t3,s1
    4ea8:	8f1d                	sub	a4,a4,a5
    4eaa:	8936                	mv	s2,a3
    4eac:	b5ed                	j	4d96 <__adddf3+0x70c>
    4eae:	8746                	mv	a4,a7
    4eb0:	84f2                	mv	s1,t3
    4eb2:	b0ed                	j	479c <__adddf3+0x112>
    4eb4:	01c8e7b3          	or	a5,a7,t3
    4eb8:	c4078de3          	beqz	a5,4b12 <__adddf3+0x488>
    4ebc:	00400337          	lui	t1,0x400
    4ec0:	060e                	slli	a2,a2,0x3
    4ec2:	0068f333          	and	t1,a7,t1
    4ec6:	01d89813          	slli	a6,a7,0x1d
    4eca:	820d                	srli	a2,a2,0x3
    4ecc:	00133313          	seqz	t1,t1
    4ed0:	00c86833          	or	a6,a6,a2
    4ed4:	0038d793          	srli	a5,a7,0x3
    4ed8:	0312                	slli	t1,t1,0x4
    4eda:	b10d                	j	4afc <__adddf3+0x472>
    4edc:	7ff00713          	li	a4,2047
    4ee0:	0ee78963          	beq	a5,a4,4fd2 <__adddf3+0x948>
    4ee4:	8746                	mv	a4,a7
    4ee6:	84f2                	mv	s1,t3
    4ee8:	843e                	mv	s0,a5
    4eea:	b455                	j	498e <__adddf3+0x304>
    4eec:	f60981e3          	beqz	s3,4e4e <__adddf3+0x7c4>
    4ef0:	478d                	li	a5,3
    4ef2:	daf999e3          	bne	s3,a5,4ca4 <__adddf3+0x61a>
    4ef6:	f4090ce3          	beqz	s2,4e4e <__adddf3+0x7c4>
    4efa:	4601                	li	a2,0
    4efc:	7fe00413          	li	s0,2046
    4f00:	4315                	li	t1,5
    4f02:	577d                	li	a4,-1
    4f04:	54fd                	li	s1,-1
    4f06:	b0dd                	j	47ec <__adddf3+0x162>
    4f08:	ba0e83e3          	beqz	t4,4aae <__adddf3+0x424>
    4f0c:	00971413          	slli	s0,a4,0x9
    4f10:	00044363          	bltz	s0,4f16 <__adddf3+0x88c>
    4f14:	4341                	li	t1,16
    4f16:	7ff00813          	li	a6,2047
    4f1a:	f1059fe3          	bne	a1,a6,4e38 <__adddf3+0x7ae>
    4f1e:	12078763          	beqz	a5,504c <__adddf3+0x9c2>
    4f22:	00989793          	slli	a5,a7,0x9
    4f26:	0007c363          	bltz	a5,4f2c <__adddf3+0x8a2>
    4f2a:	4341                	li	t1,16
    4f2c:	bc0e9be3          	bnez	t4,4b02 <__adddf3+0x478>
    4f30:	060e                	slli	a2,a2,0x3
    4f32:	01d89813          	slli	a6,a7,0x1d
    4f36:	820d                	srli	a2,a2,0x3
    4f38:	00c86833          	or	a6,a6,a2
    4f3c:	0038d793          	srli	a5,a7,0x3
    4f40:	8936                	mv	s2,a3
    4f42:	be6d                	j	4afc <__adddf3+0x472>
    4f44:	00859a63          	bne	a1,s0,4f58 <__adddf3+0x8ce>
    4f48:	01c8e7b3          	or	a5,a7,t3
    4f4c:	c791                	beqz	a5,4f58 <__adddf3+0x8ce>
    4f4e:	00989793          	slli	a5,a7,0x9
    4f52:	0007c363          	bltz	a5,4f58 <__adddf3+0x8ce>
    4f56:	4341                	li	t1,16
    4f58:	00361813          	slli	a6,a2,0x3
    4f5c:	01d89793          	slli	a5,a7,0x1d
    4f60:	00385813          	srli	a6,a6,0x3
    4f64:	00f86833          	or	a6,a6,a5
    4f68:	0038d793          	srli	a5,a7,0x3
    4f6c:	be41                	j	4afc <__adddf3+0x472>
    4f6e:	00c5e7b3          	or	a5,a1,a2
    4f72:	bc0782e3          	beqz	a5,4b36 <__adddf3+0x4ac>
    4f76:	882e                	mv	a6,a1
    4f78:	0075f793          	andi	a5,a1,7
    4f7c:	8732                	mv	a4,a2
    4f7e:	84c2                	mv	s1,a6
    4f80:	b00d                	j	47a2 <__adddf3+0x118>
    4f82:	fe078693          	addi	a3,a5,-32
    4f86:	02000613          	li	a2,32
    4f8a:	00d756b3          	srl	a3,a4,a3
    4f8e:	00c78a63          	beq	a5,a2,4fa2 <__adddf3+0x918>
    4f92:	04000613          	li	a2,64
    4f96:	40f607b3          	sub	a5,a2,a5
    4f9a:	00f717b3          	sll	a5,a4,a5
    4f9e:	00f86833          	or	a6,a6,a5
    4fa2:	010034b3          	snez	s1,a6
    4fa6:	8cd5                	or	s1,s1,a3
    4fa8:	b6c5                	j	4b88 <__adddf3+0x4fe>
    4faa:	01c804b3          	add	s1,a6,t3
    4fae:	9746                	add	a4,a4,a7
    4fb0:	01c4b7b3          	sltu	a5,s1,t3
    4fb4:	973e                	add	a4,a4,a5
    4fb6:	bb35                	j	4cf2 <__adddf3+0x668>
    4fb8:	01c8e833          	or	a6,a7,t3
    4fbc:	08080b63          	beqz	a6,5052 <__adddf3+0x9c8>
    4fc0:	00989793          	slli	a5,a7,0x9
    4fc4:	8746                	mv	a4,a7
    4fc6:	8872                	mv	a6,t3
    4fc8:	8936                	mv	s2,a3
    4fca:	0007ce63          	bltz	a5,4fe6 <__adddf3+0x95c>
    4fce:	4341                	li	t1,16
    4fd0:	bbf9                	j	4dae <__adddf3+0x724>
    4fd2:	01c8e833          	or	a6,a7,t3
    4fd6:	08080563          	beqz	a6,5060 <__adddf3+0x9d6>
    4fda:	00989793          	slli	a5,a7,0x9
    4fde:	8746                	mv	a4,a7
    4fe0:	8872                	mv	a6,t3
    4fe2:	fe07d6e3          	bgez	a5,4fce <__adddf3+0x944>
    4fe6:	4301                	li	t1,0
    4fe8:	b3d9                	j	4dae <__adddf3+0x724>
    4fea:	dea9                	beqz	a3,4f44 <__adddf3+0x8ba>
    4fec:	00971793          	slli	a5,a4,0x9
    4ff0:	0007c363          	bltz	a5,4ff6 <__adddf3+0x96c>
    4ff4:	4341                	li	t1,16
    4ff6:	7ff00793          	li	a5,2047
    4ffa:	d2f59ce3          	bne	a1,a5,4d32 <__adddf3+0x6a8>
    4ffe:	01c8e7b3          	or	a5,a7,t3
    5002:	d2078ce3          	beqz	a5,4d3a <__adddf3+0x6b0>
    5006:	00989793          	slli	a5,a7,0x9
    500a:	0007dc63          	bgez	a5,5022 <__adddf3+0x998>
    500e:	d6a9                	beqz	a3,4f58 <__adddf3+0x8ce>
    5010:	bccd                	j	4b02 <__adddf3+0x478>
    5012:	01c8e7b3          	or	a5,a7,t3
    5016:	c3b1                	beqz	a5,505a <__adddf3+0x9d0>
    5018:	00989793          	slli	a5,a7,0x9
    501c:	fe07c9e3          	bltz	a5,500e <__adddf3+0x984>
    5020:	da9d                	beqz	a3,4f56 <__adddf3+0x8cc>
    5022:	4341                	li	t1,16
    5024:	bcf9                	j	4b02 <__adddf3+0x478>
    5026:	e20914e3          	bnez	s2,4e4e <__adddf3+0x7c4>
    502a:	7fe00413          	li	s0,2046
    502e:	577d                	li	a4,-1
    5030:	54fd                	li	s1,-1
    5032:	4315                	li	t1,5
    5034:	fc8ff06f          	j	47fc <__adddf3+0x172>
    5038:	e0090be3          	beqz	s2,4e4e <__adddf3+0x7c4>
    503c:	7fe00413          	li	s0,2046
    5040:	4601                	li	a2,0
    5042:	4315                	li	t1,5
    5044:	577d                	li	a4,-1
    5046:	54fd                	li	s1,-1
    5048:	fa4ff06f          	j	47ec <__adddf3+0x162>
    504c:	a60e85e3          	beqz	t4,4ab6 <__adddf3+0x42c>
    5050:	b3f5                	j	4e3c <__adddf3+0x7b2>
    5052:	4701                	li	a4,0
    5054:	8936                	mv	s2,a3
    5056:	4301                	li	t1,0
    5058:	bb99                	j	4dae <__adddf3+0x724>
    505a:	ee068fe3          	beqz	a3,4f58 <__adddf3+0x8ce>
    505e:	b9f1                	j	4d3a <__adddf3+0x6b0>
    5060:	4701                	li	a4,0
    5062:	4301                	li	t1,0
    5064:	b3a9                	j	4dae <__adddf3+0x724>
    5066:	01d71693          	slli	a3,a4,0x1d
    506a:	0034d813          	srli	a6,s1,0x3
    506e:	7ff00613          	li	a2,2047
    5072:	0106e833          	or	a6,a3,a6
    5076:	00375793          	srli	a5,a4,0x3
    507a:	a8c401e3          	beq	s0,a2,4afc <__adddf3+0x472>
    507e:	b005                	j	489e <__adddf3+0x214>
    5080:	008007b7          	lui	a5,0x800
    5084:	8ff9                	and	a5,a5,a4
    5086:	4401                	li	s0,0
    5088:	f6069863          	bnez	a3,47f8 <__adddf3+0x16e>
    508c:	f6030663          	beqz	t1,47f8 <__adddf3+0x16e>
    5090:	00236313          	ori	t1,t1,2
    5094:	f64ff06f          	j	47f8 <__adddf3+0x16e>

00005098 <__divdf3>:
__divdf3():
    5098:	7139                	addi	sp,sp,-64
    509a:	da26                	sw	s1,52(sp)
    509c:	de06                	sw	ra,60(sp)
    509e:	dc22                	sw	s0,56(sp)
    50a0:	d84a                	sw	s2,48(sp)
    50a2:	d64e                	sw	s3,44(sp)
    50a4:	d452                	sw	s4,40(sp)
    50a6:	d256                	sw	s5,36(sp)
    50a8:	d05a                	sw	s6,32(sp)
    50aa:	ce5e                	sw	s7,28(sp)
    50ac:	cc62                	sw	s8,24(sp)
    50ae:	ca66                	sw	s9,20(sp)
    50b0:	84aa                	mv	s1,a0
    50b2:	00202b73          	frrm	s6
    50b6:	0145d513          	srli	a0,a1,0x14
    50ba:	00c59413          	slli	s0,a1,0xc
    50be:	7ff57513          	andi	a0,a0,2047
    50c2:	8031                	srli	s0,s0,0xc
    50c4:	01f5da13          	srli	s4,a1,0x1f
    50c8:	c979                	beqz	a0,519e <__divdf3+0x106>
    50ca:	7ff00793          	li	a5,2047
    50ce:	10f50d63          	beq	a0,a5,51e8 <__divdf3+0x150>
    50d2:	01d4db93          	srli	s7,s1,0x1d
    50d6:	040e                	slli	s0,s0,0x3
    50d8:	008be433          	or	s0,s7,s0
    50dc:	00800bb7          	lui	s7,0x800
    50e0:	00349c13          	slli	s8,s1,0x3
    50e4:	01746bb3          	or	s7,s0,s7
    50e8:	c0150993          	addi	s3,a0,-1023 # 7ffc01 <_data_lma+0x7f4fad>
    50ec:	4481                	li	s1,0
    50ee:	4c81                	li	s9,0
    50f0:	4901                	li	s2,0
    50f2:	0146d793          	srli	a5,a3,0x14
    50f6:	00c69413          	slli	s0,a3,0xc
    50fa:	7ff7f793          	andi	a5,a5,2047
    50fe:	85b2                	mv	a1,a2
    5100:	8031                	srli	s0,s0,0xc
    5102:	01f6da93          	srli	s5,a3,0x1f
    5106:	c3a5                	beqz	a5,5166 <__divdf3+0xce>
    5108:	7ff00713          	li	a4,2047
    510c:	04e78063          	beq	a5,a4,514c <__divdf3+0xb4>
    5110:	00341513          	slli	a0,s0,0x3
    5114:	01d65413          	srli	s0,a2,0x1d
    5118:	8c49                	or	s0,s0,a0
    511a:	c0178793          	addi	a5,a5,-1023 # 7ffc01 <_data_lma+0x7f4fad>
    511e:	00800537          	lui	a0,0x800
    5122:	00361593          	slli	a1,a2,0x3
    5126:	8c49                	or	s0,s0,a0
    5128:	40f989b3          	sub	s3,s3,a5
    512c:	4601                	li	a2,0
    512e:	015a46b3          	xor	a3,s4,s5
    5132:	47bd                	li	a5,15
    5134:	8836                	mv	a6,a3
    5136:	1c97e663          	bltu	a5,s1,5302 <__divdf3+0x26a>
    513a:	00005717          	auipc	a4,0x5
    513e:	67270713          	addi	a4,a4,1650 # a7ac <MyUSBQUADescHD+0xc8>
    5142:	048a                	slli	s1,s1,0x2
    5144:	94ba                	add	s1,s1,a4
    5146:	409c                	lw	a5,0(s1)
    5148:	97ba                	add	a5,a5,a4
    514a:	8782                	jr	a5
    514c:	8e41                	or	a2,a2,s0
    514e:	80198993          	addi	s3,s3,-2047
    5152:	ce79                	beqz	a2,5230 <__divdf3+0x198>
    5154:	00c41793          	slli	a5,s0,0xc
    5158:	0034e493          	ori	s1,s1,3
    515c:	460d                	li	a2,3
    515e:	fc07c8e3          	bltz	a5,512e <__divdf3+0x96>
    5162:	4941                	li	s2,16
    5164:	b7e9                	j	512e <__divdf3+0x96>
    5166:	00c467b3          	or	a5,s0,a2
    516a:	cfcd                	beqz	a5,5224 <__divdf3+0x18c>
    516c:	36040363          	beqz	s0,54d2 <__divdf3+0x43a>
    5170:	8522                	mv	a0,s0
    5172:	c432                	sw	a2,8(sp)
    5174:	41f010ef          	jal	ra,6d92 <__clzsi2>
    5178:	4622                	lw	a2,8(sp)
    517a:	ff550713          	addi	a4,a0,-11 # 7ffff5 <_data_lma+0x7f53a1>
    517e:	47f5                	li	a5,29
    5180:	ff850593          	addi	a1,a0,-8
    5184:	8f99                	sub	a5,a5,a4
    5186:	00b41433          	sll	s0,s0,a1
    518a:	00f657b3          	srl	a5,a2,a5
    518e:	8c5d                	or	s0,s0,a5
    5190:	00b615b3          	sll	a1,a2,a1
    5194:	954e                	add	a0,a0,s3
    5196:	3f350993          	addi	s3,a0,1011
    519a:	4601                	li	a2,0
    519c:	bf49                	j	512e <__divdf3+0x96>
    519e:	00946bb3          	or	s7,s0,s1
    51a2:	060b8b63          	beqz	s7,5218 <__divdf3+0x180>
    51a6:	c636                	sw	a3,12(sp)
    51a8:	c432                	sw	a2,8(sp)
    51aa:	30040263          	beqz	s0,54ae <__divdf3+0x416>
    51ae:	8522                	mv	a0,s0
    51b0:	3e3010ef          	jal	ra,6d92 <__clzsi2>
    51b4:	4622                	lw	a2,8(sp)
    51b6:	46b2                	lw	a3,12(sp)
    51b8:	89aa                	mv	s3,a0
    51ba:	ff550713          	addi	a4,a0,-11
    51be:	4bf5                	li	s7,29
    51c0:	ff898c13          	addi	s8,s3,-8
    51c4:	40eb8bb3          	sub	s7,s7,a4
    51c8:	01841433          	sll	s0,s0,s8
    51cc:	0174dbb3          	srl	s7,s1,s7
    51d0:	008bebb3          	or	s7,s7,s0
    51d4:	01849c33          	sll	s8,s1,s8
    51d8:	c0d00513          	li	a0,-1011
    51dc:	413509b3          	sub	s3,a0,s3
    51e0:	4481                	li	s1,0
    51e2:	4c81                	li	s9,0
    51e4:	4901                	li	s2,0
    51e6:	b731                	j	50f2 <__divdf3+0x5a>
    51e8:	00946bb3          	or	s7,s0,s1
    51ec:	000b8f63          	beqz	s7,520a <__divdf3+0x172>
    51f0:	00c41793          	slli	a5,s0,0xc
    51f4:	8c26                	mv	s8,s1
    51f6:	8ba2                	mv	s7,s0
    51f8:	44b1                	li	s1,12
    51fa:	7ff00993          	li	s3,2047
    51fe:	4c8d                	li	s9,3
    5200:	4941                	li	s2,16
    5202:	ee07d8e3          	bgez	a5,50f2 <__divdf3+0x5a>
    5206:	4901                	li	s2,0
    5208:	b5ed                	j	50f2 <__divdf3+0x5a>
    520a:	44a1                	li	s1,8
    520c:	4c01                	li	s8,0
    520e:	7ff00993          	li	s3,2047
    5212:	4c89                	li	s9,2
    5214:	4901                	li	s2,0
    5216:	bdf1                	j	50f2 <__divdf3+0x5a>
    5218:	4491                	li	s1,4
    521a:	4c01                	li	s8,0
    521c:	4981                	li	s3,0
    521e:	4c85                	li	s9,1
    5220:	4901                	li	s2,0
    5222:	bdc1                	j	50f2 <__divdf3+0x5a>
    5224:	0014e493          	ori	s1,s1,1
    5228:	4401                	li	s0,0
    522a:	4581                	li	a1,0
    522c:	4605                	li	a2,1
    522e:	b701                	j	512e <__divdf3+0x96>
    5230:	0024e493          	ori	s1,s1,2
    5234:	4401                	li	s0,0
    5236:	4581                	li	a1,0
    5238:	4609                	li	a2,2
    523a:	bdd5                	j	512e <__divdf3+0x96>
    523c:	4681                	li	a3,0
    523e:	7ff00713          	li	a4,2047
    5242:	000807b7          	lui	a5,0x80
    5246:	4401                	li	s0,0
    5248:	07b2                	slli	a5,a5,0xc
    524a:	0752                	slli	a4,a4,0x14
    524c:	83b1                	srli	a5,a5,0xc
    524e:	06fe                	slli	a3,a3,0x1f
    5250:	8fd9                	or	a5,a5,a4
    5252:	8fd5                	or	a5,a5,a3
    5254:	8522                	mv	a0,s0
    5256:	85be                	mv	a1,a5
    5258:	0a091263          	bnez	s2,52fc <__divdf3+0x264>
    525c:	50f2                	lw	ra,60(sp)
    525e:	5462                	lw	s0,56(sp)
    5260:	54d2                	lw	s1,52(sp)
    5262:	5942                	lw	s2,48(sp)
    5264:	59b2                	lw	s3,44(sp)
    5266:	5a22                	lw	s4,40(sp)
    5268:	5a92                	lw	s5,36(sp)
    526a:	5b02                	lw	s6,32(sp)
    526c:	4bf2                	lw	s7,28(sp)
    526e:	4c62                	lw	s8,24(sp)
    5270:	4cd2                	lw	s9,20(sp)
    5272:	6121                	addi	sp,sp,64
    5274:	8082                	ret
    5276:	4701                	li	a4,0
    5278:	4781                	li	a5,0
    527a:	4401                	li	s0,0
    527c:	b7f1                	j	5248 <__divdf3+0x1b0>
    527e:	8852                	mv	a6,s4
    5280:	845e                	mv	s0,s7
    5282:	85e2                	mv	a1,s8
    5284:	8666                	mv	a2,s9
    5286:	4789                	li	a5,2
    5288:	52f60163          	beq	a2,a5,57aa <__divdf3+0x712>
    528c:	478d                	li	a5,3
    528e:	faf607e3          	beq	a2,a5,523c <__divdf3+0x1a4>
    5292:	4785                	li	a5,1
    5294:	4cf60063          	beq	a2,a5,5754 <__divdf3+0x6bc>
    5298:	3ff98613          	addi	a2,s3,1023
    529c:	28c05a63          	blez	a2,5530 <__divdf3+0x498>
    52a0:	0075f793          	andi	a5,a1,7
    52a4:	42079463          	bnez	a5,56cc <__divdf3+0x634>
    52a8:	818d                	srli	a1,a1,0x3
    52aa:	86c2                	mv	a3,a6
    52ac:	00741793          	slli	a5,s0,0x7
    52b0:	0007d863          	bgez	a5,52c0 <__divdf3+0x228>
    52b4:	ff0007b7          	lui	a5,0xff000
    52b8:	17fd                	addi	a5,a5,-1
    52ba:	8c7d                	and	s0,s0,a5
    52bc:	40098613          	addi	a2,s3,1024
    52c0:	7fe00793          	li	a5,2046
    52c4:	2ec7cb63          	blt	a5,a2,55ba <__divdf3+0x522>
    52c8:	01d41713          	slli	a4,s0,0x1d
    52cc:	00941793          	slli	a5,s0,0x9
    52d0:	83b1                	srli	a5,a5,0xc
    52d2:	00b76433          	or	s0,a4,a1
    52d6:	7ff67713          	andi	a4,a2,2047
    52da:	b7bd                	j	5248 <__divdf3+0x1b0>
    52dc:	7ff00713          	li	a4,2047
    52e0:	4781                	li	a5,0
    52e2:	4401                	li	s0,0
    52e4:	b795                	j	5248 <__divdf3+0x1b0>
    52e6:	8856                	mv	a6,s5
    52e8:	bf79                	j	5286 <__divdf3+0x1ee>
    52ea:	00896913          	ori	s2,s2,8
    52ee:	7ff00793          	li	a5,2047
    52f2:	06fe                	slli	a3,a3,0x1f
    52f4:	07d2                	slli	a5,a5,0x14
    52f6:	8fd5                	or	a5,a5,a3
    52f8:	4501                	li	a0,0
    52fa:	85be                	mv	a1,a5
    52fc:	00192073          	csrs	fflags,s2
    5300:	bfb1                	j	525c <__divdf3+0x1c4>
    5302:	21746e63          	bltu	s0,s7,551e <__divdf3+0x486>
    5306:	208b8a63          	beq	s7,s0,551a <__divdf3+0x482>
    530a:	87e2                	mv	a5,s8
    530c:	19fd                	addi	s3,s3,-1
    530e:	4c01                	li	s8,0
    5310:	0422                	slli	s0,s0,0x8
    5312:	0185d893          	srli	a7,a1,0x18
    5316:	0088e8b3          	or	a7,a7,s0
    531a:	0108d313          	srli	t1,a7,0x10
    531e:	026bd433          	divu	s0,s7,t1
    5322:	01089e13          	slli	t3,a7,0x10
    5326:	010e5e13          	srli	t3,t3,0x10
    532a:	0107d713          	srli	a4,a5,0x10
    532e:	00859e93          	slli	t4,a1,0x8
    5332:	026bfbb3          	remu	s7,s7,t1
    5336:	028e0633          	mul	a2,t3,s0
    533a:	0bc2                	slli	s7,s7,0x10
    533c:	01776733          	or	a4,a4,s7
    5340:	00c77b63          	bgeu	a4,a2,5356 <__divdf3+0x2be>
    5344:	9746                	add	a4,a4,a7
    5346:	fff40593          	addi	a1,s0,-1
    534a:	2d176a63          	bltu	a4,a7,561e <__divdf3+0x586>
    534e:	2cc77863          	bgeu	a4,a2,561e <__divdf3+0x586>
    5352:	1479                	addi	s0,s0,-2
    5354:	9746                	add	a4,a4,a7
    5356:	8f11                	sub	a4,a4,a2
    5358:	02675533          	divu	a0,a4,t1
    535c:	07c2                	slli	a5,a5,0x10
    535e:	83c1                	srli	a5,a5,0x10
    5360:	02677733          	remu	a4,a4,t1
    5364:	02ae02b3          	mul	t0,t3,a0
    5368:	0742                	slli	a4,a4,0x10
    536a:	8fd9                	or	a5,a5,a4
    536c:	0057fb63          	bgeu	a5,t0,5382 <__divdf3+0x2ea>
    5370:	97c6                	add	a5,a5,a7
    5372:	fff50713          	addi	a4,a0,-1
    5376:	2b17e263          	bltu	a5,a7,561a <__divdf3+0x582>
    537a:	2a57f063          	bgeu	a5,t0,561a <__divdf3+0x582>
    537e:	1579                	addi	a0,a0,-2
    5380:	97c6                	add	a5,a5,a7
    5382:	0442                	slli	s0,s0,0x10
    5384:	63c1                	lui	t2,0x10
    5386:	8c49                	or	s0,s0,a0
    5388:	fff38513          	addi	a0,t2,-1 # ffff <_data_lma+0x53ab>
    538c:	00a47633          	and	a2,s0,a0
    5390:	01045593          	srli	a1,s0,0x10
    5394:	010edf13          	srli	t5,t4,0x10
    5398:	00aef533          	and	a0,t4,a0
    539c:	02c50fb3          	mul	t6,a0,a2
    53a0:	405787b3          	sub	a5,a5,t0
    53a4:	02cf0633          	mul	a2,t5,a2
    53a8:	010fd713          	srli	a4,t6,0x10
    53ac:	02a582b3          	mul	t0,a1,a0
    53b0:	9616                	add	a2,a2,t0
    53b2:	9732                	add	a4,a4,a2
    53b4:	03e585b3          	mul	a1,a1,t5
    53b8:	00577363          	bgeu	a4,t0,53be <__divdf3+0x326>
    53bc:	959e                	add	a1,a1,t2
    53be:	62c1                	lui	t0,0x10
    53c0:	12fd                	addi	t0,t0,-1
    53c2:	01075613          	srli	a2,a4,0x10
    53c6:	00577733          	and	a4,a4,t0
    53ca:	0742                	slli	a4,a4,0x10
    53cc:	005fffb3          	and	t6,t6,t0
    53d0:	962e                	add	a2,a2,a1
    53d2:	977e                	add	a4,a4,t6
    53d4:	12c7e463          	bltu	a5,a2,54fc <__divdf3+0x464>
    53d8:	12c78063          	beq	a5,a2,54f8 <__divdf3+0x460>
    53dc:	40ec0733          	sub	a4,s8,a4
    53e0:	8f91                	sub	a5,a5,a2
    53e2:	00ec3c33          	sltu	s8,s8,a4
    53e6:	418787b3          	sub	a5,a5,s8
    53ea:	3ff98613          	addi	a2,s3,1023
    53ee:	2af88f63          	beq	a7,a5,56ac <__divdf3+0x614>
    53f2:	0267d5b3          	divu	a1,a5,t1
    53f6:	01075693          	srli	a3,a4,0x10
    53fa:	0267f7b3          	remu	a5,a5,t1
    53fe:	02be0fb3          	mul	t6,t3,a1
    5402:	07c2                	slli	a5,a5,0x10
    5404:	8fd5                	or	a5,a5,a3
    5406:	01f7fb63          	bgeu	a5,t6,541c <__divdf3+0x384>
    540a:	97c6                	add	a5,a5,a7
    540c:	fff58693          	addi	a3,a1,-1 # 7ff7ffff <_eusrstack+0x5ff6ffff>
    5410:	2f17e063          	bltu	a5,a7,56f0 <__divdf3+0x658>
    5414:	2df7fe63          	bgeu	a5,t6,56f0 <__divdf3+0x658>
    5418:	15f9                	addi	a1,a1,-2
    541a:	97c6                	add	a5,a5,a7
    541c:	41f787b3          	sub	a5,a5,t6
    5420:	0267d6b3          	divu	a3,a5,t1
    5424:	0742                	slli	a4,a4,0x10
    5426:	8341                	srli	a4,a4,0x10
    5428:	0267f7b3          	remu	a5,a5,t1
    542c:	02de0e33          	mul	t3,t3,a3
    5430:	07c2                	slli	a5,a5,0x10
    5432:	8fd9                	or	a5,a5,a4
    5434:	01c7fb63          	bgeu	a5,t3,544a <__divdf3+0x3b2>
    5438:	97c6                	add	a5,a5,a7
    543a:	fff68713          	addi	a4,a3,-1 # 7fffff <_data_lma+0x7f53ab>
    543e:	2b17eb63          	bltu	a5,a7,56f4 <__divdf3+0x65c>
    5442:	2bc7f963          	bgeu	a5,t3,56f4 <__divdf3+0x65c>
    5446:	16f9                	addi	a3,a3,-2
    5448:	97c6                	add	a5,a5,a7
    544a:	05c2                	slli	a1,a1,0x10
    544c:	8dd5                	or	a1,a1,a3
    544e:	01059693          	slli	a3,a1,0x10
    5452:	0105df93          	srli	t6,a1,0x10
    5456:	82c1                	srli	a3,a3,0x10
    5458:	02a68333          	mul	t1,a3,a0
    545c:	41c787b3          	sub	a5,a5,t3
    5460:	02df06b3          	mul	a3,t5,a3
    5464:	01035713          	srli	a4,t1,0x10
    5468:	02af8533          	mul	a0,t6,a0
    546c:	96aa                	add	a3,a3,a0
    546e:	9736                	add	a4,a4,a3
    5470:	03ff0f33          	mul	t5,t5,t6
    5474:	00a77463          	bgeu	a4,a0,547c <__divdf3+0x3e4>
    5478:	66c1                	lui	a3,0x10
    547a:	9f36                	add	t5,t5,a3
    547c:	6541                	lui	a0,0x10
    547e:	157d                	addi	a0,a0,-1
    5480:	01075693          	srli	a3,a4,0x10
    5484:	8f69                	and	a4,a4,a0
    5486:	0742                	slli	a4,a4,0x10
    5488:	00a37333          	and	t1,t1,a0
    548c:	9f36                	add	t5,t5,a3
    548e:	971a                	add	a4,a4,t1
    5490:	17e7fa63          	bgeu	a5,t5,5604 <__divdf3+0x56c>
    5494:	97c6                	add	a5,a5,a7
    5496:	fff58693          	addi	a3,a1,-1
    549a:	2d17e263          	bltu	a5,a7,575e <__divdf3+0x6c6>
    549e:	27e7eb63          	bltu	a5,t5,5714 <__divdf3+0x67c>
    54a2:	35e78a63          	beq	a5,t5,57f6 <__divdf3+0x75e>
    54a6:	85b6                	mv	a1,a3
    54a8:	0015e593          	ori	a1,a1,1
    54ac:	bbc5                	j	529c <__divdf3+0x204>
    54ae:	8526                	mv	a0,s1
    54b0:	0e3010ef          	jal	ra,6d92 <__clzsi2>
    54b4:	01550713          	addi	a4,a0,21 # 10015 <_data_lma+0x53c1>
    54b8:	45f1                	li	a1,28
    54ba:	02050993          	addi	s3,a0,32
    54be:	4622                	lw	a2,8(sp)
    54c0:	46b2                	lw	a3,12(sp)
    54c2:	cee5dee3          	bge	a1,a4,51be <__divdf3+0x126>
    54c6:	ff850413          	addi	s0,a0,-8
    54ca:	00849bb3          	sll	s7,s1,s0
    54ce:	4c01                	li	s8,0
    54d0:	b321                	j	51d8 <__divdf3+0x140>
    54d2:	8532                	mv	a0,a2
    54d4:	c432                	sw	a2,8(sp)
    54d6:	0bd010ef          	jal	ra,6d92 <__clzsi2>
    54da:	01550713          	addi	a4,a0,21
    54de:	46f1                	li	a3,28
    54e0:	87aa                	mv	a5,a0
    54e2:	4622                	lw	a2,8(sp)
    54e4:	02050513          	addi	a0,a0,32
    54e8:	c8e6dbe3          	bge	a3,a4,517e <__divdf3+0xe6>
    54ec:	ff878413          	addi	s0,a5,-8 # fefffff8 <_eusrstack+0xdefefff8>
    54f0:	4581                	li	a1,0
    54f2:	00861433          	sll	s0,a2,s0
    54f6:	b979                	j	5194 <__divdf3+0xfc>
    54f8:	eeec72e3          	bgeu	s8,a4,53dc <__divdf3+0x344>
    54fc:	9c76                	add	s8,s8,t4
    54fe:	01dc35b3          	sltu	a1,s8,t4
    5502:	95c6                	add	a1,a1,a7
    5504:	97ae                	add	a5,a5,a1
    5506:	fff40593          	addi	a1,s0,-1
    550a:	10f8f263          	bgeu	a7,a5,560e <__divdf3+0x576>
    550e:	18c7e863          	bltu	a5,a2,569e <__divdf3+0x606>
    5512:	18f60463          	beq	a2,a5,569a <__divdf3+0x602>
    5516:	842e                	mv	s0,a1
    5518:	b5d1                	j	53dc <__divdf3+0x344>
    551a:	debc68e3          	bltu	s8,a1,530a <__divdf3+0x272>
    551e:	01fb9713          	slli	a4,s7,0x1f
    5522:	001c5793          	srli	a5,s8,0x1
    5526:	001bdb93          	srli	s7,s7,0x1
    552a:	8fd9                	or	a5,a5,a4
    552c:	0c7e                	slli	s8,s8,0x1f
    552e:	b3cd                	j	5310 <__divdf3+0x278>
    5530:	86c2                	mv	a3,a6
    5532:	e635                	bnez	a2,559e <__divdf3+0x506>
    5534:	0075f613          	andi	a2,a1,7
    5538:	88a2                	mv	a7,s0
    553a:	24061263          	bnez	a2,577e <__divdf3+0x6e6>
    553e:	8061                	srli	s0,s0,0x18
    5540:	00144413          	xori	s0,s0,1
    5544:	00147613          	andi	a2,s0,1
    5548:	4785                	li	a5,1
    554a:	41e98513          	addi	a0,s3,1054
    554e:	00a89733          	sll	a4,a7,a0
    5552:	00f5d433          	srl	s0,a1,a5
    5556:	00a595b3          	sll	a1,a1,a0
    555a:	8c59                	or	s0,s0,a4
    555c:	00b035b3          	snez	a1,a1
    5560:	8c4d                	or	s0,s0,a1
    5562:	00747593          	andi	a1,s0,7
    5566:	00f8d733          	srl	a4,a7,a5
    556a:	c999                	beqz	a1,5580 <__divdf3+0x4e8>
    556c:	4789                	li	a5,2
    556e:	00196913          	ori	s2,s2,1
    5572:	2efb0663          	beq	s6,a5,585e <__divdf3+0x7c6>
    5576:	478d                	li	a5,3
    5578:	2cfb0863          	beq	s6,a5,5848 <__divdf3+0x7b0>
    557c:	280b0563          	beqz	s6,5806 <__divdf3+0x76e>
    5580:	00871793          	slli	a5,a4,0x8
    5584:	2207dd63          	bgez	a5,57be <__divdf3+0x726>
    5588:	00196913          	ori	s2,s2,1
    558c:	4785                	li	a5,1
    558e:	d60602e3          	beqz	a2,52f2 <__divdf3+0x25a>
    5592:	4605                	li	a2,1
    5594:	4781                	li	a5,0
    5596:	4401                	li	s0,0
    5598:	00296913          	ori	s2,s2,2
    559c:	a081                	j	55dc <__divdf3+0x544>
    559e:	4785                	li	a5,1
    55a0:	8f91                	sub	a5,a5,a2
    55a2:	03800713          	li	a4,56
    55a6:	08f75c63          	bge	a4,a5,563e <__divdf3+0x5a6>
    55aa:	8c4d                	or	s0,s0,a1
    55ac:	14041663          	bnez	s0,56f8 <__divdf3+0x660>
    55b0:	00296913          	ori	s2,s2,2
    55b4:	4601                	li	a2,0
    55b6:	4781                	li	a5,0
    55b8:	a015                	j	55dc <__divdf3+0x544>
    55ba:	4789                	li	a5,2
    55bc:	0cfb0c63          	beq	s6,a5,5694 <__divdf3+0x5fc>
    55c0:	478d                	li	a5,3
    55c2:	06fb0063          	beq	s6,a5,5622 <__divdf3+0x58a>
    55c6:	060b0063          	beqz	s6,5626 <__divdf3+0x58e>
    55ca:	00100437          	lui	s0,0x100
    55ce:	fff40793          	addi	a5,s0,-1 # fffff <_data_lma+0xf53ab>
    55d2:	7fe00613          	li	a2,2046
    55d6:	547d                	li	s0,-1
    55d8:	00596913          	ori	s2,s2,5
    55dc:	00c79713          	slli	a4,a5,0xc
    55e0:	8331                	srli	a4,a4,0xc
    55e2:	01461793          	slli	a5,a2,0x14
    55e6:	06fe                	slli	a3,a3,0x1f
    55e8:	8fd9                	or	a5,a5,a4
    55ea:	8fd5                	or	a5,a5,a3
    55ec:	8522                	mv	a0,s0
    55ee:	85be                	mv	a1,a5
    55f0:	00192073          	csrs	fflags,s2
    55f4:	b1a5                	j	525c <__divdf3+0x1c4>
    55f6:	4501                	li	a0,0
    55f8:	7ff805b7          	lui	a1,0x7ff80
    55fc:	4941                	li	s2,16
    55fe:	00192073          	csrs	fflags,s2
    5602:	b9a9                	j	525c <__divdf3+0x1c4>
    5604:	ebe792e3          	bne	a5,t5,54a8 <__divdf3+0x410>
    5608:	c8070ae3          	beqz	a4,529c <__divdf3+0x204>
    560c:	b561                	j	5494 <__divdf3+0x3fc>
    560e:	f0f894e3          	bne	a7,a5,5516 <__divdf3+0x47e>
    5612:	efdc7ee3          	bgeu	s8,t4,550e <__divdf3+0x476>
    5616:	842e                	mv	s0,a1
    5618:	b3d1                	j	53dc <__divdf3+0x344>
    561a:	853a                	mv	a0,a4
    561c:	b39d                	j	5382 <__divdf3+0x2ea>
    561e:	842e                	mv	s0,a1
    5620:	bb1d                	j	5356 <__divdf3+0x2be>
    5622:	fa0814e3          	bnez	a6,55ca <__divdf3+0x532>
    5626:	7ff00613          	li	a2,2047
    562a:	4781                	li	a5,0
    562c:	4401                	li	s0,0
    562e:	b76d                	j	55d8 <__divdf3+0x540>
    5630:	4785                	li	a5,1
    5632:	8f91                	sub	a5,a5,a2
    5634:	03800713          	li	a4,56
    5638:	0cf74063          	blt	a4,a5,56f8 <__divdf3+0x660>
    563c:	55fd                	li	a1,-1
    563e:	477d                	li	a4,31
    5640:	22f75e63          	bge	a4,a5,587c <__divdf3+0x7e4>
    5644:	5705                	li	a4,-31
    5646:	8f11                	sub	a4,a4,a2
    5648:	02000613          	li	a2,32
    564c:	00e45733          	srl	a4,s0,a4
    5650:	00c78763          	beq	a5,a2,565e <__divdf3+0x5c6>
    5654:	43e98513          	addi	a0,s3,1086
    5658:	00a41433          	sll	s0,s0,a0
    565c:	8dc1                	or	a1,a1,s0
    565e:	00b03433          	snez	s0,a1
    5662:	8c59                	or	s0,s0,a4
    5664:	00747793          	andi	a5,s0,7
    5668:	cb99                	beqz	a5,567e <__divdf3+0x5e6>
    566a:	4789                	li	a5,2
    566c:	00196913          	ori	s2,s2,1
    5670:	1efb0563          	beq	s6,a5,585a <__divdf3+0x7c2>
    5674:	478d                	li	a5,3
    5676:	1cfb0763          	beq	s6,a5,5844 <__divdf3+0x7ac>
    567a:	180b0463          	beqz	s6,5802 <__divdf3+0x76a>
    567e:	800d                	srli	s0,s0,0x3
    5680:	4781                	li	a5,0
    5682:	00197613          	andi	a2,s2,1
    5686:	4701                	li	a4,0
    5688:	bc0600e3          	beqz	a2,5248 <__divdf3+0x1b0>
    568c:	4601                	li	a2,0
    568e:	00296913          	ori	s2,s2,2
    5692:	b7a9                	j	55dc <__divdf3+0x544>
    5694:	f2080be3          	beqz	a6,55ca <__divdf3+0x532>
    5698:	b779                	j	5626 <__divdf3+0x58e>
    569a:	e6ec7ee3          	bgeu	s8,a4,5516 <__divdf3+0x47e>
    569e:	9c76                	add	s8,s8,t4
    56a0:	01dc35b3          	sltu	a1,s8,t4
    56a4:	95c6                	add	a1,a1,a7
    56a6:	1479                	addi	s0,s0,-2
    56a8:	97ae                	add	a5,a5,a1
    56aa:	bb0d                	j	53dc <__divdf3+0x344>
    56ac:	08c05363          	blez	a2,5732 <__divdf3+0x69a>
    56b0:	4789                	li	a5,2
    56b2:	00196913          	ori	s2,s2,1
    56b6:	0afb0e63          	beq	s6,a5,5772 <__divdf3+0x6da>
    56ba:	478d                	li	a5,3
    56bc:	0afb0563          	beq	s6,a5,5766 <__divdf3+0x6ce>
    56c0:	0e0b0b63          	beqz	s6,57b6 <__divdf3+0x71e>
    56c4:	200005b7          	lui	a1,0x20000
    56c8:	15fd                	addi	a1,a1,-1
    56ca:	b6cd                	j	52ac <__divdf3+0x214>
    56cc:	4789                	li	a5,2
    56ce:	00196913          	ori	s2,s2,1
    56d2:	0afb0163          	beq	s6,a5,5774 <__divdf3+0x6dc>
    56d6:	478d                	li	a5,3
    56d8:	08fb0863          	beq	s6,a5,5768 <__divdf3+0x6d0>
    56dc:	bc0b16e3          	bnez	s6,52a8 <__divdf3+0x210>
    56e0:	00f5f793          	andi	a5,a1,15
    56e4:	4711                	li	a4,4
    56e6:	86c2                	mv	a3,a6
    56e8:	16e79e63          	bne	a5,a4,5864 <__divdf3+0x7cc>
    56ec:	818d                	srli	a1,a1,0x3
    56ee:	be7d                	j	52ac <__divdf3+0x214>
    56f0:	85b6                	mv	a1,a3
    56f2:	b32d                	j	541c <__divdf3+0x384>
    56f4:	86ba                	mv	a3,a4
    56f6:	bb91                	j	544a <__divdf3+0x3b2>
    56f8:	4789                	li	a5,2
    56fa:	00196913          	ori	s2,s2,1
    56fe:	01003433          	snez	s0,a6
    5702:	eafb07e3          	beq	s6,a5,55b0 <__divdf3+0x518>
    5706:	478d                	li	a5,3
    5708:	4401                	li	s0,0
    570a:	eafb13e3          	bne	s6,a5,55b0 <__divdf3+0x518>
    570e:	00183413          	seqz	s0,a6
    5712:	bd79                	j	55b0 <__divdf3+0x518>
    5714:	001e9693          	slli	a3,t4,0x1
    5718:	01d6beb3          	sltu	t4,a3,t4
    571c:	98f6                	add	a7,a7,t4
    571e:	97c6                	add	a5,a5,a7
    5720:	15f9                	addi	a1,a1,-2
    5722:	8eb6                	mv	t4,a3
    5724:	d9e792e3          	bne	a5,t5,54a8 <__divdf3+0x410>
    5728:	b7d70ae3          	beq	a4,t4,529c <__divdf3+0x204>
    572c:	0015e593          	ori	a1,a1,1
    5730:	b6b5                	j	529c <__divdf3+0x204>
    5732:	ee061fe3          	bnez	a2,5630 <__divdf3+0x598>
    5736:	4789                	li	a5,2
    5738:	00196913          	ori	s2,s2,1
    573c:	0efb0d63          	beq	s6,a5,5836 <__divdf3+0x79e>
    5740:	478d                	li	a5,3
    5742:	0cfb0e63          	beq	s6,a5,581e <__divdf3+0x786>
    5746:	120b0763          	beqz	s6,5874 <__divdf3+0x7dc>
    574a:	88a2                	mv	a7,s0
    574c:	55fd                	li	a1,-1
    574e:	c0100993          	li	s3,-1023
    5752:	b3f5                	j	553e <__divdf3+0x4a6>
    5754:	86c2                	mv	a3,a6
    5756:	4701                	li	a4,0
    5758:	4781                	li	a5,0
    575a:	4401                	li	s0,0
    575c:	b4f5                	j	5248 <__divdf3+0x1b0>
    575e:	85b6                	mv	a1,a3
    5760:	fde784e3          	beq	a5,t5,5728 <__divdf3+0x690>
    5764:	b391                	j	54a8 <__divdf3+0x410>
    5766:	55fd                	li	a1,-1
    5768:	06080e63          	beqz	a6,57e4 <__divdf3+0x74c>
    576c:	818d                	srli	a1,a1,0x3
    576e:	4685                	li	a3,1
    5770:	be35                	j	52ac <__divdf3+0x214>
    5772:	55fd                	li	a1,-1
    5774:	04081f63          	bnez	a6,57d2 <__divdf3+0x73a>
    5778:	818d                	srli	a1,a1,0x3
    577a:	4681                	li	a3,0
    577c:	be05                	j	52ac <__divdf3+0x214>
    577e:	4789                	li	a5,2
    5780:	00196913          	ori	s2,s2,1
    5784:	0afb0d63          	beq	s6,a5,583e <__divdf3+0x7a6>
    5788:	478d                	li	a5,3
    578a:	08fb0d63          	beq	s6,a5,5824 <__divdf3+0x78c>
    578e:	da0b18e3          	bnez	s6,553e <__divdf3+0x4a6>
    5792:	00f5f793          	andi	a5,a1,15
    5796:	4711                	li	a4,4
    5798:	dae783e3          	beq	a5,a4,553e <__divdf3+0x4a6>
    579c:	ffc5b793          	sltiu	a5,a1,-4
    57a0:	0017c793          	xori	a5,a5,1
    57a4:	88a2                	mv	a7,s0
    57a6:	943e                	add	s0,s0,a5
    57a8:	bb59                	j	553e <__divdf3+0x4a6>
    57aa:	86c2                	mv	a3,a6
    57ac:	7ff00713          	li	a4,2047
    57b0:	4781                	li	a5,0
    57b2:	4401                	li	s0,0
    57b4:	bc51                	j	5248 <__divdf3+0x1b0>
    57b6:	4785                	li	a5,1
    57b8:	4581                	li	a1,0
    57ba:	943e                	add	s0,s0,a5
    57bc:	bcc5                	j	52ac <__divdf3+0x214>
    57be:	00971793          	slli	a5,a4,0x9
    57c2:	800d                	srli	s0,s0,0x3
    57c4:	0776                	slli	a4,a4,0x1d
    57c6:	83b1                	srli	a5,a5,0xc
    57c8:	8c59                	or	s0,s0,a4
    57ca:	ea061ce3          	bnez	a2,5682 <__divdf3+0x5ea>
    57ce:	4701                	li	a4,0
    57d0:	bca5                	j	5248 <__divdf3+0x1b0>
    57d2:	00858793          	addi	a5,a1,8 # 20000008 <_data_vma+0x8>
    57d6:	00b7b5b3          	sltu	a1,a5,a1
    57da:	942e                	add	s0,s0,a1
    57dc:	4685                	li	a3,1
    57de:	0037d593          	srli	a1,a5,0x3
    57e2:	b4e9                	j	52ac <__divdf3+0x214>
    57e4:	00858793          	addi	a5,a1,8
    57e8:	00b7b5b3          	sltu	a1,a5,a1
    57ec:	942e                	add	s0,s0,a1
    57ee:	4681                	li	a3,0
    57f0:	0037d593          	srli	a1,a5,0x3
    57f4:	bc65                	j	52ac <__divdf3+0x214>
    57f6:	f0eeefe3          	bltu	t4,a4,5714 <__divdf3+0x67c>
    57fa:	85b6                	mv	a1,a3
    57fc:	f3d718e3          	bne	a4,t4,572c <__divdf3+0x694>
    5800:	bc71                	j	529c <__divdf3+0x204>
    5802:	4605                	li	a2,1
    5804:	4701                	li	a4,0
    5806:	00f47793          	andi	a5,s0,15
    580a:	4591                	li	a1,4
    580c:	d6b78ae3          	beq	a5,a1,5580 <__divdf3+0x4e8>
    5810:	00440793          	addi	a5,s0,4
    5814:	0087b433          	sltu	s0,a5,s0
    5818:	9722                	add	a4,a4,s0
    581a:	843e                	mv	s0,a5
    581c:	b395                	j	5580 <__divdf3+0x4e8>
    581e:	55fd                	li	a1,-1
    5820:	c0100993          	li	s3,-1023
    5824:	88a2                	mv	a7,s0
    5826:	d0081ce3          	bnez	a6,553e <__divdf3+0x4a6>
    582a:	ff85b793          	sltiu	a5,a1,-8
    582e:	0017c793          	xori	a5,a5,1
    5832:	943e                	add	s0,s0,a5
    5834:	b329                	j	553e <__divdf3+0x4a6>
    5836:	88a2                	mv	a7,s0
    5838:	55fd                	li	a1,-1
    583a:	c0100993          	li	s3,-1023
    583e:	d00800e3          	beqz	a6,553e <__divdf3+0x4a6>
    5842:	b7e5                	j	582a <__divdf3+0x792>
    5844:	4605                	li	a2,1
    5846:	4701                	li	a4,0
    5848:	d2081ce3          	bnez	a6,5580 <__divdf3+0x4e8>
    584c:	00840793          	addi	a5,s0,8
    5850:	0087b433          	sltu	s0,a5,s0
    5854:	9722                	add	a4,a4,s0
    5856:	843e                	mv	s0,a5
    5858:	b325                	j	5580 <__divdf3+0x4e8>
    585a:	4605                	li	a2,1
    585c:	4701                	li	a4,0
    585e:	d20801e3          	beqz	a6,5580 <__divdf3+0x4e8>
    5862:	b7ed                	j	584c <__divdf3+0x7b4>
    5864:	ffc5b793          	sltiu	a5,a1,-4
    5868:	0017c793          	xori	a5,a5,1
    586c:	0591                	addi	a1,a1,4
    586e:	818d                	srli	a1,a1,0x3
    5870:	943e                	add	s0,s0,a5
    5872:	bc2d                	j	52ac <__divdf3+0x214>
    5874:	55fd                	li	a1,-1
    5876:	c0100993          	li	s3,-1023
    587a:	b70d                	j	579c <__divdf3+0x704>
    587c:	88a2                	mv	a7,s0
    587e:	4605                	li	a2,1
    5880:	b1e9                	j	554a <__divdf3+0x4b2>

00005882 <__eqdf2>:
__eqdf2():
    5882:	002027f3          	frrm	a5
    5886:	001007b7          	lui	a5,0x100
    588a:	0145d713          	srli	a4,a1,0x14
    588e:	17fd                	addi	a5,a5,-1
    5890:	0146d813          	srli	a6,a3,0x14
    5894:	7ff77713          	andi	a4,a4,2047
    5898:	7ff00893          	li	a7,2047
    589c:	00b7f333          	and	t1,a5,a1
    58a0:	8eaa                	mv	t4,a0
    58a2:	8ff5                	and	a5,a5,a3
    58a4:	81fd                	srli	a1,a1,0x1f
    58a6:	8e32                	mv	t3,a2
    58a8:	7ff87813          	andi	a6,a6,2047
    58ac:	82fd                	srli	a3,a3,0x1f
    58ae:	01170c63          	beq	a4,a7,58c6 <__eqdf2+0x44>
    58b2:	01180663          	beq	a6,a7,58be <__eqdf2+0x3c>
    58b6:	4505                	li	a0,1
    58b8:	01070f63          	beq	a4,a6,58d6 <__eqdf2+0x54>
    58bc:	8082                	ret
    58be:	8e5d                	or	a2,a2,a5
    58c0:	e631                	bnez	a2,590c <__eqdf2+0x8a>
    58c2:	4505                	li	a0,1
    58c4:	8082                	ret
    58c6:	00a36533          	or	a0,t1,a0
    58ca:	e50d                	bnez	a0,58f4 <__eqdf2+0x72>
    58cc:	fee81be3          	bne	a6,a4,58c2 <__eqdf2+0x40>
    58d0:	00c7e533          	or	a0,a5,a2
    58d4:	ed05                	bnez	a0,590c <__eqdf2+0x8a>
    58d6:	4505                	li	a0,1
    58d8:	fef312e3          	bne	t1,a5,58bc <__eqdf2+0x3a>
    58dc:	ffde10e3          	bne	t3,t4,58bc <__eqdf2+0x3a>
    58e0:	4501                	li	a0,0
    58e2:	fcd58de3          	beq	a1,a3,58bc <__eqdf2+0x3a>
    58e6:	4505                	li	a0,1
    58e8:	fb71                	bnez	a4,58bc <__eqdf2+0x3a>
    58ea:	00c36633          	or	a2,t1,a2
    58ee:	00c03533          	snez	a0,a2
    58f2:	8082                	ret
    58f4:	00c31693          	slli	a3,t1,0xc
    58f8:	0006c563          	bltz	a3,5902 <__eqdf2+0x80>
    58fc:	00186073          	csrsi	fflags,16
    5900:	b7c9                	j	58c2 <__eqdf2+0x40>
    5902:	4505                	li	a0,1
    5904:	fae81ce3          	bne	a6,a4,58bc <__eqdf2+0x3a>
    5908:	8e5d                	or	a2,a2,a5
    590a:	da4d                	beqz	a2,58bc <__eqdf2+0x3a>
    590c:	00c79713          	slli	a4,a5,0xc
    5910:	fa0749e3          	bltz	a4,58c2 <__eqdf2+0x40>
    5914:	00186073          	csrsi	fflags,16
    5918:	b76d                	j	58c2 <__eqdf2+0x40>

0000591a <__gedf2>:
__gtdf2():
    591a:	002027f3          	frrm	a5
    591e:	001007b7          	lui	a5,0x100
    5922:	0145d713          	srli	a4,a1,0x14
    5926:	17fd                	addi	a5,a5,-1
    5928:	0146d813          	srli	a6,a3,0x14
    592c:	7ff77713          	andi	a4,a4,2047
    5930:	7ff00893          	li	a7,2047
    5934:	00b7f333          	and	t1,a5,a1
    5938:	8e2a                	mv	t3,a0
    593a:	8ff5                	and	a5,a5,a3
    593c:	81fd                	srli	a1,a1,0x1f
    593e:	8eb2                	mv	t4,a2
    5940:	7ff87813          	andi	a6,a6,2047
    5944:	82fd                	srli	a3,a3,0x1f
    5946:	03170a63          	beq	a4,a7,597a <__gedf2+0x60>
    594a:	03180063          	beq	a6,a7,596a <__gedf2+0x50>
    594e:	eb1d                	bnez	a4,5984 <__gedf2+0x6a>
    5950:	00a368b3          	or	a7,t1,a0
    5954:	00081463          	bnez	a6,595c <__gedf2+0x42>
    5958:	8e5d                	or	a2,a2,a5
    595a:	ca39                	beqz	a2,59b0 <__gedf2+0x96>
    595c:	04088763          	beqz	a7,59aa <__gedf2+0x90>
    5960:	02d58a63          	beq	a1,a3,5994 <__gedf2+0x7a>
    5964:	4505                	li	a0,1
    5966:	e1a1                	bnez	a1,59a6 <__gedf2+0x8c>
    5968:	8082                	ret
    596a:	00c7e8b3          	or	a7,a5,a2
    596e:	fe0880e3          	beqz	a7,594e <__gedf2+0x34>
    5972:	00186073          	csrsi	fflags,16
    5976:	5579                	li	a0,-2
    5978:	8082                	ret
    597a:	00a36533          	or	a0,t1,a0
    597e:	f975                	bnez	a0,5972 <__gedf2+0x58>
    5980:	02e80c63          	beq	a6,a4,59b8 <__gedf2+0x9e>
    5984:	00081463          	bnez	a6,598c <__gedf2+0x72>
    5988:	8e5d                	or	a2,a2,a5
    598a:	de69                	beqz	a2,5964 <__gedf2+0x4a>
    598c:	fcd59ce3          	bne	a1,a3,5964 <__gedf2+0x4a>
    5990:	fce84ae3          	blt	a6,a4,5964 <__gedf2+0x4a>
    5994:	01074863          	blt	a4,a6,59a4 <__gedf2+0x8a>
    5998:	fc67e6e3          	bltu	a5,t1,5964 <__gedf2+0x4a>
    599c:	02f30363          	beq	t1,a5,59c2 <__gedf2+0xa8>
    59a0:	00f37f63          	bgeu	t1,a5,59be <__gedf2+0xa4>
    59a4:	e581                	bnez	a1,59ac <__gedf2+0x92>
    59a6:	557d                	li	a0,-1
    59a8:	8082                	ret
    59aa:	def5                	beqz	a3,59a6 <__gedf2+0x8c>
    59ac:	4505                	li	a0,1
    59ae:	8082                	ret
    59b0:	4501                	li	a0,0
    59b2:	fa0899e3          	bnez	a7,5964 <__gedf2+0x4a>
    59b6:	8082                	ret
    59b8:	8e5d                	or	a2,a2,a5
    59ba:	da69                	beqz	a2,598c <__gedf2+0x72>
    59bc:	bf5d                	j	5972 <__gedf2+0x58>
    59be:	4501                	li	a0,0
    59c0:	8082                	ret
    59c2:	fbcee1e3          	bltu	t4,t3,5964 <__gedf2+0x4a>
    59c6:	4501                	li	a0,0
    59c8:	fbde70e3          	bgeu	t3,t4,5968 <__gedf2+0x4e>
    59cc:	f1e5                	bnez	a1,59ac <__gedf2+0x92>
    59ce:	bfe1                	j	59a6 <__gedf2+0x8c>

000059d0 <__ledf2>:
__ltdf2():
    59d0:	002027f3          	frrm	a5
    59d4:	001007b7          	lui	a5,0x100
    59d8:	0145d713          	srli	a4,a1,0x14
    59dc:	17fd                	addi	a5,a5,-1
    59de:	0146d813          	srli	a6,a3,0x14
    59e2:	7ff77713          	andi	a4,a4,2047
    59e6:	7ff00893          	li	a7,2047
    59ea:	00b7f333          	and	t1,a5,a1
    59ee:	8e2a                	mv	t3,a0
    59f0:	8ff5                	and	a5,a5,a3
    59f2:	81fd                	srli	a1,a1,0x1f
    59f4:	8eb2                	mv	t4,a2
    59f6:	7ff87813          	andi	a6,a6,2047
    59fa:	82fd                	srli	a3,a3,0x1f
    59fc:	03170f63          	beq	a4,a7,5a3a <__ledf2+0x6a>
    5a00:	01180d63          	beq	a6,a7,5a1a <__ledf2+0x4a>
    5a04:	e321                	bnez	a4,5a44 <__ledf2+0x74>
    5a06:	00a368b3          	or	a7,t1,a0
    5a0a:	02081063          	bnez	a6,5a2a <__ledf2+0x5a>
    5a0e:	8e5d                	or	a2,a2,a5
    5a10:	ee09                	bnez	a2,5a2a <__ledf2+0x5a>
    5a12:	4501                	li	a0,0
    5a14:	00089f63          	bnez	a7,5a32 <__ledf2+0x62>
    5a18:	8082                	ret
    5a1a:	00c7e8b3          	or	a7,a5,a2
    5a1e:	fe0883e3          	beqz	a7,5a04 <__ledf2+0x34>
    5a22:	00186073          	csrsi	fflags,16
    5a26:	4509                	li	a0,2
    5a28:	8082                	ret
    5a2a:	02088f63          	beqz	a7,5a68 <__ledf2+0x98>
    5a2e:	02d58363          	beq	a1,a3,5a54 <__ledf2+0x84>
    5a32:	4505                	li	a0,1
    5a34:	d1f5                	beqz	a1,5a18 <__ledf2+0x48>
    5a36:	557d                	li	a0,-1
    5a38:	8082                	ret
    5a3a:	00a36533          	or	a0,t1,a0
    5a3e:	f175                	bnez	a0,5a22 <__ledf2+0x52>
    5a40:	02e80763          	beq	a6,a4,5a6e <__ledf2+0x9e>
    5a44:	00081463          	bnez	a6,5a4c <__ledf2+0x7c>
    5a48:	8e5d                	or	a2,a2,a5
    5a4a:	d665                	beqz	a2,5a32 <__ledf2+0x62>
    5a4c:	fed593e3          	bne	a1,a3,5a32 <__ledf2+0x62>
    5a50:	fee841e3          	blt	a6,a4,5a32 <__ledf2+0x62>
    5a54:	01074863          	blt	a4,a6,5a64 <__ledf2+0x94>
    5a58:	fc67ede3          	bltu	a5,t1,5a32 <__ledf2+0x62>
    5a5c:	00f30e63          	beq	t1,a5,5a78 <__ledf2+0xa8>
    5a60:	00f37a63          	bgeu	t1,a5,5a74 <__ledf2+0xa4>
    5a64:	e199                	bnez	a1,5a6a <__ledf2+0x9a>
    5a66:	bfc1                	j	5a36 <__ledf2+0x66>
    5a68:	d6f9                	beqz	a3,5a36 <__ledf2+0x66>
    5a6a:	4505                	li	a0,1
    5a6c:	8082                	ret
    5a6e:	8e5d                	or	a2,a2,a5
    5a70:	de71                	beqz	a2,5a4c <__ledf2+0x7c>
    5a72:	bf45                	j	5a22 <__ledf2+0x52>
    5a74:	4501                	li	a0,0
    5a76:	8082                	ret
    5a78:	fbceede3          	bltu	t4,t3,5a32 <__ledf2+0x62>
    5a7c:	4501                	li	a0,0
    5a7e:	f9de7de3          	bgeu	t3,t4,5a18 <__ledf2+0x48>
    5a82:	f5e5                	bnez	a1,5a6a <__ledf2+0x9a>
    5a84:	bf4d                	j	5a36 <__ledf2+0x66>

00005a86 <__muldf3>:
__muldf3():
    5a86:	7139                	addi	sp,sp,-64
    5a88:	d452                	sw	s4,40(sp)
    5a8a:	de06                	sw	ra,60(sp)
    5a8c:	dc22                	sw	s0,56(sp)
    5a8e:	da26                	sw	s1,52(sp)
    5a90:	d84a                	sw	s2,48(sp)
    5a92:	d64e                	sw	s3,44(sp)
    5a94:	d256                	sw	s5,36(sp)
    5a96:	d05a                	sw	s6,32(sp)
    5a98:	ce5e                	sw	s7,28(sp)
    5a9a:	cc62                	sw	s8,24(sp)
    5a9c:	ca66                	sw	s9,20(sp)
    5a9e:	8a2a                	mv	s4,a0
    5aa0:	00202b73          	frrm	s6
    5aa4:	0145d913          	srli	s2,a1,0x14
    5aa8:	00c59993          	slli	s3,a1,0xc
    5aac:	7ff97913          	andi	s2,s2,2047
    5ab0:	00c9d993          	srli	s3,s3,0xc
    5ab4:	01f5db93          	srli	s7,a1,0x1f
    5ab8:	12090e63          	beqz	s2,5bf4 <__muldf3+0x16e>
    5abc:	7ff00793          	li	a5,2047
    5ac0:	16f90d63          	beq	s2,a5,5c3a <__muldf3+0x1b4>
    5ac4:	01d55413          	srli	s0,a0,0x1d
    5ac8:	098e                	slli	s3,s3,0x3
    5aca:	013469b3          	or	s3,s0,s3
    5ace:	00800437          	lui	s0,0x800
    5ad2:	0089e433          	or	s0,s3,s0
    5ad6:	00351493          	slli	s1,a0,0x3
    5ada:	c0190913          	addi	s2,s2,-1023
    5ade:	4a01                	li	s4,0
    5ae0:	4c81                	li	s9,0
    5ae2:	4a81                	li	s5,0
    5ae4:	0146d793          	srli	a5,a3,0x14
    5ae8:	00c69993          	slli	s3,a3,0xc
    5aec:	7ff7f793          	andi	a5,a5,2047
    5af0:	85b2                	mv	a1,a2
    5af2:	00c9d993          	srli	s3,s3,0xc
    5af6:	01f6dc13          	srli	s8,a3,0x1f
    5afa:	cfd5                	beqz	a5,5bb6 <__muldf3+0x130>
    5afc:	7ff00713          	li	a4,2047
    5b00:	04e78463          	beq	a5,a4,5b48 <__muldf3+0xc2>
    5b04:	00399513          	slli	a0,s3,0x3
    5b08:	01d65993          	srli	s3,a2,0x1d
    5b0c:	00a9e9b3          	or	s3,s3,a0
    5b10:	c0178793          	addi	a5,a5,-1023 # ffc01 <_data_lma+0xf4fad>
    5b14:	00800537          	lui	a0,0x800
    5b18:	00a9e9b3          	or	s3,s3,a0
    5b1c:	00361593          	slli	a1,a2,0x3
    5b20:	993e                	add	s2,s2,a5
    5b22:	4801                	li	a6,0
    5b24:	018bc633          	xor	a2,s7,s8
    5b28:	47bd                	li	a5,15
    5b2a:	86b2                	mv	a3,a2
    5b2c:	00190713          	addi	a4,s2,1
    5b30:	1747ef63          	bltu	a5,s4,5cae <__muldf3+0x228>
    5b34:	00005517          	auipc	a0,0x5
    5b38:	cb850513          	addi	a0,a0,-840 # a7ec <MyUSBQUADescHD+0x108>
    5b3c:	0a0a                	slli	s4,s4,0x2
    5b3e:	9a2a                	add	s4,s4,a0
    5b40:	000a2783          	lw	a5,0(s4)
    5b44:	97aa                	add	a5,a5,a0
    5b46:	8782                	jr	a5
    5b48:	00c9e633          	or	a2,s3,a2
    5b4c:	7ff90913          	addi	s2,s2,2047
    5b50:	12060863          	beqz	a2,5c80 <__muldf3+0x1fa>
    5b54:	00c99793          	slli	a5,s3,0xc
    5b58:	003a6a13          	ori	s4,s4,3
    5b5c:	480d                	li	a6,3
    5b5e:	fc07c3e3          	bltz	a5,5b24 <__muldf3+0x9e>
    5b62:	4ac1                	li	s5,16
    5b64:	b7c1                	j	5b24 <__muldf3+0x9e>
    5b66:	86e2                	mv	a3,s8
    5b68:	844e                	mv	s0,s3
    5b6a:	84ae                	mv	s1,a1
    5b6c:	8cc2                	mv	s9,a6
    5b6e:	4789                	li	a5,2
    5b70:	12fc8963          	beq	s9,a5,5ca2 <__muldf3+0x21c>
    5b74:	478d                	li	a5,3
    5b76:	10fc8b63          	beq	s9,a5,5c8c <__muldf3+0x206>
    5b7a:	4785                	li	a5,1
    5b7c:	8636                	mv	a2,a3
    5b7e:	4cfc9263          	bne	s9,a5,6042 <__muldf3+0x5bc>
    5b82:	4701                	li	a4,0
    5b84:	4781                	li	a5,0
    5b86:	4401                	li	s0,0
    5b88:	07b2                	slli	a5,a5,0xc
    5b8a:	0752                	slli	a4,a4,0x14
    5b8c:	83b1                	srli	a5,a5,0xc
    5b8e:	067e                	slli	a2,a2,0x1f
    5b90:	8fd9                	or	a5,a5,a4
    5b92:	8fd1                	or	a5,a5,a2
    5b94:	8522                	mv	a0,s0
    5b96:	85be                	mv	a1,a5
    5b98:	340a9963          	bnez	s5,5eea <__muldf3+0x464>
    5b9c:	50f2                	lw	ra,60(sp)
    5b9e:	5462                	lw	s0,56(sp)
    5ba0:	54d2                	lw	s1,52(sp)
    5ba2:	5942                	lw	s2,48(sp)
    5ba4:	59b2                	lw	s3,44(sp)
    5ba6:	5a22                	lw	s4,40(sp)
    5ba8:	5a92                	lw	s5,36(sp)
    5baa:	5b02                	lw	s6,32(sp)
    5bac:	4bf2                	lw	s7,28(sp)
    5bae:	4c62                	lw	s8,24(sp)
    5bb0:	4cd2                	lw	s9,20(sp)
    5bb2:	6121                	addi	sp,sp,64
    5bb4:	8082                	ret
    5bb6:	00c9e7b3          	or	a5,s3,a2
    5bba:	cfcd                	beqz	a5,5c74 <__muldf3+0x1ee>
    5bbc:	34098a63          	beqz	s3,5f10 <__muldf3+0x48a>
    5bc0:	854e                	mv	a0,s3
    5bc2:	c432                	sw	a2,8(sp)
    5bc4:	1ce010ef          	jal	ra,6d92 <__clzsi2>
    5bc8:	4622                	lw	a2,8(sp)
    5bca:	87aa                	mv	a5,a0
    5bcc:	ff550693          	addi	a3,a0,-11
    5bd0:	4775                	li	a4,29
    5bd2:	ff878593          	addi	a1,a5,-8
    5bd6:	8f15                	sub	a4,a4,a3
    5bd8:	00b999b3          	sll	s3,s3,a1
    5bdc:	00e65733          	srl	a4,a2,a4
    5be0:	013769b3          	or	s3,a4,s3
    5be4:	00b615b3          	sll	a1,a2,a1
    5be8:	40f90933          	sub	s2,s2,a5
    5bec:	c0d90913          	addi	s2,s2,-1011
    5bf0:	4801                	li	a6,0
    5bf2:	bf0d                	j	5b24 <__muldf3+0x9e>
    5bf4:	00a9e433          	or	s0,s3,a0
    5bf8:	c825                	beqz	s0,5c68 <__muldf3+0x1e2>
    5bfa:	c636                	sw	a3,12(sp)
    5bfc:	c432                	sw	a2,8(sp)
    5bfe:	2e098963          	beqz	s3,5ef0 <__muldf3+0x46a>
    5c02:	854e                	mv	a0,s3
    5c04:	18e010ef          	jal	ra,6d92 <__clzsi2>
    5c08:	4622                	lw	a2,8(sp)
    5c0a:	46b2                	lw	a3,12(sp)
    5c0c:	87aa                	mv	a5,a0
    5c0e:	ff550713          	addi	a4,a0,-11
    5c12:	4475                	li	s0,29
    5c14:	ff878493          	addi	s1,a5,-8
    5c18:	8c19                	sub	s0,s0,a4
    5c1a:	009999b3          	sll	s3,s3,s1
    5c1e:	008a5433          	srl	s0,s4,s0
    5c22:	01346433          	or	s0,s0,s3
    5c26:	009a14b3          	sll	s1,s4,s1
    5c2a:	c0d00913          	li	s2,-1011
    5c2e:	40f90933          	sub	s2,s2,a5
    5c32:	4a01                	li	s4,0
    5c34:	4c81                	li	s9,0
    5c36:	4a81                	li	s5,0
    5c38:	b575                	j	5ae4 <__muldf3+0x5e>
    5c3a:	00a9e433          	or	s0,s3,a0
    5c3e:	cc11                	beqz	s0,5c5a <__muldf3+0x1d4>
    5c40:	00c99793          	slli	a5,s3,0xc
    5c44:	84aa                	mv	s1,a0
    5c46:	844e                	mv	s0,s3
    5c48:	4a31                	li	s4,12
    5c4a:	7ff00913          	li	s2,2047
    5c4e:	4c8d                	li	s9,3
    5c50:	4ac1                	li	s5,16
    5c52:	e807d9e3          	bgez	a5,5ae4 <__muldf3+0x5e>
    5c56:	4a81                	li	s5,0
    5c58:	b571                	j	5ae4 <__muldf3+0x5e>
    5c5a:	4a21                	li	s4,8
    5c5c:	4481                	li	s1,0
    5c5e:	7ff00913          	li	s2,2047
    5c62:	4c89                	li	s9,2
    5c64:	4a81                	li	s5,0
    5c66:	bdbd                	j	5ae4 <__muldf3+0x5e>
    5c68:	4a11                	li	s4,4
    5c6a:	4481                	li	s1,0
    5c6c:	4901                	li	s2,0
    5c6e:	4c85                	li	s9,1
    5c70:	4a81                	li	s5,0
    5c72:	bd8d                	j	5ae4 <__muldf3+0x5e>
    5c74:	001a6a13          	ori	s4,s4,1
    5c78:	4981                	li	s3,0
    5c7a:	4581                	li	a1,0
    5c7c:	4805                	li	a6,1
    5c7e:	b55d                	j	5b24 <__muldf3+0x9e>
    5c80:	002a6a13          	ori	s4,s4,2
    5c84:	4981                	li	s3,0
    5c86:	4581                	li	a1,0
    5c88:	4809                	li	a6,2
    5c8a:	bd69                	j	5b24 <__muldf3+0x9e>
    5c8c:	4601                	li	a2,0
    5c8e:	7ff00713          	li	a4,2047
    5c92:	000807b7          	lui	a5,0x80
    5c96:	4401                	li	s0,0
    5c98:	bdc5                	j	5b88 <__muldf3+0x102>
    5c9a:	4789                	li	a5,2
    5c9c:	86de                	mv	a3,s7
    5c9e:	ecfc9be3          	bne	s9,a5,5b74 <__muldf3+0xee>
    5ca2:	8636                	mv	a2,a3
    5ca4:	7ff00713          	li	a4,2047
    5ca8:	4781                	li	a5,0
    5caa:	4401                	li	s0,0
    5cac:	bdf1                	j	5b88 <__muldf3+0x102>
    5cae:	6341                	lui	t1,0x10
    5cb0:	fff30793          	addi	a5,t1,-1 # ffff <_data_lma+0x53ab>
    5cb4:	0104d513          	srli	a0,s1,0x10
    5cb8:	0105de13          	srli	t3,a1,0x10
    5cbc:	8cfd                	and	s1,s1,a5
    5cbe:	8dfd                	and	a1,a1,a5
    5cc0:	029587b3          	mul	a5,a1,s1
    5cc4:	02b508b3          	mul	a7,a0,a1
    5cc8:	0107d393          	srli	t2,a5,0x10
    5ccc:	029e0833          	mul	a6,t3,s1
    5cd0:	9846                	add	a6,a6,a7
    5cd2:	93c2                	add	t2,t2,a6
    5cd4:	03c50833          	mul	a6,a0,t3
    5cd8:	0113f363          	bgeu	t2,a7,5cde <__muldf3+0x258>
    5cdc:	981a                	add	a6,a6,t1
    5cde:	6341                	lui	t1,0x10
    5ce0:	fff30e93          	addi	t4,t1,-1 # ffff <_data_lma+0x53ab>
    5ce4:	0109d293          	srli	t0,s3,0x10
    5ce8:	01d9f9b3          	and	s3,s3,t4
    5cec:	01d3f8b3          	and	a7,t2,t4
    5cf0:	01d7f7b3          	and	a5,a5,t4
    5cf4:	08c2                	slli	a7,a7,0x10
    5cf6:	03348eb3          	mul	t4,s1,s3
    5cfa:	98be                	add	a7,a7,a5
    5cfc:	0103d393          	srli	t2,t2,0x10
    5d00:	03350fb3          	mul	t6,a0,s3
    5d04:	010edf13          	srli	t5,t4,0x10
    5d08:	029284b3          	mul	s1,t0,s1
    5d0c:	94fe                	add	s1,s1,t6
    5d0e:	94fa                	add	s1,s1,t5
    5d10:	025507b3          	mul	a5,a0,t0
    5d14:	01f4f363          	bgeu	s1,t6,5d1a <__muldf3+0x294>
    5d18:	979a                	add	a5,a5,t1
    5d1a:	6341                	lui	t1,0x10
    5d1c:	fff30b93          	addi	s7,t1,-1 # ffff <_data_lma+0x53ab>
    5d20:	01045a13          	srli	s4,s0,0x10
    5d24:	01747533          	and	a0,s0,s7
    5d28:	0174ffb3          	and	t6,s1,s7
    5d2c:	80c1                	srli	s1,s1,0x10
    5d2e:	00f48f33          	add	t5,s1,a5
    5d32:	02a58433          	mul	s0,a1,a0
    5d36:	017efeb3          	and	t4,t4,s7
    5d3a:	0fc2                	slli	t6,t6,0x10
    5d3c:	9ff6                	add	t6,t6,t4
    5d3e:	93fe                	add	t2,t2,t6
    5d40:	02ae07b3          	mul	a5,t3,a0
    5d44:	01045e93          	srli	t4,s0,0x10
    5d48:	02ba05b3          	mul	a1,s4,a1
    5d4c:	97ae                	add	a5,a5,a1
    5d4e:	9ebe                	add	t4,t4,a5
    5d50:	034e0e33          	mul	t3,t3,s4
    5d54:	00bef363          	bgeu	t4,a1,5d5a <__muldf3+0x2d4>
    5d58:	9e1a                	add	t3,t3,t1
    5d5a:	67c1                	lui	a5,0x10
    5d5c:	fff78593          	addi	a1,a5,-1 # ffff <_data_lma+0x53ab>
    5d60:	00bef333          	and	t1,t4,a1
    5d64:	8c6d                	and	s0,s0,a1
    5d66:	0342                	slli	t1,t1,0x10
    5d68:	9322                	add	t1,t1,s0
    5d6a:	010ede93          	srli	t4,t4,0x10
    5d6e:	033505b3          	mul	a1,a0,s3
    5d72:	9e76                	add	t3,t3,t4
    5d74:	02a28533          	mul	a0,t0,a0
    5d78:	0105d413          	srli	s0,a1,0x10
    5d7c:	033a09b3          	mul	s3,s4,s3
    5d80:	954e                	add	a0,a0,s3
    5d82:	9522                	add	a0,a0,s0
    5d84:	034282b3          	mul	t0,t0,s4
    5d88:	01357363          	bgeu	a0,s3,5d8e <__muldf3+0x308>
    5d8c:	92be                	add	t0,t0,a5
    5d8e:	6ec1                	lui	t4,0x10
    5d90:	1efd                	addi	t4,t4,-1
    5d92:	01d577b3          	and	a5,a0,t4
    5d96:	07c2                	slli	a5,a5,0x10
    5d98:	01d5feb3          	and	t4,a1,t4
    5d9c:	97f6                	add	a5,a5,t4
    5d9e:	007805b3          	add	a1,a6,t2
    5da2:	01f5bfb3          	sltu	t6,a1,t6
    5da6:	97fa                	add	a5,a5,t5
    5da8:	959a                	add	a1,a1,t1
    5daa:	01f78433          	add	s0,a5,t6
    5dae:	0065b833          	sltu	a6,a1,t1
    5db2:	01c40eb3          	add	t4,s0,t3
    5db6:	010e8333          	add	t1,t4,a6
    5dba:	01f43433          	sltu	s0,s0,t6
    5dbe:	01e7b7b3          	sltu	a5,a5,t5
    5dc2:	8fc1                	or	a5,a5,s0
    5dc4:	01033833          	sltu	a6,t1,a6
    5dc8:	01055413          	srli	s0,a0,0x10
    5dcc:	01cebe33          	sltu	t3,t4,t3
    5dd0:	943e                	add	s0,s0,a5
    5dd2:	010e6833          	or	a6,t3,a6
    5dd6:	9442                	add	s0,s0,a6
    5dd8:	00959493          	slli	s1,a1,0x9
    5ddc:	9416                	add	s0,s0,t0
    5dde:	01735513          	srli	a0,t1,0x17
    5de2:	0114e4b3          	or	s1,s1,a7
    5de6:	0426                	slli	s0,s0,0x9
    5de8:	009034b3          	snez	s1,s1
    5dec:	81dd                	srli	a1,a1,0x17
    5dee:	8c49                	or	s0,s0,a0
    5df0:	8ccd                	or	s1,s1,a1
    5df2:	0326                	slli	t1,t1,0x9
    5df4:	00741793          	slli	a5,s0,0x7
    5df8:	0064e4b3          	or	s1,s1,t1
    5dfc:	0007db63          	bgez	a5,5e12 <__muldf3+0x38c>
    5e00:	0014d793          	srli	a5,s1,0x1
    5e04:	8885                	andi	s1,s1,1
    5e06:	01f41593          	slli	a1,s0,0x1f
    5e0a:	8cdd                	or	s1,s1,a5
    5e0c:	8ccd                	or	s1,s1,a1
    5e0e:	8005                	srli	s0,s0,0x1
    5e10:	893a                	mv	s2,a4
    5e12:	3ff90713          	addi	a4,s2,1023
    5e16:	04e05963          	blez	a4,5e68 <__muldf3+0x3e2>
    5e1a:	0074f793          	andi	a5,s1,7
    5e1e:	cb99                	beqz	a5,5e34 <__muldf3+0x3ae>
    5e20:	4789                	li	a5,2
    5e22:	001aea93          	ori	s5,s5,1
    5e26:	20fb0b63          	beq	s6,a5,603c <__muldf3+0x5b6>
    5e2a:	478d                	li	a5,3
    5e2c:	1efb0d63          	beq	s6,a5,6026 <__muldf3+0x5a0>
    5e30:	1c0b0f63          	beqz	s6,600e <__muldf3+0x588>
    5e34:	00741793          	slli	a5,s0,0x7
    5e38:	0007d863          	bgez	a5,5e48 <__muldf3+0x3c2>
    5e3c:	ff0007b7          	lui	a5,0xff000
    5e40:	17fd                	addi	a5,a5,-1
    5e42:	8c7d                	and	s0,s0,a5
    5e44:	40090713          	addi	a4,s2,1024
    5e48:	7fe00793          	li	a5,2046
    5e4c:	10e7c963          	blt	a5,a4,5f5e <__muldf3+0x4d8>
    5e50:	0034d693          	srli	a3,s1,0x3
    5e54:	00941793          	slli	a5,s0,0x9
    5e58:	01d41493          	slli	s1,s0,0x1d
    5e5c:	00d4e433          	or	s0,s1,a3
    5e60:	83b1                	srli	a5,a5,0xc
    5e62:	7ff77713          	andi	a4,a4,2047
    5e66:	b30d                	j	5b88 <__muldf3+0x102>
    5e68:	4785                	li	a5,1
    5e6a:	8f99                	sub	a5,a5,a4
    5e6c:	e379                	bnez	a4,5f32 <__muldf3+0x4ac>
    5e6e:	0074f593          	andi	a1,s1,7
    5e72:	8722                	mv	a4,s0
    5e74:	cd81                	beqz	a1,5e8c <__muldf3+0x406>
    5e76:	4709                	li	a4,2
    5e78:	001aea93          	ori	s5,s5,1
    5e7c:	20eb0963          	beq	s6,a4,608e <__muldf3+0x608>
    5e80:	470d                	li	a4,3
    5e82:	1eeb0d63          	beq	s6,a4,607c <__muldf3+0x5f6>
    5e86:	8722                	mv	a4,s0
    5e88:	1c0b0f63          	beqz	s6,6066 <__muldf3+0x5e0>
    5e8c:	8361                	srli	a4,a4,0x18
    5e8e:	00174713          	xori	a4,a4,1
    5e92:	00177593          	andi	a1,a4,1
    5e96:	41e90913          	addi	s2,s2,1054
    5e9a:	01249733          	sll	a4,s1,s2
    5e9e:	01241933          	sll	s2,s0,s2
    5ea2:	00f4d4b3          	srl	s1,s1,a5
    5ea6:	00e03733          	snez	a4,a4
    5eaa:	009964b3          	or	s1,s2,s1
    5eae:	8cd9                	or	s1,s1,a4
    5eb0:	0074f513          	andi	a0,s1,7
    5eb4:	00f45733          	srl	a4,s0,a5
    5eb8:	c919                	beqz	a0,5ece <__muldf3+0x448>
    5eba:	4789                	li	a5,2
    5ebc:	001aea93          	ori	s5,s5,1
    5ec0:	1efb0863          	beq	s6,a5,60b0 <__muldf3+0x62a>
    5ec4:	478d                	li	a5,3
    5ec6:	1cfb0a63          	beq	s6,a5,609a <__muldf3+0x614>
    5eca:	1e0b0863          	beqz	s6,60ba <__muldf3+0x634>
    5ece:	00871793          	slli	a5,a4,0x8
    5ed2:	1807d063          	bgez	a5,6052 <__muldf3+0x5cc>
    5ed6:	001aea93          	ori	s5,s5,1
    5eda:	16059663          	bnez	a1,6046 <__muldf3+0x5c0>
    5ede:	067e                	slli	a2,a2,0x1f
    5ee0:	001007b7          	lui	a5,0x100
    5ee4:	8fd1                	or	a5,a5,a2
    5ee6:	4501                	li	a0,0
    5ee8:	85be                	mv	a1,a5
    5eea:	001aa073          	csrs	fflags,s5
    5eee:	b17d                	j	5b9c <__muldf3+0x116>
    5ef0:	6a3000ef          	jal	ra,6d92 <__clzsi2>
    5ef4:	01550713          	addi	a4,a0,21
    5ef8:	45f1                	li	a1,28
    5efa:	02050793          	addi	a5,a0,32
    5efe:	4622                	lw	a2,8(sp)
    5f00:	46b2                	lw	a3,12(sp)
    5f02:	d0e5d8e3          	bge	a1,a4,5c12 <__muldf3+0x18c>
    5f06:	1561                	addi	a0,a0,-8
    5f08:	00aa1433          	sll	s0,s4,a0
    5f0c:	4481                	li	s1,0
    5f0e:	bb31                	j	5c2a <__muldf3+0x1a4>
    5f10:	8532                	mv	a0,a2
    5f12:	c432                	sw	a2,8(sp)
    5f14:	67f000ef          	jal	ra,6d92 <__clzsi2>
    5f18:	01550693          	addi	a3,a0,21
    5f1c:	4771                	li	a4,28
    5f1e:	02050793          	addi	a5,a0,32
    5f22:	4622                	lw	a2,8(sp)
    5f24:	cad756e3          	bge	a4,a3,5bd0 <__muldf3+0x14a>
    5f28:	1561                	addi	a0,a0,-8
    5f2a:	4581                	li	a1,0
    5f2c:	00a619b3          	sll	s3,a2,a0
    5f30:	b965                	j	5be8 <__muldf3+0x162>
    5f32:	03800593          	li	a1,56
    5f36:	06f5d963          	bge	a1,a5,5fa8 <__muldf3+0x522>
    5f3a:	8c45                	or	s0,s0,s1
    5f3c:	cc01                	beqz	s0,5f54 <__muldf3+0x4ce>
    5f3e:	4789                	li	a5,2
    5f40:	001aea93          	ori	s5,s5,1
    5f44:	00d03433          	snez	s0,a3
    5f48:	00fb0663          	beq	s6,a5,5f54 <__muldf3+0x4ce>
    5f4c:	478d                	li	a5,3
    5f4e:	4401                	li	s0,0
    5f50:	18fb0163          	beq	s6,a5,60d2 <__muldf3+0x64c>
    5f54:	002aea93          	ori	s5,s5,2
    5f58:	4681                	li	a3,0
    5f5a:	4781                	li	a5,0
    5f5c:	a015                	j	5f80 <__muldf3+0x4fa>
    5f5e:	4789                	li	a5,2
    5f60:	0cfb0c63          	beq	s6,a5,6038 <__muldf3+0x5b2>
    5f64:	478d                	li	a5,3
    5f66:	08fb0e63          	beq	s6,a5,6002 <__muldf3+0x57c>
    5f6a:	080b0d63          	beqz	s6,6004 <__muldf3+0x57e>
    5f6e:	00100437          	lui	s0,0x100
    5f72:	fff40793          	addi	a5,s0,-1 # fffff <_data_lma+0xf53ab>
    5f76:	7fe00693          	li	a3,2046
    5f7a:	547d                	li	s0,-1
    5f7c:	005aea93          	ori	s5,s5,5
    5f80:	00c79713          	slli	a4,a5,0xc
    5f84:	8331                	srli	a4,a4,0xc
    5f86:	01469793          	slli	a5,a3,0x14
    5f8a:	067e                	slli	a2,a2,0x1f
    5f8c:	8fd9                	or	a5,a5,a4
    5f8e:	8fd1                	or	a5,a5,a2
    5f90:	8522                	mv	a0,s0
    5f92:	85be                	mv	a1,a5
    5f94:	001aa073          	csrs	fflags,s5
    5f98:	b111                	j	5b9c <__muldf3+0x116>
    5f9a:	4501                	li	a0,0
    5f9c:	7ff805b7          	lui	a1,0x7ff80
    5fa0:	4ac1                	li	s5,16
    5fa2:	001aa073          	csrs	fflags,s5
    5fa6:	bedd                	j	5b9c <__muldf3+0x116>
    5fa8:	45fd                	li	a1,31
    5faa:	12f5d763          	bge	a1,a5,60d8 <__muldf3+0x652>
    5fae:	5585                	li	a1,-31
    5fb0:	40e58733          	sub	a4,a1,a4
    5fb4:	02000593          	li	a1,32
    5fb8:	00e45733          	srl	a4,s0,a4
    5fbc:	00b78763          	beq	a5,a1,5fca <__muldf3+0x544>
    5fc0:	43e90913          	addi	s2,s2,1086
    5fc4:	01241433          	sll	s0,s0,s2
    5fc8:	8cc1                	or	s1,s1,s0
    5fca:	009034b3          	snez	s1,s1
    5fce:	8cd9                	or	s1,s1,a4
    5fd0:	0074f793          	andi	a5,s1,7
    5fd4:	cb99                	beqz	a5,5fea <__muldf3+0x564>
    5fd6:	4789                	li	a5,2
    5fd8:	001aea93          	ori	s5,s5,1
    5fdc:	0cfb0863          	beq	s6,a5,60ac <__muldf3+0x626>
    5fe0:	478d                	li	a5,3
    5fe2:	0afb0a63          	beq	s6,a5,6096 <__muldf3+0x610>
    5fe6:	0c0b0863          	beqz	s6,60b6 <__muldf3+0x630>
    5fea:	0034d413          	srli	s0,s1,0x3
    5fee:	4781                	li	a5,0
    5ff0:	001af693          	andi	a3,s5,1
    5ff4:	4701                	li	a4,0
    5ff6:	b80689e3          	beqz	a3,5b88 <__muldf3+0x102>
    5ffa:	4681                	li	a3,0
    5ffc:	002aea93          	ori	s5,s5,2
    6000:	b741                	j	5f80 <__muldf3+0x4fa>
    6002:	f6b5                	bnez	a3,5f6e <__muldf3+0x4e8>
    6004:	7ff00693          	li	a3,2047
    6008:	4781                	li	a5,0
    600a:	4401                	li	s0,0
    600c:	bf85                	j	5f7c <__muldf3+0x4f6>
    600e:	00f4f793          	andi	a5,s1,15
    6012:	4591                	li	a1,4
    6014:	e2b780e3          	beq	a5,a1,5e34 <__muldf3+0x3ae>
    6018:	00448793          	addi	a5,s1,4
    601c:	0097b4b3          	sltu	s1,a5,s1
    6020:	9426                	add	s0,s0,s1
    6022:	84be                	mv	s1,a5
    6024:	bd01                	j	5e34 <__muldf3+0x3ae>
    6026:	e00697e3          	bnez	a3,5e34 <__muldf3+0x3ae>
    602a:	00848793          	addi	a5,s1,8
    602e:	0097b4b3          	sltu	s1,a5,s1
    6032:	9426                	add	s0,s0,s1
    6034:	84be                	mv	s1,a5
    6036:	bbfd                	j	5e34 <__muldf3+0x3ae>
    6038:	da9d                	beqz	a3,5f6e <__muldf3+0x4e8>
    603a:	b7e9                	j	6004 <__muldf3+0x57e>
    603c:	de068ce3          	beqz	a3,5e34 <__muldf3+0x3ae>
    6040:	b7ed                	j	602a <__muldf3+0x5a4>
    6042:	893a                	mv	s2,a4
    6044:	b3f9                	j	5e12 <__muldf3+0x38c>
    6046:	4685                	li	a3,1
    6048:	4781                	li	a5,0
    604a:	4401                	li	s0,0
    604c:	002aea93          	ori	s5,s5,2
    6050:	bf05                	j	5f80 <__muldf3+0x4fa>
    6052:	00971793          	slli	a5,a4,0x9
    6056:	0034d413          	srli	s0,s1,0x3
    605a:	0776                	slli	a4,a4,0x1d
    605c:	83b1                	srli	a5,a5,0xc
    605e:	8c59                	or	s0,s0,a4
    6060:	f9c1                	bnez	a1,5ff0 <__muldf3+0x56a>
    6062:	4701                	li	a4,0
    6064:	b615                	j	5b88 <__muldf3+0x102>
    6066:	00f4f593          	andi	a1,s1,15
    606a:	4511                	li	a0,4
    606c:	e2a580e3          	beq	a1,a0,5e8c <__muldf3+0x406>
    6070:	ffc4b713          	sltiu	a4,s1,-4
    6074:	00174713          	xori	a4,a4,1
    6078:	9722                	add	a4,a4,s0
    607a:	bd09                	j	5e8c <__muldf3+0x406>
    607c:	8722                	mv	a4,s0
    607e:	e00697e3          	bnez	a3,5e8c <__muldf3+0x406>
    6082:	ff84b713          	sltiu	a4,s1,-8
    6086:	00174713          	xori	a4,a4,1
    608a:	9722                	add	a4,a4,s0
    608c:	b501                	j	5e8c <__muldf3+0x406>
    608e:	8722                	mv	a4,s0
    6090:	de068ee3          	beqz	a3,5e8c <__muldf3+0x406>
    6094:	b7fd                	j	6082 <__muldf3+0x5fc>
    6096:	4585                	li	a1,1
    6098:	4701                	li	a4,0
    609a:	e2069ae3          	bnez	a3,5ece <__muldf3+0x448>
    609e:	00848793          	addi	a5,s1,8
    60a2:	0097b4b3          	sltu	s1,a5,s1
    60a6:	9726                	add	a4,a4,s1
    60a8:	84be                	mv	s1,a5
    60aa:	b515                	j	5ece <__muldf3+0x448>
    60ac:	4585                	li	a1,1
    60ae:	4701                	li	a4,0
    60b0:	e0068fe3          	beqz	a3,5ece <__muldf3+0x448>
    60b4:	b7ed                	j	609e <__muldf3+0x618>
    60b6:	4585                	li	a1,1
    60b8:	4701                	li	a4,0
    60ba:	00f4f793          	andi	a5,s1,15
    60be:	4691                	li	a3,4
    60c0:	e0d787e3          	beq	a5,a3,5ece <__muldf3+0x448>
    60c4:	00448793          	addi	a5,s1,4
    60c8:	0097b4b3          	sltu	s1,a5,s1
    60cc:	9726                	add	a4,a4,s1
    60ce:	84be                	mv	s1,a5
    60d0:	bbfd                	j	5ece <__muldf3+0x448>
    60d2:	0016b413          	seqz	s0,a3
    60d6:	bdbd                	j	5f54 <__muldf3+0x4ce>
    60d8:	4585                	li	a1,1
    60da:	bb75                	j	5e96 <__muldf3+0x410>

000060dc <__subdf3>:
__subdf3():
    60dc:	1101                	addi	sp,sp,-32
    60de:	ce06                	sw	ra,28(sp)
    60e0:	cc22                	sw	s0,24(sp)
    60e2:	ca26                	sw	s1,20(sp)
    60e4:	c84a                	sw	s2,16(sp)
    60e6:	c64e                	sw	s3,12(sp)
    60e8:	c452                	sw	s4,8(sp)
    60ea:	002029f3          	frrm	s3
    60ee:	00100837          	lui	a6,0x100
    60f2:	187d                	addi	a6,a6,-1
    60f4:	00b87733          	and	a4,a6,a1
    60f8:	0146d893          	srli	a7,a3,0x14
    60fc:	00d87833          	and	a6,a6,a3
    6100:	0145d413          	srli	s0,a1,0x14
    6104:	00371e13          	slli	t3,a4,0x3
    6108:	01d55793          	srli	a5,a0,0x1d
    610c:	080e                	slli	a6,a6,0x3
    610e:	01d65313          	srli	t1,a2,0x1d
    6112:	7ff8f893          	andi	a7,a7,2047
    6116:	7ff00e93          	li	t4,2047
    611a:	01f5d493          	srli	s1,a1,0x1f
    611e:	01c7e733          	or	a4,a5,t3
    6122:	7ff47413          	andi	s0,s0,2047
    6126:	00351e13          	slli	t3,a0,0x3
    612a:	82fd                	srli	a3,a3,0x1f
    612c:	01036833          	or	a6,t1,a6
    6130:	00361593          	slli	a1,a2,0x3
    6134:	1dd88263          	beq	a7,t4,62f8 <__subdf3+0x21c>
    6138:	0016c693          	xori	a3,a3,1
    613c:	41140333          	sub	t1,s0,a7
    6140:	16d48763          	beq	s1,a3,62ae <__subdf3+0x1d2>
    6144:	1c605363          	blez	t1,630a <__subdf3+0x22e>
    6148:	22088463          	beqz	a7,6370 <__subdf3+0x294>
    614c:	008007b7          	lui	a5,0x800
    6150:	00f86833          	or	a6,a6,a5
    6154:	6dd40263          	beq	s0,t4,6818 <__subdf3+0x73c>
    6158:	03800793          	li	a5,56
    615c:	3a67cd63          	blt	a5,t1,6516 <__subdf3+0x43a>
    6160:	47fd                	li	a5,31
    6162:	5267c263          	blt	a5,t1,6686 <__subdf3+0x5aa>
    6166:	02000793          	li	a5,32
    616a:	406787b3          	sub	a5,a5,t1
    616e:	0065d933          	srl	s2,a1,t1
    6172:	00f81633          	sll	a2,a6,a5
    6176:	00f595b3          	sll	a1,a1,a5
    617a:	01266633          	or	a2,a2,s2
    617e:	00685333          	srl	t1,a6,t1
    6182:	00b03933          	snez	s2,a1
    6186:	01266633          	or	a2,a2,s2
    618a:	40670733          	sub	a4,a4,t1
    618e:	40ce0933          	sub	s2,t3,a2
    6192:	012e3633          	sltu	a2,t3,s2
    6196:	8f11                	sub	a4,a4,a2
    6198:	00871793          	slli	a5,a4,0x8
    619c:	2a07da63          	bgez	a5,6450 <__subdf3+0x374>
    61a0:	00971a13          	slli	s4,a4,0x9
    61a4:	009a5a13          	srli	s4,s4,0x9
    61a8:	340a0b63          	beqz	s4,64fe <__subdf3+0x422>
    61ac:	8552                	mv	a0,s4
    61ae:	3e5000ef          	jal	ra,6d92 <__clzsi2>
    61b2:	1561                	addi	a0,a0,-8
    61b4:	02000793          	li	a5,32
    61b8:	8f89                	sub	a5,a5,a0
    61ba:	00aa1733          	sll	a4,s4,a0
    61be:	00f957b3          	srl	a5,s2,a5
    61c2:	8fd9                	or	a5,a5,a4
    61c4:	00a91a33          	sll	s4,s2,a0
    61c8:	32854063          	blt	a0,s0,64e8 <__subdf3+0x40c>
    61cc:	8d01                	sub	a0,a0,s0
    61ce:	00150713          	addi	a4,a0,1
    61d2:	46fd                	li	a3,31
    61d4:	44e6c063          	blt	a3,a4,6614 <__subdf3+0x538>
    61d8:	02000693          	li	a3,32
    61dc:	8e99                	sub	a3,a3,a4
    61de:	00ea5933          	srl	s2,s4,a4
    61e2:	00d79633          	sll	a2,a5,a3
    61e6:	00da16b3          	sll	a3,s4,a3
    61ea:	01266633          	or	a2,a2,s2
    61ee:	00d036b3          	snez	a3,a3
    61f2:	00d66933          	or	s2,a2,a3
    61f6:	00e7d733          	srl	a4,a5,a4
    61fa:	00e967b3          	or	a5,s2,a4
    61fe:	16078063          	beqz	a5,635e <__subdf3+0x282>
    6202:	00797793          	andi	a5,s2,7
    6206:	00191593          	slli	a1,s2,0x1
    620a:	00171613          	slli	a2,a4,0x1
    620e:	01f95693          	srli	a3,s2,0x1f
    6212:	0075f513          	andi	a0,a1,7
    6216:	96b2                	add	a3,a3,a2
    6218:	4301                	li	t1,0
    621a:	c911                	beqz	a0,622e <__subdf3+0x152>
    621c:	4609                	li	a2,2
    621e:	66c98163          	beq	s3,a2,6880 <__subdf3+0x7a4>
    6222:	460d                	li	a2,3
    6224:	4305                	li	t1,1
    6226:	64c98563          	beq	s3,a2,6870 <__subdf3+0x794>
    622a:	62098863          	beqz	s3,685a <__subdf3+0x77e>
    622e:	01000637          	lui	a2,0x1000
    6232:	8ef1                	and	a3,a3,a2
    6234:	0016b513          	seqz	a0,a3
    6238:	10078ce3          	beqz	a5,6b50 <__subdf3+0xa74>
    623c:	4401                	li	s0,0
    623e:	4789                	li	a5,2
    6240:	26f98c63          	beq	s3,a5,64b8 <__subdf3+0x3dc>
    6244:	478d                	li	a5,3
    6246:	28f98863          	beq	s3,a5,64d6 <__subdf3+0x3fa>
    624a:	24098263          	beqz	s3,648e <__subdf3+0x3b2>
    624e:	008005b7          	lui	a1,0x800
    6252:	8df9                	and	a1,a1,a4
    6254:	4305                	li	t1,1
    6256:	c119                	beqz	a0,625c <__subdf3+0x180>
    6258:	00236313          	ori	t1,t1,2
    625c:	4a058363          	beqz	a1,6702 <__subdf3+0x626>
    6260:	0405                	addi	s0,s0,1
    6262:	7ff00793          	li	a5,2047
    6266:	20f40363          	beq	s0,a5,646c <__subdf3+0x390>
    626a:	ff8007b7          	lui	a5,0xff800
    626e:	17fd                	addi	a5,a5,-1
    6270:	8ff9                	and	a5,a5,a4
    6272:	01d79613          	slli	a2,a5,0x1d
    6276:	00395913          	srli	s2,s2,0x3
    627a:	07a6                	slli	a5,a5,0x9
    627c:	01266633          	or	a2,a2,s2
    6280:	83b1                	srli	a5,a5,0xc
    6282:	7ff47413          	andi	s0,s0,2047
    6286:	8885                	andi	s1,s1,1
    6288:	00c79713          	slli	a4,a5,0xc
    628c:	0452                	slli	s0,s0,0x14
    628e:	8331                	srli	a4,a4,0xc
    6290:	04fe                	slli	s1,s1,0x1f
    6292:	8f41                	or	a4,a4,s0
    6294:	8f45                	or	a4,a4,s1
    6296:	8532                	mv	a0,a2
    6298:	85ba                	mv	a1,a4
    629a:	2a031463          	bnez	t1,6542 <__subdf3+0x466>
    629e:	40f2                	lw	ra,28(sp)
    62a0:	4462                	lw	s0,24(sp)
    62a2:	44d2                	lw	s1,20(sp)
    62a4:	4942                	lw	s2,16(sp)
    62a6:	49b2                	lw	s3,12(sp)
    62a8:	4a22                	lw	s4,8(sp)
    62aa:	6105                	addi	sp,sp,32
    62ac:	8082                	ret
    62ae:	0c605d63          	blez	t1,6388 <__subdf3+0x2ac>
    62b2:	16088c63          	beqz	a7,642a <__subdf3+0x34e>
    62b6:	008007b7          	lui	a5,0x800
    62ba:	00f86833          	or	a6,a6,a5
    62be:	51d40a63          	beq	s0,t4,67d2 <__subdf3+0x6f6>
    62c2:	03800793          	li	a5,56
    62c6:	3667cc63          	blt	a5,t1,663e <__subdf3+0x562>
    62ca:	47fd                	li	a5,31
    62cc:	4667d063          	bge	a5,t1,672c <__subdf3+0x650>
    62d0:	fe030613          	addi	a2,t1,-32
    62d4:	02000793          	li	a5,32
    62d8:	00c85633          	srl	a2,a6,a2
    62dc:	00f30a63          	beq	t1,a5,62f0 <__subdf3+0x214>
    62e0:	04000793          	li	a5,64
    62e4:	40678333          	sub	t1,a5,t1
    62e8:	00681833          	sll	a6,a6,t1
    62ec:	0105e5b3          	or	a1,a1,a6
    62f0:	00b035b3          	snez	a1,a1
    62f4:	8e4d                	or	a2,a2,a1
    62f6:	ae81                	j	6646 <__subdf3+0x56a>
    62f8:	00b867b3          	or	a5,a6,a1
    62fc:	80140313          	addi	t1,s0,-2047
    6300:	e399                	bnez	a5,6306 <__subdf3+0x22a>
    6302:	0016c693          	xori	a3,a3,1
    6306:	08d48163          	beq	s1,a3,6388 <__subdf3+0x2ac>
    630a:	0c031563          	bnez	t1,63d4 <__subdf3+0x2f8>
    630e:	00140793          	addi	a5,s0,1
    6312:	7fe7f793          	andi	a5,a5,2046
    6316:	24079263          	bnez	a5,655a <__subdf3+0x47e>
    631a:	01c76eb3          	or	t4,a4,t3
    631e:	00b867b3          	or	a5,a6,a1
    6322:	5a041263          	bnez	s0,68c6 <__subdf3+0x7ea>
    6326:	480e8e63          	beqz	t4,67c2 <__subdf3+0x6e6>
    632a:	4a078263          	beqz	a5,67ce <__subdf3+0x6f2>
    632e:	40be0533          	sub	a0,t3,a1
    6332:	00ae37b3          	sltu	a5,t3,a0
    6336:	41070633          	sub	a2,a4,a6
    633a:	8e1d                	sub	a2,a2,a5
    633c:	00861793          	slli	a5,a2,0x8
    6340:	6a07d463          	bgez	a5,69e8 <__subdf3+0x90c>
    6344:	41c58933          	sub	s2,a1,t3
    6348:	40e807b3          	sub	a5,a6,a4
    634c:	0125b5b3          	sltu	a1,a1,s2
    6350:	40b78733          	sub	a4,a5,a1
    6354:	00e967b3          	or	a5,s2,a4
    6358:	84b6                	mv	s1,a3
    635a:	ea0794e3          	bnez	a5,6202 <__subdf3+0x126>
    635e:	4601                	li	a2,0
    6360:	4401                	li	s0,0
    6362:	4301                	li	t1,0
    6364:	07b2                	slli	a5,a5,0xc
    6366:	83b1                	srli	a5,a5,0xc
    6368:	7ff47413          	andi	s0,s0,2047
    636c:	8885                	andi	s1,s1,1
    636e:	bf29                	j	6288 <__subdf3+0x1ac>
    6370:	00b867b3          	or	a5,a6,a1
    6374:	1a078663          	beqz	a5,6520 <__subdf3+0x444>
    6378:	fff30793          	addi	a5,t1,-1
    637c:	48078063          	beqz	a5,67fc <__subdf3+0x720>
    6380:	45d30963          	beq	t1,t4,67d2 <__subdf3+0x6f6>
    6384:	833e                	mv	t1,a5
    6386:	bbc9                	j	6158 <__subdf3+0x7c>
    6388:	20031063          	bnez	t1,6588 <__subdf3+0x4ac>
    638c:	00140693          	addi	a3,s0,1
    6390:	7fe6f793          	andi	a5,a3,2046
    6394:	4e079a63          	bnez	a5,6888 <__subdf3+0x7ac>
    6398:	01c766b3          	or	a3,a4,t3
    639c:	3e041e63          	bnez	s0,6798 <__subdf3+0x6bc>
    63a0:	00b867b3          	or	a5,a6,a1
    63a4:	5a068a63          	beqz	a3,6958 <__subdf3+0x87c>
    63a8:	42078363          	beqz	a5,67ce <__subdf3+0x6f2>
    63ac:	00be0933          	add	s2,t3,a1
    63b0:	010707b3          	add	a5,a4,a6
    63b4:	01c93633          	sltu	a2,s2,t3
    63b8:	00c78733          	add	a4,a5,a2
    63bc:	00871793          	slli	a5,a4,0x8
    63c0:	e207dde3          	bgez	a5,61fa <__subdf3+0x11e>
    63c4:	ff8007b7          	lui	a5,0xff800
    63c8:	17fd                	addi	a5,a5,-1
    63ca:	8f7d                	and	a4,a4,a5
    63cc:	4405                	li	s0,1
    63ce:	00797793          	andi	a5,s2,7
    63d2:	a069                	j	645c <__subdf3+0x380>
    63d4:	408887b3          	sub	a5,a7,s0
    63d8:	20041363          	bnez	s0,65de <__subdf3+0x502>
    63dc:	01c76533          	or	a0,a4,t3
    63e0:	c125                	beqz	a0,6440 <__subdf3+0x364>
    63e2:	fff78513          	addi	a0,a5,-1 # ff7fffff <_eusrstack+0xdf7effff>
    63e6:	54050f63          	beqz	a0,6944 <__subdf3+0x868>
    63ea:	7ff00313          	li	t1,2047
    63ee:	60678663          	beq	a5,t1,69fa <__subdf3+0x91e>
    63f2:	87aa                	mv	a5,a0
    63f4:	03800613          	li	a2,56
    63f8:	2af64b63          	blt	a2,a5,66ae <__subdf3+0x5d2>
    63fc:	467d                	li	a2,31
    63fe:	50f64863          	blt	a2,a5,690e <__subdf3+0x832>
    6402:	02000513          	li	a0,32
    6406:	8d1d                	sub	a0,a0,a5
    6408:	00a71633          	sll	a2,a4,a0
    640c:	00fe5333          	srl	t1,t3,a5
    6410:	00ae1533          	sll	a0,t3,a0
    6414:	00666633          	or	a2,a2,t1
    6418:	00a03933          	snez	s2,a0
    641c:	00f757b3          	srl	a5,a4,a5
    6420:	01266633          	or	a2,a2,s2
    6424:	40f80833          	sub	a6,a6,a5
    6428:	a479                	j	66b6 <__subdf3+0x5da>
    642a:	00b867b3          	or	a5,a6,a1
    642e:	cbed                	beqz	a5,6520 <__subdf3+0x444>
    6430:	fff30793          	addi	a5,t1,-1
    6434:	32078063          	beqz	a5,6754 <__subdf3+0x678>
    6438:	4bd30b63          	beq	t1,t4,68ee <__subdf3+0x812>
    643c:	833e                	mv	t1,a5
    643e:	b551                	j	62c2 <__subdf3+0x1e6>
    6440:	7ff00713          	li	a4,2047
    6444:	5ee78a63          	beq	a5,a4,6a38 <__subdf3+0x95c>
    6448:	8742                	mv	a4,a6
    644a:	892e                	mv	s2,a1
    644c:	843e                	mv	s0,a5
    644e:	84b6                	mv	s1,a3
    6450:	00e967b3          	or	a5,s2,a4
    6454:	da0405e3          	beqz	s0,61fe <__subdf3+0x122>
    6458:	00797793          	andi	a5,s2,7
    645c:	4501                	li	a0,0
    645e:	de0790e3          	bnez	a5,623e <__subdf3+0x162>
    6462:	008005b7          	lui	a1,0x800
    6466:	8df9                	and	a1,a1,a4
    6468:	4301                	li	t1,0
    646a:	bbcd                	j	625c <__subdf3+0x180>
    646c:	0c098f63          	beqz	s3,654a <__subdf3+0x46e>
    6470:	478d                	li	a5,3
    6472:	0cf98b63          	beq	s3,a5,6548 <__subdf3+0x46c>
    6476:	4789                	li	a5,2
    6478:	30f98b63          	beq	s3,a5,678e <__subdf3+0x6b2>
    647c:	00536313          	ori	t1,t1,5
    6480:	200007b7          	lui	a5,0x20000
    6484:	567d                	li	a2,-1
    6486:	17fd                	addi	a5,a5,-1
    6488:	7fe00413          	li	s0,2046
    648c:	bde1                	j	6364 <__subdf3+0x288>
    648e:	008005b7          	lui	a1,0x800
    6492:	00f97793          	andi	a5,s2,15
    6496:	4691                	li	a3,4
    6498:	4305                	li	t1,1
    649a:	8df9                	and	a1,a1,a4
    649c:	dad78de3          	beq	a5,a3,6256 <__subdf3+0x17a>
    64a0:	ffc93793          	sltiu	a5,s2,-4
    64a4:	0017c793          	xori	a5,a5,1
    64a8:	973e                	add	a4,a4,a5
    64aa:	008005b7          	lui	a1,0x800
    64ae:	8df9                	and	a1,a1,a4
    64b0:	0911                	addi	s2,s2,4
    64b2:	da0513e3          	bnez	a0,6258 <__subdf3+0x17c>
    64b6:	b35d                	j	625c <__subdf3+0x180>
    64b8:	d8048be3          	beqz	s1,624e <__subdf3+0x172>
    64bc:	00890793          	addi	a5,s2,8
    64c0:	0127b633          	sltu	a2,a5,s2
    64c4:	9732                	add	a4,a4,a2
    64c6:	008005b7          	lui	a1,0x800
    64ca:	8df9                	and	a1,a1,a4
    64cc:	893e                	mv	s2,a5
    64ce:	4305                	li	t1,1
    64d0:	d80514e3          	bnez	a0,6258 <__subdf3+0x17c>
    64d4:	b361                	j	625c <__subdf3+0x180>
    64d6:	d0fd                	beqz	s1,64bc <__subdf3+0x3e0>
    64d8:	4305                	li	t1,1
    64da:	008005b7          	lui	a1,0x800
    64de:	8df9                	and	a1,a1,a4
    64e0:	4485                	li	s1,1
    64e2:	d6051be3          	bnez	a0,6258 <__subdf3+0x17c>
    64e6:	bb9d                	j	625c <__subdf3+0x180>
    64e8:	ff800737          	lui	a4,0xff800
    64ec:	177d                	addi	a4,a4,-1
    64ee:	8f7d                	and	a4,a4,a5
    64f0:	8952                	mv	s2,s4
    64f2:	8c09                	sub	s0,s0,a0
    64f4:	00e967b3          	or	a5,s2,a4
    64f8:	d00403e3          	beqz	s0,61fe <__subdf3+0x122>
    64fc:	bfb1                	j	6458 <__subdf3+0x37c>
    64fe:	854a                	mv	a0,s2
    6500:	093000ef          	jal	ra,6d92 <__clzsi2>
    6504:	ff850793          	addi	a5,a0,-8
    6508:	477d                	li	a4,31
    650a:	0561                	addi	a0,a0,24
    650c:	00f917b3          	sll	a5,s2,a5
    6510:	caa74ce3          	blt	a4,a0,61c8 <__subdf3+0xec>
    6514:	b145                	j	61b4 <__subdf3+0xd8>
    6516:	00b86833          	or	a6,a6,a1
    651a:	01003633          	snez	a2,a6
    651e:	b985                	j	618e <__subdf3+0xb2>
    6520:	31d30f63          	beq	t1,t4,683e <__subdf3+0x762>
    6524:	008005b7          	lui	a1,0x800
    6528:	841a                	mv	s0,t1
    652a:	8df9                	and	a1,a1,a4
    652c:	8972                	mv	s2,t3
    652e:	4301                	li	t1,0
    6530:	b335                	j	625c <__subdf3+0x180>
    6532:	48888863          	beq	a7,s0,69c2 <__subdf3+0x8e6>
    6536:	48079f63          	bnez	a5,69d4 <__subdf3+0x8f8>
    653a:	4501                	li	a0,0
    653c:	7ff805b7          	lui	a1,0x7ff80
    6540:	4341                	li	t1,16
    6542:	00132073          	csrs	fflags,t1
    6546:	bba1                	j	629e <__subdf3+0x1c2>
    6548:	f895                	bnez	s1,647c <__subdf3+0x3a0>
    654a:	00536313          	ori	t1,t1,5
    654e:	8885                	andi	s1,s1,1
    6550:	7ff00413          	li	s0,2047
    6554:	4781                	li	a5,0
    6556:	4601                	li	a2,0
    6558:	bb05                	j	6288 <__subdf3+0x1ac>
    655a:	40be0933          	sub	s2,t3,a1
    655e:	012e37b3          	sltu	a5,t3,s2
    6562:	41070a33          	sub	s4,a4,a6
    6566:	40fa0a33          	sub	s4,s4,a5
    656a:	008a1793          	slli	a5,s4,0x8
    656e:	3407c263          	bltz	a5,68b2 <__subdf3+0x7d6>
    6572:	014967b3          	or	a5,s2,s4
    6576:	c20799e3          	bnez	a5,61a8 <__subdf3+0xcc>
    657a:	ffe98493          	addi	s1,s3,-2
    657e:	0014b493          	seqz	s1,s1
    6582:	4601                	li	a2,0
    6584:	4401                	li	s0,0
    6586:	bbf9                	j	6364 <__subdf3+0x288>
    6588:	408887b3          	sub	a5,a7,s0
    658c:	12040e63          	beqz	s0,66c8 <__subdf3+0x5ec>
    6590:	00800537          	lui	a0,0x800
    6594:	7ff00693          	li	a3,2047
    6598:	8f49                	or	a4,a4,a0
    659a:	50d88763          	beq	a7,a3,6aa8 <__subdf3+0x9cc>
    659e:	03800693          	li	a3,56
    65a2:	36f6c163          	blt	a3,a5,6904 <__subdf3+0x828>
    65a6:	46fd                	li	a3,31
    65a8:	46f6c363          	blt	a3,a5,6a0e <__subdf3+0x932>
    65ac:	02000693          	li	a3,32
    65b0:	8e9d                	sub	a3,a3,a5
    65b2:	00d71633          	sll	a2,a4,a3
    65b6:	00fe5533          	srl	a0,t3,a5
    65ba:	00de16b3          	sll	a3,t3,a3
    65be:	8e49                	or	a2,a2,a0
    65c0:	00d03933          	snez	s2,a3
    65c4:	00f757b3          	srl	a5,a4,a5
    65c8:	01266633          	or	a2,a2,s2
    65cc:	983e                	add	a6,a6,a5
    65ce:	00b60933          	add	s2,a2,a1
    65d2:	00b937b3          	sltu	a5,s2,a1
    65d6:	01078733          	add	a4,a5,a6
    65da:	8446                	mv	s0,a7
    65dc:	a895                	j	6650 <__subdf3+0x574>
    65de:	00800337          	lui	t1,0x800
    65e2:	7ff00513          	li	a0,2047
    65e6:	00676733          	or	a4,a4,t1
    65ea:	e0a895e3          	bne	a7,a0,63f4 <__subdf3+0x318>
    65ee:	00b865b3          	or	a1,a6,a1
    65f2:	20058263          	beqz	a1,67f6 <__subdf3+0x71a>
    65f6:	060e                	slli	a2,a2,0x3
    65f8:	820d                	srli	a2,a2,0x3
    65fa:	01d81793          	slli	a5,a6,0x1d
    65fe:	00981713          	slli	a4,a6,0x9
    6602:	8e5d                	or	a2,a2,a5
    6604:	84b6                	mv	s1,a3
    6606:	00385793          	srli	a5,a6,0x3
    660a:	4301                	li	t1,0
    660c:	10074663          	bltz	a4,6718 <__subdf3+0x63c>
    6610:	4341                	li	t1,16
    6612:	a219                	j	6718 <__subdf3+0x63c>
    6614:	1505                	addi	a0,a0,-31
    6616:	02000693          	li	a3,32
    661a:	00a7d533          	srl	a0,a5,a0
    661e:	00d70a63          	beq	a4,a3,6632 <__subdf3+0x556>
    6622:	04000693          	li	a3,64
    6626:	40e68733          	sub	a4,a3,a4
    662a:	00e797b3          	sll	a5,a5,a4
    662e:	00fa6a33          	or	s4,s4,a5
    6632:	014037b3          	snez	a5,s4
    6636:	8fc9                	or	a5,a5,a0
    6638:	893e                	mv	s2,a5
    663a:	4701                	li	a4,0
    663c:	b6c9                	j	61fe <__subdf3+0x122>
    663e:	00b86833          	or	a6,a6,a1
    6642:	01003633          	snez	a2,a6
    6646:	01c60933          	add	s2,a2,t3
    664a:	01c93633          	sltu	a2,s2,t3
    664e:	9732                	add	a4,a4,a2
    6650:	00871793          	slli	a5,a4,0x8
    6654:	de07dee3          	bgez	a5,6450 <__subdf3+0x374>
    6658:	0405                	addi	s0,s0,1
    665a:	7ff00793          	li	a5,2047
    665e:	08f40363          	beq	s0,a5,66e4 <__subdf3+0x608>
    6662:	ff8007b7          	lui	a5,0xff800
    6666:	17fd                	addi	a5,a5,-1
    6668:	8ff9                	and	a5,a5,a4
    666a:	00197613          	andi	a2,s2,1
    666e:	00195713          	srli	a4,s2,0x1
    6672:	8e59                	or	a2,a2,a4
    6674:	01f79913          	slli	s2,a5,0x1f
    6678:	00c96933          	or	s2,s2,a2
    667c:	0017d713          	srli	a4,a5,0x1
    6680:	00797793          	andi	a5,s2,7
    6684:	bbe1                	j	645c <__subdf3+0x380>
    6686:	fe030613          	addi	a2,t1,-32 # 7fffe0 <_data_lma+0x7f538c>
    668a:	02000793          	li	a5,32
    668e:	00c85633          	srl	a2,a6,a2
    6692:	00f30a63          	beq	t1,a5,66a6 <__subdf3+0x5ca>
    6696:	04000793          	li	a5,64
    669a:	40678333          	sub	t1,a5,t1
    669e:	00681833          	sll	a6,a6,t1
    66a2:	0105e5b3          	or	a1,a1,a6
    66a6:	00b035b3          	snez	a1,a1
    66aa:	8e4d                	or	a2,a2,a1
    66ac:	b4cd                	j	618e <__subdf3+0xb2>
    66ae:	01c76633          	or	a2,a4,t3
    66b2:	00c03633          	snez	a2,a2
    66b6:	40c58933          	sub	s2,a1,a2
    66ba:	0125b7b3          	sltu	a5,a1,s2
    66be:	40f80733          	sub	a4,a6,a5
    66c2:	8446                	mv	s0,a7
    66c4:	84b6                	mv	s1,a3
    66c6:	bcc9                	j	6198 <__subdf3+0xbc>
    66c8:	01c766b3          	or	a3,a4,t3
    66cc:	28068963          	beqz	a3,695e <__subdf3+0x882>
    66d0:	fff78693          	addi	a3,a5,-1 # ff7fffff <_eusrstack+0xdf7effff>
    66d4:	38068b63          	beqz	a3,6a6a <__subdf3+0x98e>
    66d8:	7ff00513          	li	a0,2047
    66dc:	40a78e63          	beq	a5,a0,6af8 <__subdf3+0xa1c>
    66e0:	87b6                	mv	a5,a3
    66e2:	bd75                	j	659e <__subdf3+0x4c2>
    66e4:	20098363          	beqz	s3,68ea <__subdf3+0x80e>
    66e8:	478d                	li	a5,3
    66ea:	3ef98b63          	beq	s3,a5,6ae0 <__subdf3+0xa04>
    66ee:	4789                	li	a5,2
    66f0:	3cf98f63          	beq	s3,a5,6ace <__subdf3+0x9f2>
    66f4:	44099063          	bnez	s3,6b34 <__subdf3+0xa58>
    66f8:	7fe00413          	li	s0,2046
    66fc:	4701                	li	a4,0
    66fe:	490d                	li	s2,3
    6700:	4315                	li	t1,5
    6702:	01d71793          	slli	a5,a4,0x1d
    6706:	00395613          	srli	a2,s2,0x3
    670a:	7ff00693          	li	a3,2047
    670e:	8e5d                	or	a2,a2,a5
    6710:	00375793          	srli	a5,a4,0x3
    6714:	c4d418e3          	bne	s0,a3,6364 <__subdf3+0x288>
    6718:	8fd1                	or	a5,a5,a2
    671a:	e2078ae3          	beqz	a5,654e <__subdf3+0x472>
    671e:	4481                	li	s1,0
    6720:	7ff00413          	li	s0,2047
    6724:	000807b7          	lui	a5,0x80
    6728:	4601                	li	a2,0
    672a:	beb9                	j	6288 <__subdf3+0x1ac>
    672c:	02000793          	li	a5,32
    6730:	406787b3          	sub	a5,a5,t1
    6734:	0065d933          	srl	s2,a1,t1
    6738:	00f81633          	sll	a2,a6,a5
    673c:	00f595b3          	sll	a1,a1,a5
    6740:	01266633          	or	a2,a2,s2
    6744:	00685333          	srl	t1,a6,t1
    6748:	00b03933          	snez	s2,a1
    674c:	01266633          	or	a2,a2,s2
    6750:	971a                	add	a4,a4,t1
    6752:	bdd5                	j	6646 <__subdf3+0x56a>
    6754:	00be0933          	add	s2,t3,a1
    6758:	010707b3          	add	a5,a4,a6
    675c:	01c93633          	sltu	a2,s2,t3
    6760:	00c78733          	add	a4,a5,a2
    6764:	00871793          	slli	a5,a4,0x8
    6768:	4405                	li	s0,1
    676a:	ce07d7e3          	bgez	a5,6458 <__subdf3+0x37c>
    676e:	ff8007b7          	lui	a5,0xff800
    6772:	17fd                	addi	a5,a5,-1
    6774:	8ff9                	and	a5,a5,a4
    6776:	00195613          	srli	a2,s2,0x1
    677a:	01f79913          	slli	s2,a5,0x1f
    677e:	00c96933          	or	s2,s2,a2
    6782:	0017d713          	srli	a4,a5,0x1
    6786:	4409                	li	s0,2
    6788:	00797793          	andi	a5,s2,7
    678c:	b9c1                	j	645c <__subdf3+0x380>
    678e:	00536313          	ori	t1,t1,5
    6792:	ce0487e3          	beqz	s1,6480 <__subdf3+0x3a4>
    6796:	bb65                	j	654e <__subdf3+0x472>
    6798:	7ff00793          	li	a5,2047
    679c:	2ef40063          	beq	s0,a5,6a7c <__subdf3+0x9a0>
    67a0:	1ef88863          	beq	a7,a5,6990 <__subdf3+0x8b4>
    67a4:	1e068c63          	beqz	a3,699c <__subdf3+0x8c0>
    67a8:	00b86833          	or	a6,a6,a1
    67ac:	f60819e3          	bnez	a6,671e <__subdf3+0x642>
    67b0:	00351613          	slli	a2,a0,0x3
    67b4:	01d71793          	slli	a5,a4,0x1d
    67b8:	820d                	srli	a2,a2,0x3
    67ba:	8e5d                	or	a2,a2,a5
    67bc:	00375793          	srli	a5,a4,0x3
    67c0:	bfa1                	j	6718 <__subdf3+0x63c>
    67c2:	16078b63          	beqz	a5,6938 <__subdf3+0x85c>
    67c6:	4781                	li	a5,0
    67c8:	8742                	mv	a4,a6
    67ca:	8e2e                	mv	t3,a1
    67cc:	84b6                	mv	s1,a3
    67ce:	8972                	mv	s2,t3
    67d0:	bc1d                	j	6206 <__subdf3+0x12a>
    67d2:	01c76633          	or	a2,a4,t3
    67d6:	c20d                	beqz	a2,67f8 <__subdf3+0x71c>
    67d8:	00400337          	lui	t1,0x400
    67dc:	050e                	slli	a0,a0,0x3
    67de:	00677333          	and	t1,a4,t1
    67e2:	01d71613          	slli	a2,a4,0x1d
    67e6:	810d                	srli	a0,a0,0x3
    67e8:	00133313          	seqz	t1,t1
    67ec:	8e49                	or	a2,a2,a0
    67ee:	00375793          	srli	a5,a4,0x3
    67f2:	0312                	slli	t1,t1,0x4
    67f4:	b715                	j	6718 <__subdf3+0x63c>
    67f6:	84b6                	mv	s1,a3
    67f8:	4301                	li	t1,0
    67fa:	bb91                	j	654e <__subdf3+0x472>
    67fc:	40be0933          	sub	s2,t3,a1
    6800:	410707b3          	sub	a5,a4,a6
    6804:	012e3633          	sltu	a2,t3,s2
    6808:	40c78733          	sub	a4,a5,a2
    680c:	00871793          	slli	a5,a4,0x8
    6810:	4405                	li	s0,1
    6812:	9807c7e3          	bltz	a5,61a0 <__subdf3+0xc4>
    6816:	b189                	j	6458 <__subdf3+0x37c>
    6818:	01c76633          	or	a2,a4,t3
    681c:	de71                	beqz	a2,67f8 <__subdf3+0x71c>
    681e:	00400337          	lui	t1,0x400
    6822:	00351613          	slli	a2,a0,0x3
    6826:	00677333          	and	t1,a4,t1
    682a:	01d71793          	slli	a5,a4,0x1d
    682e:	820d                	srli	a2,a2,0x3
    6830:	00133313          	seqz	t1,t1
    6834:	8e5d                	or	a2,a2,a5
    6836:	0312                	slli	t1,t1,0x4
    6838:	00375793          	srli	a5,a4,0x3
    683c:	bdf1                	j	6718 <__subdf3+0x63c>
    683e:	01c767b3          	or	a5,a4,t3
    6842:	ebcd                	bnez	a5,68f4 <__subdf3+0x818>
    6844:	4701                	li	a4,0
    6846:	4e01                	li	t3,0
    6848:	4301                	li	t1,0
    684a:	01d71793          	slli	a5,a4,0x1d
    684e:	003e5613          	srli	a2,t3,0x3
    6852:	8e5d                	or	a2,a2,a5
    6854:	00375793          	srli	a5,a4,0x3
    6858:	b5c1                	j	6718 <__subdf3+0x63c>
    685a:	00f5f613          	andi	a2,a1,15
    685e:	4511                	li	a0,4
    6860:	9ca607e3          	beq	a2,a0,622e <__subdf3+0x152>
    6864:	ffc5b593          	sltiu	a1,a1,-4
    6868:	0015c593          	xori	a1,a1,1
    686c:	96ae                	add	a3,a3,a1
    686e:	b2c1                	j	622e <__subdf3+0x152>
    6870:	9a049fe3          	bnez	s1,622e <__subdf3+0x152>
    6874:	ff85b613          	sltiu	a2,a1,-8
    6878:	00164613          	xori	a2,a2,1
    687c:	96b2                	add	a3,a3,a2
    687e:	ba45                	j	622e <__subdf3+0x152>
    6880:	4305                	li	t1,1
    6882:	9a0486e3          	beqz	s1,622e <__subdf3+0x152>
    6886:	b7fd                	j	6874 <__subdf3+0x798>
    6888:	7ff00793          	li	a5,2047
    688c:	0ef68163          	beq	a3,a5,696e <__subdf3+0x892>
    6890:	95f2                	add	a1,a1,t3
    6892:	010707b3          	add	a5,a4,a6
    6896:	01c5b733          	sltu	a4,a1,t3
    689a:	97ba                	add	a5,a5,a4
    689c:	01f79613          	slli	a2,a5,0x1f
    68a0:	8185                	srli	a1,a1,0x1
    68a2:	00b66933          	or	s2,a2,a1
    68a6:	0017d713          	srli	a4,a5,0x1
    68aa:	8436                	mv	s0,a3
    68ac:	00797793          	andi	a5,s2,7
    68b0:	b675                	j	645c <__subdf3+0x380>
    68b2:	41c58933          	sub	s2,a1,t3
    68b6:	40e80833          	sub	a6,a6,a4
    68ba:	0125b5b3          	sltu	a1,a1,s2
    68be:	40b80a33          	sub	s4,a6,a1
    68c2:	84b6                	mv	s1,a3
    68c4:	b0d5                	j	61a8 <__subdf3+0xcc>
    68c6:	7ff00593          	li	a1,2047
    68ca:	0eb40163          	beq	s0,a1,69ac <__subdf3+0x8d0>
    68ce:	0eb88a63          	beq	a7,a1,69c2 <__subdf3+0x8e6>
    68d2:	c60e82e3          	beqz	t4,6536 <__subdf3+0x45a>
    68d6:	e40794e3          	bnez	a5,671e <__subdf3+0x642>
    68da:	050e                	slli	a0,a0,0x3
    68dc:	01d71613          	slli	a2,a4,0x1d
    68e0:	810d                	srli	a0,a0,0x3
    68e2:	8e49                	or	a2,a2,a0
    68e4:	00375793          	srli	a5,a4,0x3
    68e8:	bd05                	j	6718 <__subdf3+0x63c>
    68ea:	4315                	li	t1,5
    68ec:	b18d                	j	654e <__subdf3+0x472>
    68ee:	01c767b3          	or	a5,a4,t3
    68f2:	d399                	beqz	a5,67f8 <__subdf3+0x71c>
    68f4:	00400337          	lui	t1,0x400
    68f8:	00677333          	and	t1,a4,t1
    68fc:	00133313          	seqz	t1,t1
    6900:	0312                	slli	t1,t1,0x4
    6902:	b7a1                	j	684a <__subdf3+0x76e>
    6904:	01c76633          	or	a2,a4,t3
    6908:	00c03633          	snez	a2,a2
    690c:	b1c9                	j	65ce <__subdf3+0x4f2>
    690e:	fe078613          	addi	a2,a5,-32 # ff7fffe0 <_eusrstack+0xdf7effe0>
    6912:	02000513          	li	a0,32
    6916:	00c75933          	srl	s2,a4,a2
    691a:	00a78a63          	beq	a5,a0,692e <__subdf3+0x852>
    691e:	04000613          	li	a2,64
    6922:	40f607b3          	sub	a5,a2,a5
    6926:	00f717b3          	sll	a5,a4,a5
    692a:	00fe6e33          	or	t3,t3,a5
    692e:	01c03633          	snez	a2,t3
    6932:	01266633          	or	a2,a2,s2
    6936:	b341                	j	66b6 <__subdf3+0x5da>
    6938:	ffe98493          	addi	s1,s3,-2
    693c:	0014b493          	seqz	s1,s1
    6940:	4601                	li	a2,0
    6942:	b40d                	j	6364 <__subdf3+0x288>
    6944:	41c58933          	sub	s2,a1,t3
    6948:	40e807b3          	sub	a5,a6,a4
    694c:	0125b5b3          	sltu	a1,a1,s2
    6950:	40b78733          	sub	a4,a5,a1
    6954:	84b6                	mv	s1,a3
    6956:	bd5d                	j	680c <__subdf3+0x730>
    6958:	8742                	mv	a4,a6
    695a:	892e                	mv	s2,a1
    695c:	b04d                	j	61fe <__subdf3+0x122>
    695e:	7ff00713          	li	a4,2047
    6962:	0ee78863          	beq	a5,a4,6a52 <__subdf3+0x976>
    6966:	8742                	mv	a4,a6
    6968:	892e                	mv	s2,a1
    696a:	843e                	mv	s0,a5
    696c:	b4d5                	j	6450 <__subdf3+0x374>
    696e:	f6098ee3          	beqz	s3,68ea <__subdf3+0x80e>
    6972:	478d                	li	a5,3
    6974:	1cf98563          	beq	s3,a5,6b3e <__subdf3+0xa62>
    6978:	4789                	li	a5,2
    697a:	14f98a63          	beq	s3,a5,6ace <__subdf3+0x9f2>
    697e:	1a099b63          	bnez	s3,6b34 <__subdf3+0xa58>
    6982:	4501                	li	a0,0
    6984:	4315                	li	t1,5
    6986:	7fe00413          	li	s0,2046
    698a:	577d                	li	a4,-1
    698c:	597d                	li	s2,-1
    698e:	be09                	j	64a0 <__subdf3+0x3c4>
    6990:	00b865b3          	or	a1,a6,a1
    6994:	10059263          	bnez	a1,6a98 <__subdf3+0x9bc>
    6998:	e0069ce3          	bnez	a3,67b0 <__subdf3+0x6d4>
    699c:	060e                	slli	a2,a2,0x3
    699e:	01d81793          	slli	a5,a6,0x1d
    69a2:	820d                	srli	a2,a2,0x3
    69a4:	8e5d                	or	a2,a2,a5
    69a6:	00385793          	srli	a5,a6,0x3
    69aa:	b3bd                	j	6718 <__subdf3+0x63c>
    69ac:	b80e83e3          	beqz	t4,6532 <__subdf3+0x456>
    69b0:	00971593          	slli	a1,a4,0x9
    69b4:	0005c363          	bltz	a1,69ba <__subdf3+0x8de>
    69b8:	4341                	li	t1,16
    69ba:	7ff00593          	li	a1,2047
    69be:	f0b89ce3          	bne	a7,a1,68d6 <__subdf3+0x7fa>
    69c2:	12078863          	beqz	a5,6af2 <__subdf3+0xa16>
    69c6:	00981793          	slli	a5,a6,0x9
    69ca:	0007c363          	bltz	a5,69d0 <__subdf3+0x8f4>
    69ce:	4341                	li	t1,16
    69d0:	d40e97e3          	bnez	t4,671e <__subdf3+0x642>
    69d4:	00361793          	slli	a5,a2,0x3
    69d8:	838d                	srli	a5,a5,0x3
    69da:	01d81613          	slli	a2,a6,0x1d
    69de:	8e5d                	or	a2,a2,a5
    69e0:	84b6                	mv	s1,a3
    69e2:	00385793          	srli	a5,a6,0x3
    69e6:	bb0d                	j	6718 <__subdf3+0x63c>
    69e8:	00c567b3          	or	a5,a0,a2
    69ec:	d7b1                	beqz	a5,6938 <__subdf3+0x85c>
    69ee:	8e2a                	mv	t3,a0
    69f0:	00757793          	andi	a5,a0,7
    69f4:	8732                	mv	a4,a2
    69f6:	8972                	mv	s2,t3
    69f8:	b039                	j	6206 <__subdf3+0x12a>
    69fa:	00b865b3          	or	a1,a6,a1
    69fe:	de058ce3          	beqz	a1,67f6 <__subdf3+0x71a>
    6a02:	00361793          	slli	a5,a2,0x3
    6a06:	838d                	srli	a5,a5,0x3
    6a08:	01d81613          	slli	a2,a6,0x1d
    6a0c:	becd                	j	65fe <__subdf3+0x522>
    6a0e:	fe078613          	addi	a2,a5,-32
    6a12:	02000693          	li	a3,32
    6a16:	00c75933          	srl	s2,a4,a2
    6a1a:	00d78a63          	beq	a5,a3,6a2e <__subdf3+0x952>
    6a1e:	04000693          	li	a3,64
    6a22:	40f687b3          	sub	a5,a3,a5
    6a26:	00f717b3          	sll	a5,a4,a5
    6a2a:	00fe6e33          	or	t3,t3,a5
    6a2e:	01c03633          	snez	a2,t3
    6a32:	01266633          	or	a2,a2,s2
    6a36:	be61                	j	65ce <__subdf3+0x4f2>
    6a38:	00b86e33          	or	t3,a6,a1
    6a3c:	0e0e0263          	beqz	t3,6b20 <__subdf3+0xa44>
    6a40:	00981793          	slli	a5,a6,0x9
    6a44:	8742                	mv	a4,a6
    6a46:	8e2e                	mv	t3,a1
    6a48:	84b6                	mv	s1,a3
    6a4a:	0007ce63          	bltz	a5,6a66 <__subdf3+0x98a>
    6a4e:	4341                	li	t1,16
    6a50:	bbed                	j	684a <__subdf3+0x76e>
    6a52:	00b86e33          	or	t3,a6,a1
    6a56:	0e0e0163          	beqz	t3,6b38 <__subdf3+0xa5c>
    6a5a:	00981793          	slli	a5,a6,0x9
    6a5e:	8742                	mv	a4,a6
    6a60:	8e2e                	mv	t3,a1
    6a62:	fe07d6e3          	bgez	a5,6a4e <__subdf3+0x972>
    6a66:	4301                	li	t1,0
    6a68:	b3cd                	j	684a <__subdf3+0x76e>
    6a6a:	00be0933          	add	s2,t3,a1
    6a6e:	010707b3          	add	a5,a4,a6
    6a72:	00b935b3          	sltu	a1,s2,a1
    6a76:	00b78733          	add	a4,a5,a1
    6a7a:	b1ed                	j	6764 <__subdf3+0x688>
    6a7c:	c6d5                	beqz	a3,6b28 <__subdf3+0xa4c>
    6a7e:	00971793          	slli	a5,a4,0x9
    6a82:	0007c363          	bltz	a5,6a88 <__subdf3+0x9ac>
    6a86:	4341                	li	t1,16
    6a88:	7ff00793          	li	a5,2047
    6a8c:	d0f89ee3          	bne	a7,a5,67a8 <__subdf3+0x6cc>
    6a90:	00b865b3          	or	a1,a6,a1
    6a94:	d0058ee3          	beqz	a1,67b0 <__subdf3+0x6d4>
    6a98:	00981793          	slli	a5,a6,0x9
    6a9c:	0007c363          	bltz	a5,6aa2 <__subdf3+0x9c6>
    6aa0:	4341                	li	t1,16
    6aa2:	ee068de3          	beqz	a3,699c <__subdf3+0x8c0>
    6aa6:	b9a5                	j	671e <__subdf3+0x642>
    6aa8:	00b865b3          	or	a1,a6,a1
    6aac:	d40586e3          	beqz	a1,67f8 <__subdf3+0x71c>
    6ab0:	00400337          	lui	t1,0x400
    6ab4:	060e                	slli	a2,a2,0x3
    6ab6:	00687333          	and	t1,a6,t1
    6aba:	01d81793          	slli	a5,a6,0x1d
    6abe:	820d                	srli	a2,a2,0x3
    6ac0:	00133313          	seqz	t1,t1
    6ac4:	8e5d                	or	a2,a2,a5
    6ac6:	0312                	slli	t1,t1,0x4
    6ac8:	00385793          	srli	a5,a6,0x3
    6acc:	b1b1                	j	6718 <__subdf3+0x63c>
    6ace:	e0049ee3          	bnez	s1,68ea <__subdf3+0x80e>
    6ad2:	7fe00413          	li	s0,2046
    6ad6:	577d                	li	a4,-1
    6ad8:	597d                	li	s2,-1
    6ada:	4315                	li	t1,5
    6adc:	f84ff06f          	j	6260 <__subdf3+0x184>
    6ae0:	e00485e3          	beqz	s1,68ea <__subdf3+0x80e>
    6ae4:	7fe00413          	li	s0,2046
    6ae8:	4501                	li	a0,0
    6aea:	597d                	li	s2,-1
    6aec:	577d                	li	a4,-1
    6aee:	4315                	li	t1,5
    6af0:	b2ed                	j	64da <__subdf3+0x3fe>
    6af2:	a40e84e3          	beqz	t4,653a <__subdf3+0x45e>
    6af6:	b3d5                	j	68da <__subdf3+0x7fe>
    6af8:	00b865b3          	or	a1,a6,a1
    6afc:	ce058ee3          	beqz	a1,67f8 <__subdf3+0x71c>
    6b00:	00400337          	lui	t1,0x400
    6b04:	00361793          	slli	a5,a2,0x3
    6b08:	00687333          	and	t1,a6,t1
    6b0c:	838d                	srli	a5,a5,0x3
    6b0e:	01d81613          	slli	a2,a6,0x1d
    6b12:	00133313          	seqz	t1,t1
    6b16:	8e5d                	or	a2,a2,a5
    6b18:	0312                	slli	t1,t1,0x4
    6b1a:	00385793          	srli	a5,a6,0x3
    6b1e:	beed                	j	6718 <__subdf3+0x63c>
    6b20:	4701                	li	a4,0
    6b22:	84b6                	mv	s1,a3
    6b24:	4301                	li	t1,0
    6b26:	b315                	j	684a <__subdf3+0x76e>
    6b28:	e6889ae3          	bne	a7,s0,699c <__subdf3+0x8c0>
    6b2c:	00b865b3          	or	a1,a6,a1
    6b30:	f5a5                	bnez	a1,6a98 <__subdf3+0x9bc>
    6b32:	b5ad                	j	699c <__subdf3+0x8c0>
    6b34:	4315                	li	t1,5
    6b36:	ba2d                	j	6470 <__subdf3+0x394>
    6b38:	4701                	li	a4,0
    6b3a:	4301                	li	t1,0
    6b3c:	b339                	j	684a <__subdf3+0x76e>
    6b3e:	da0486e3          	beqz	s1,68ea <__subdf3+0x80e>
    6b42:	4501                	li	a0,0
    6b44:	7fe00413          	li	s0,2046
    6b48:	597d                	li	s2,-1
    6b4a:	577d                	li	a4,-1
    6b4c:	4315                	li	t1,5
    6b4e:	b271                	j	64da <__subdf3+0x3fe>
    6b50:	008005b7          	lui	a1,0x800
    6b54:	8df9                	and	a1,a1,a4
    6b56:	4401                	li	s0,0
    6b58:	f0069263          	bnez	a3,625c <__subdf3+0x180>
    6b5c:	f0030063          	beqz	t1,625c <__subdf3+0x180>
    6b60:	00236313          	ori	t1,t1,2
    6b64:	ef8ff06f          	j	625c <__subdf3+0x180>

00006b68 <__unorddf2>:
__unorddf2():
    6b68:	832a                	mv	t1,a0
    6b6a:	002027f3          	frrm	a5
    6b6e:	001007b7          	lui	a5,0x100
    6b72:	0145d713          	srli	a4,a1,0x14
    6b76:	17fd                	addi	a5,a5,-1
    6b78:	0146d813          	srli	a6,a3,0x14
    6b7c:	7ff77713          	andi	a4,a4,2047
    6b80:	7ff00893          	li	a7,2047
    6b84:	8dfd                	and	a1,a1,a5
    6b86:	8ff5                	and	a5,a5,a3
    6b88:	7ff87693          	andi	a3,a6,2047
    6b8c:	03170563          	beq	a4,a7,6bb6 <__unorddf2+0x4e>
    6b90:	7ff00813          	li	a6,2047
    6b94:	4501                	li	a0,0
    6b96:	01068363          	beq	a3,a6,6b9c <__unorddf2+0x34>
    6b9a:	8082                	ret
    6b9c:	8e5d                	or	a2,a2,a5
    6b9e:	c61d                	beqz	a2,6bcc <__unorddf2+0x64>
    6ba0:	02d70763          	beq	a4,a3,6bce <__unorddf2+0x66>
    6ba4:	00c79713          	slli	a4,a5,0xc
    6ba8:	4505                	li	a0,1
    6baa:	fe0748e3          	bltz	a4,6b9a <__unorddf2+0x32>
    6bae:	00186073          	csrsi	fflags,16
    6bb2:	4505                	li	a0,1
    6bb4:	8082                	ret
    6bb6:	8d4d                	or	a0,a0,a1
    6bb8:	dd61                	beqz	a0,6b90 <__unorddf2+0x28>
    6bba:	00c59513          	slli	a0,a1,0xc
    6bbe:	fe0558e3          	bgez	a0,6bae <__unorddf2+0x46>
    6bc2:	4505                	li	a0,1
    6bc4:	fce69be3          	bne	a3,a4,6b9a <__unorddf2+0x32>
    6bc8:	8e5d                	or	a2,a2,a5
    6bca:	a811                	j	6bde <__unorddf2+0x76>
    6bcc:	8082                	ret
    6bce:	0065e333          	or	t1,a1,t1
    6bd2:	fc0309e3          	beqz	t1,6ba4 <__unorddf2+0x3c>
    6bd6:	00c59713          	slli	a4,a1,0xc
    6bda:	fc075ae3          	bgez	a4,6bae <__unorddf2+0x46>
    6bde:	4505                	li	a0,1
    6be0:	f271                	bnez	a2,6ba4 <__unorddf2+0x3c>
    6be2:	8082                	ret

00006be4 <__fixdfsi>:
__fixdfsi():
    6be4:	88aa                	mv	a7,a0
    6be6:	002027f3          	frrm	a5
    6bea:	00100537          	lui	a0,0x100
    6bee:	0145d793          	srli	a5,a1,0x14
    6bf2:	fff50693          	addi	a3,a0,-1 # fffff <_data_lma+0xf53ab>
    6bf6:	7ff7f793          	andi	a5,a5,2047
    6bfa:	3fe00713          	li	a4,1022
    6bfe:	00b6f633          	and	a2,a3,a1
    6c02:	8846                	mv	a6,a7
    6c04:	81fd                	srli	a1,a1,0x1f
    6c06:	00f74b63          	blt	a4,a5,6c1c <__fixdfsi+0x38>
    6c0a:	e781                	bnez	a5,6c12 <__fixdfsi+0x2e>
    6c0c:	01166533          	or	a0,a2,a7
    6c10:	c14d                	beqz	a0,6cb2 <__fixdfsi+0xce>
    6c12:	4501                	li	a0,0
    6c14:	4805                	li	a6,1
    6c16:	00182073          	csrs	fflags,a6
    6c1a:	8082                	ret
    6c1c:	41d00713          	li	a4,1053
    6c20:	02f75863          	bge	a4,a5,6c50 <__fixdfsi+0x6c>
    6c24:	800006b7          	lui	a3,0x80000
    6c28:	fff6c693          	not	a3,a3
    6c2c:	00d58533          	add	a0,a1,a3
    6c30:	cdad                	beqz	a1,6caa <__fixdfsi+0xc6>
    6c32:	41e00713          	li	a4,1054
    6c36:	4841                	li	a6,16
    6c38:	fce79fe3          	bne	a5,a4,6c16 <__fixdfsi+0x32>
    6c3c:	00b61793          	slli	a5,a2,0xb
    6c40:	0158d613          	srli	a2,a7,0x15
    6c44:	8fd1                	or	a5,a5,a2
    6c46:	fbe1                	bnez	a5,6c16 <__fixdfsi+0x32>
    6c48:	08ae                	slli	a7,a7,0xb
    6c4a:	06089563          	bnez	a7,6cb4 <__fixdfsi+0xd0>
    6c4e:	8082                	ret
    6c50:	43300713          	li	a4,1075
    6c54:	8f1d                	sub	a4,a4,a5
    6c56:	437d                	li	t1,31
    6c58:	00a666b3          	or	a3,a2,a0
    6c5c:	02e35b63          	bge	t1,a4,6c92 <__fixdfsi+0xae>
    6c60:	02000613          	li	a2,32
    6c64:	00c70863          	beq	a4,a2,6c74 <__fixdfsi+0x90>
    6c68:	c0d78813          	addi	a6,a5,-1011 # ffc0d <_data_lma+0xf4fb9>
    6c6c:	01069833          	sll	a6,a3,a6
    6c70:	01186833          	or	a6,a6,a7
    6c74:	41300513          	li	a0,1043
    6c78:	8d1d                	sub	a0,a0,a5
    6c7a:	01003833          	snez	a6,a6
    6c7e:	00a6d533          	srl	a0,a3,a0
    6c82:	c199                	beqz	a1,6c88 <__fixdfsi+0xa4>
    6c84:	40a00533          	neg	a0,a0
    6c88:	f80809e3          	beqz	a6,6c1a <__fixdfsi+0x36>
    6c8c:	00182073          	csrs	fflags,a6
    6c90:	b769                	j	6c1a <__fixdfsi+0x36>
    6c92:	bed78793          	addi	a5,a5,-1043
    6c96:	00f89833          	sll	a6,a7,a5
    6c9a:	00e8d533          	srl	a0,a7,a4
    6c9e:	00f697b3          	sll	a5,a3,a5
    6ca2:	01003833          	snez	a6,a6
    6ca6:	8d5d                	or	a0,a0,a5
    6ca8:	bfe9                	j	6c82 <__fixdfsi+0x9e>
    6caa:	4841                	li	a6,16
    6cac:	00182073          	csrs	fflags,a6
    6cb0:	b7ad                	j	6c1a <__fixdfsi+0x36>
    6cb2:	8082                	ret
    6cb4:	4805                	li	a6,1
    6cb6:	00182073          	csrs	fflags,a6
    6cba:	b785                	j	6c1a <__fixdfsi+0x36>

00006cbc <__floatsidf>:
__floatsidf():
    6cbc:	1141                	addi	sp,sp,-16
    6cbe:	c606                	sw	ra,12(sp)
    6cc0:	c422                	sw	s0,8(sp)
    6cc2:	c226                	sw	s1,4(sp)
    6cc4:	cd05                	beqz	a0,6cfc <__floatsidf+0x40>
    6cc6:	41f55793          	srai	a5,a0,0x1f
    6cca:	00a7c4b3          	xor	s1,a5,a0
    6cce:	8c9d                	sub	s1,s1,a5
    6cd0:	842a                	mv	s0,a0
    6cd2:	8526                	mv	a0,s1
    6cd4:	287d                	jal	6d92 <__clzsi2>
    6cd6:	41e00693          	li	a3,1054
    6cda:	8e89                	sub	a3,a3,a0
    6cdc:	47a9                	li	a5,10
    6cde:	807d                	srli	s0,s0,0x1f
    6ce0:	7ff6f693          	andi	a3,a3,2047
    6ce4:	02a7cd63          	blt	a5,a0,6d1e <__floatsidf+0x62>
    6ce8:	472d                	li	a4,11
    6cea:	8f09                	sub	a4,a4,a0
    6cec:	00e4d7b3          	srl	a5,s1,a4
    6cf0:	0555                	addi	a0,a0,21
    6cf2:	07b2                	slli	a5,a5,0xc
    6cf4:	00a494b3          	sll	s1,s1,a0
    6cf8:	83b1                	srli	a5,a5,0xc
    6cfa:	a029                	j	6d04 <__floatsidf+0x48>
    6cfc:	4401                	li	s0,0
    6cfe:	4681                	li	a3,0
    6d00:	4781                	li	a5,0
    6d02:	4481                	li	s1,0
    6d04:	07b2                	slli	a5,a5,0xc
    6d06:	06d2                	slli	a3,a3,0x14
    6d08:	83b1                	srli	a5,a5,0xc
    6d0a:	047e                	slli	s0,s0,0x1f
    6d0c:	8fd5                	or	a5,a5,a3
    6d0e:	8fc1                	or	a5,a5,s0
    6d10:	40b2                	lw	ra,12(sp)
    6d12:	4422                	lw	s0,8(sp)
    6d14:	8526                	mv	a0,s1
    6d16:	85be                	mv	a1,a5
    6d18:	4492                	lw	s1,4(sp)
    6d1a:	0141                	addi	sp,sp,16
    6d1c:	8082                	ret
    6d1e:	1555                	addi	a0,a0,-11
    6d20:	00a497b3          	sll	a5,s1,a0
    6d24:	07b2                	slli	a5,a5,0xc
    6d26:	83b1                	srli	a5,a5,0xc
    6d28:	4481                	li	s1,0
    6d2a:	bfe9                	j	6d04 <__floatsidf+0x48>

00006d2c <__floatunsidf>:
__floatunsidf():
    6d2c:	cd15                	beqz	a0,6d68 <__floatunsidf+0x3c>
    6d2e:	1141                	addi	sp,sp,-16
    6d30:	c422                	sw	s0,8(sp)
    6d32:	c606                	sw	ra,12(sp)
    6d34:	842a                	mv	s0,a0
    6d36:	28b1                	jal	6d92 <__clzsi2>
    6d38:	41e00693          	li	a3,1054
    6d3c:	8e89                	sub	a3,a3,a0
    6d3e:	47a9                	li	a5,10
    6d40:	7ff6f693          	andi	a3,a3,2047
    6d44:	02a7dc63          	bge	a5,a0,6d7c <__floatunsidf+0x50>
    6d48:	1555                	addi	a0,a0,-11
    6d4a:	00a417b3          	sll	a5,s0,a0
    6d4e:	07b2                	slli	a5,a5,0xc
    6d50:	83b1                	srli	a5,a5,0xc
    6d52:	4701                	li	a4,0
    6d54:	40b2                	lw	ra,12(sp)
    6d56:	4422                	lw	s0,8(sp)
    6d58:	07b2                	slli	a5,a5,0xc
    6d5a:	06d2                	slli	a3,a3,0x14
    6d5c:	83b1                	srli	a5,a5,0xc
    6d5e:	8fd5                	or	a5,a5,a3
    6d60:	853a                	mv	a0,a4
    6d62:	85be                	mv	a1,a5
    6d64:	0141                	addi	sp,sp,16
    6d66:	8082                	ret
    6d68:	4781                	li	a5,0
    6d6a:	4681                	li	a3,0
    6d6c:	07b2                	slli	a5,a5,0xc
    6d6e:	06d2                	slli	a3,a3,0x14
    6d70:	83b1                	srli	a5,a5,0xc
    6d72:	4701                	li	a4,0
    6d74:	8fd5                	or	a5,a5,a3
    6d76:	853a                	mv	a0,a4
    6d78:	85be                	mv	a1,a5
    6d7a:	8082                	ret
    6d7c:	472d                	li	a4,11
    6d7e:	8f09                	sub	a4,a4,a0
    6d80:	00e457b3          	srl	a5,s0,a4
    6d84:	07b2                	slli	a5,a5,0xc
    6d86:	01550713          	addi	a4,a0,21
    6d8a:	00e41733          	sll	a4,s0,a4
    6d8e:	83b1                	srli	a5,a5,0xc
    6d90:	b7d1                	j	6d54 <__floatunsidf+0x28>

00006d92 <__clzsi2>:
__clzsi2():
    6d92:	67c1                	lui	a5,0x10
    6d94:	02f57e63          	bgeu	a0,a5,6dd0 <__clzsi2+0x3e>
    6d98:	0ff00793          	li	a5,255
    6d9c:	02000713          	li	a4,32
    6da0:	00a7ec63          	bltu	a5,a0,6db8 <__clzsi2+0x26>
    6da4:	00004797          	auipc	a5,0x4
    6da8:	a8878793          	addi	a5,a5,-1400 # a82c <__clz_tab>
    6dac:	97aa                	add	a5,a5,a0
    6dae:	0007c503          	lbu	a0,0(a5)
    6db2:	40a70533          	sub	a0,a4,a0
    6db6:	8082                	ret
    6db8:	8121                	srli	a0,a0,0x8
    6dba:	00004797          	auipc	a5,0x4
    6dbe:	a7278793          	addi	a5,a5,-1422 # a82c <__clz_tab>
    6dc2:	97aa                	add	a5,a5,a0
    6dc4:	0007c503          	lbu	a0,0(a5)
    6dc8:	4761                	li	a4,24
    6dca:	40a70533          	sub	a0,a4,a0
    6dce:	8082                	ret
    6dd0:	010007b7          	lui	a5,0x1000
    6dd4:	00f56e63          	bltu	a0,a5,6df0 <__clzsi2+0x5e>
    6dd8:	8161                	srli	a0,a0,0x18
    6dda:	00004797          	auipc	a5,0x4
    6dde:	a5278793          	addi	a5,a5,-1454 # a82c <__clz_tab>
    6de2:	97aa                	add	a5,a5,a0
    6de4:	0007c503          	lbu	a0,0(a5)
    6de8:	4721                	li	a4,8
    6dea:	40a70533          	sub	a0,a4,a0
    6dee:	8082                	ret
    6df0:	8141                	srli	a0,a0,0x10
    6df2:	00004797          	auipc	a5,0x4
    6df6:	a3a78793          	addi	a5,a5,-1478 # a82c <__clz_tab>
    6dfa:	97aa                	add	a5,a5,a0
    6dfc:	0007c503          	lbu	a0,0(a5)
    6e00:	4741                	li	a4,16
    6e02:	40a70533          	sub	a0,a4,a0
    6e06:	8082                	ret

00006e08 <memcpy>:
memcpy():
    6e08:	00a5c7b3          	xor	a5,a1,a0
    6e0c:	8b8d                	andi	a5,a5,3
    6e0e:	00c50733          	add	a4,a0,a2
    6e12:	e781                	bnez	a5,6e1a <memcpy+0x12>
    6e14:	478d                	li	a5,3
    6e16:	00c7ee63          	bltu	a5,a2,6e32 <memcpy+0x2a>
    6e1a:	87aa                	mv	a5,a0
    6e1c:	0ae57063          	bgeu	a0,a4,6ebc <memcpy+0xb4>
    6e20:	0005c683          	lbu	a3,0(a1) # 800000 <_data_lma+0x7f53ac>
    6e24:	0785                	addi	a5,a5,1
    6e26:	0585                	addi	a1,a1,1
    6e28:	fed78fa3          	sb	a3,-1(a5)
    6e2c:	fee7eae3          	bltu	a5,a4,6e20 <memcpy+0x18>
    6e30:	8082                	ret
    6e32:	00357693          	andi	a3,a0,3
    6e36:	87aa                	mv	a5,a0
    6e38:	ca91                	beqz	a3,6e4c <memcpy+0x44>
    6e3a:	0005c683          	lbu	a3,0(a1)
    6e3e:	0785                	addi	a5,a5,1
    6e40:	0585                	addi	a1,a1,1
    6e42:	fed78fa3          	sb	a3,-1(a5)
    6e46:	0037f693          	andi	a3,a5,3
    6e4a:	b7fd                	j	6e38 <memcpy+0x30>
    6e4c:	ffc77693          	andi	a3,a4,-4
    6e50:	fe068613          	addi	a2,a3,-32 # 7fffffe0 <_eusrstack+0x5ffeffe0>
    6e54:	06c7f063          	bgeu	a5,a2,6eb4 <memcpy+0xac>
    6e58:	0005a383          	lw	t2,0(a1)
    6e5c:	0045a283          	lw	t0,4(a1)
    6e60:	0085af83          	lw	t6,8(a1)
    6e64:	00c5af03          	lw	t5,12(a1)
    6e68:	0105ae83          	lw	t4,16(a1)
    6e6c:	0145ae03          	lw	t3,20(a1)
    6e70:	0185a303          	lw	t1,24(a1)
    6e74:	01c5a883          	lw	a7,28(a1)
    6e78:	02458593          	addi	a1,a1,36
    6e7c:	0077a023          	sw	t2,0(a5)
    6e80:	ffc5a803          	lw	a6,-4(a1)
    6e84:	0057a223          	sw	t0,4(a5)
    6e88:	01f7a423          	sw	t6,8(a5)
    6e8c:	01e7a623          	sw	t5,12(a5)
    6e90:	01d7a823          	sw	t4,16(a5)
    6e94:	01c7aa23          	sw	t3,20(a5)
    6e98:	0067ac23          	sw	t1,24(a5)
    6e9c:	0117ae23          	sw	a7,28(a5)
    6ea0:	02478793          	addi	a5,a5,36
    6ea4:	ff07ae23          	sw	a6,-4(a5)
    6ea8:	b775                	j	6e54 <memcpy+0x4c>
    6eaa:	4190                	lw	a2,0(a1)
    6eac:	0791                	addi	a5,a5,4
    6eae:	0591                	addi	a1,a1,4
    6eb0:	fec7ae23          	sw	a2,-4(a5)
    6eb4:	fed7ebe3          	bltu	a5,a3,6eaa <memcpy+0xa2>
    6eb8:	f6e7e4e3          	bltu	a5,a4,6e20 <memcpy+0x18>
    6ebc:	8082                	ret

00006ebe <__cvt>:
__cvt():
    6ebe:	7179                	addi	sp,sp,-48
    6ec0:	d422                	sw	s0,40(sp)
    6ec2:	d04a                	sw	s2,32(sp)
    6ec4:	cc52                	sw	s4,24(sp)
    6ec6:	ca56                	sw	s5,20(sp)
    6ec8:	c85a                	sw	s6,16(sp)
    6eca:	d606                	sw	ra,44(sp)
    6ecc:	d226                	sw	s1,36(sp)
    6ece:	ce4e                	sw	s3,28(sp)
    6ed0:	8a3a                	mv	s4,a4
    6ed2:	8aae                	mv	s5,a1
    6ed4:	8432                	mv	s0,a2
    6ed6:	8936                	mv	s2,a3
    6ed8:	8b42                	mv	s6,a6
    6eda:	4701                	li	a4,0
    6edc:	00065863          	bgez	a2,6eec <__cvt+0x2e>
    6ee0:	80000737          	lui	a4,0x80000
    6ee4:	00c74433          	xor	s0,a4,a2
    6ee8:	02d00713          	li	a4,45
    6eec:	00e78023          	sb	a4,0(a5)
    6ef0:	fdf8f493          	andi	s1,a7,-33
    6ef4:	04600793          	li	a5,70
    6ef8:	468d                	li	a3,3
    6efa:	00f48863          	beq	s1,a5,6f0a <__cvt+0x4c>
    6efe:	04500793          	li	a5,69
    6f02:	4689                	li	a3,2
    6f04:	00f49363          	bne	s1,a5,6f0a <__cvt+0x4c>
    6f08:	0905                	addi	s2,s2,1
    6f0a:	87da                	mv	a5,s6
    6f0c:	00c10893          	addi	a7,sp,12
    6f10:	00810813          	addi	a6,sp,8
    6f14:	874a                	mv	a4,s2
    6f16:	85d6                	mv	a1,s5
    6f18:	8622                	mv	a2,s0
    6f1a:	39b000ef          	jal	ra,7ab4 <_dtoa_r>
    6f1e:	04700793          	li	a5,71
    6f22:	89aa                	mv	s3,a0
    6f24:	00f49663          	bne	s1,a5,6f30 <__cvt+0x72>
    6f28:	001a7a13          	andi	s4,s4,1
    6f2c:	040a0a63          	beqz	s4,6f80 <__cvt+0xc2>
    6f30:	04600793          	li	a5,70
    6f34:	01298a33          	add	s4,s3,s2
    6f38:	02f49763          	bne	s1,a5,6f66 <__cvt+0xa8>
    6f3c:	0009c703          	lbu	a4,0(s3)
    6f40:	03000793          	li	a5,48
    6f44:	00f71e63          	bne	a4,a5,6f60 <__cvt+0xa2>
    6f48:	4601                	li	a2,0
    6f4a:	4681                	li	a3,0
    6f4c:	8556                	mv	a0,s5
    6f4e:	85a2                	mv	a1,s0
    6f50:	933fe0ef          	jal	ra,5882 <__eqdf2>
    6f54:	c511                	beqz	a0,6f60 <__cvt+0xa2>
    6f56:	4785                	li	a5,1
    6f58:	41278933          	sub	s2,a5,s2
    6f5c:	012b2023          	sw	s2,0(s6)
    6f60:	000b2783          	lw	a5,0(s6)
    6f64:	9a3e                	add	s4,s4,a5
    6f66:	4601                	li	a2,0
    6f68:	4681                	li	a3,0
    6f6a:	8556                	mv	a0,s5
    6f6c:	85a2                	mv	a1,s0
    6f6e:	915fe0ef          	jal	ra,5882 <__eqdf2>
    6f72:	e111                	bnez	a0,6f76 <__cvt+0xb8>
    6f74:	c652                	sw	s4,12(sp)
    6f76:	03000713          	li	a4,48
    6f7a:	47b2                	lw	a5,12(sp)
    6f7c:	0347e263          	bltu	a5,s4,6fa0 <__cvt+0xe2>
    6f80:	47b2                	lw	a5,12(sp)
    6f82:	5742                	lw	a4,48(sp)
    6f84:	50b2                	lw	ra,44(sp)
    6f86:	5422                	lw	s0,40(sp)
    6f88:	413787b3          	sub	a5,a5,s3
    6f8c:	c31c                	sw	a5,0(a4)
    6f8e:	854e                	mv	a0,s3
    6f90:	5492                	lw	s1,36(sp)
    6f92:	5902                	lw	s2,32(sp)
    6f94:	49f2                	lw	s3,28(sp)
    6f96:	4a62                	lw	s4,24(sp)
    6f98:	4ad2                	lw	s5,20(sp)
    6f9a:	4b42                	lw	s6,16(sp)
    6f9c:	6145                	addi	sp,sp,48
    6f9e:	8082                	ret
    6fa0:	00178693          	addi	a3,a5,1
    6fa4:	c636                	sw	a3,12(sp)
    6fa6:	00e78023          	sb	a4,0(a5)
    6faa:	bfc1                	j	6f7a <__cvt+0xbc>

00006fac <__exponent>:
__exponent():
    6fac:	00c50023          	sb	a2,0(a0)
    6fb0:	00250713          	addi	a4,a0,2
    6fb4:	02b00793          	li	a5,43
    6fb8:	0005d663          	bgez	a1,6fc4 <__exponent+0x18>
    6fbc:	40b005b3          	neg	a1,a1
    6fc0:	02d00793          	li	a5,45
    6fc4:	00f500a3          	sb	a5,1(a0)
    6fc8:	47a5                	li	a5,9
    6fca:	04b7da63          	bge	a5,a1,701e <__exponent+0x72>
    6fce:	1141                	addi	sp,sp,-16
    6fd0:	00f10793          	addi	a5,sp,15
    6fd4:	88be                	mv	a7,a5
    6fd6:	4829                	li	a6,10
    6fd8:	06300313          	li	t1,99
    6fdc:	0305e6b3          	rem	a3,a1,a6
    6fe0:	fff78613          	addi	a2,a5,-1
    6fe4:	03068693          	addi	a3,a3,48
    6fe8:	fed78fa3          	sb	a3,-1(a5)
    6fec:	0305c6b3          	div	a3,a1,a6
    6ff0:	00b34d63          	blt	t1,a1,700a <__exponent+0x5e>
    6ff4:	03068693          	addi	a3,a3,48
    6ff8:	17f9                	addi	a5,a5,-2
    6ffa:	fed60fa3          	sb	a3,-1(a2) # ffffff <_data_lma+0xff53ab>
    6ffe:	0117e963          	bltu	a5,a7,7010 <__exponent+0x64>
    7002:	40a70533          	sub	a0,a4,a0
    7006:	0141                	addi	sp,sp,16
    7008:	8082                	ret
    700a:	87b2                	mv	a5,a2
    700c:	85b6                	mv	a1,a3
    700e:	b7f9                	j	6fdc <__exponent+0x30>
    7010:	0785                	addi	a5,a5,1
    7012:	fff7c683          	lbu	a3,-1(a5)
    7016:	0705                	addi	a4,a4,1
    7018:	fed70fa3          	sb	a3,-1(a4) # 7fffffff <_eusrstack+0x5ffeffff>
    701c:	b7cd                	j	6ffe <__exponent+0x52>
    701e:	03000793          	li	a5,48
    7022:	00450713          	addi	a4,a0,4
    7026:	03058593          	addi	a1,a1,48
    702a:	00f50123          	sb	a5,2(a0)
    702e:	00b501a3          	sb	a1,3(a0)
    7032:	40a70533          	sub	a0,a4,a0
    7036:	8082                	ret

00007038 <_printf_float>:
_printf_float():
    7038:	7119                	addi	sp,sp,-128
    703a:	ce3a                	sw	a4,28(sp)
    703c:	de86                	sw	ra,124(sp)
    703e:	dca2                	sw	s0,120(sp)
    7040:	daa6                	sw	s1,116(sp)
    7042:	842e                	mv	s0,a1
    7044:	d8ca                	sw	s2,112(sp)
    7046:	d6ce                	sw	s3,108(sp)
    7048:	d4d2                	sw	s4,104(sp)
    704a:	89b6                	mv	s3,a3
    704c:	d0da                	sw	s6,96(sp)
    704e:	cede                	sw	s7,92(sp)
    7050:	cce2                	sw	s8,88(sp)
    7052:	8932                	mv	s2,a2
    7054:	d2d6                	sw	s5,100(sp)
    7056:	cae6                	sw	s9,84(sp)
    7058:	c8ea                	sw	s10,80(sp)
    705a:	c6ee                	sw	s11,76(sp)
    705c:	84aa                	mv	s1,a0
    705e:	075010ef          	jal	ra,88d2 <_localeconv_r>
    7062:	00052b83          	lw	s7,0(a0)
    7066:	855e                	mv	a0,s7
    7068:	0d5000ef          	jal	ra,793c <strlen>
    706c:	00042b03          	lw	s6,0(s0)
    7070:	4772                	lw	a4,28(sp)
    7072:	dc02                	sw	zero,56(sp)
    7074:	100b7693          	andi	a3,s6,256
    7078:	8c2a                	mv	s8,a0
    707a:	01844a03          	lbu	s4,24(s0)
    707e:	431c                	lw	a5,0(a4)
    7080:	caf1                	beqz	a3,7154 <_printf_float+0x11c>
    7082:	00478693          	addi	a3,a5,4
    7086:	c314                	sw	a3,0(a4)
    7088:	439c                	lw	a5,0(a5)
    708a:	1008                	addi	a0,sp,32
    708c:	4398                	lw	a4,0(a5)
    708e:	d03a                	sw	a4,32(sp)
    7090:	43d8                	lw	a4,4(a5)
    7092:	d23a                	sw	a4,36(sp)
    7094:	4798                	lw	a4,8(a5)
    7096:	d43a                	sw	a4,40(sp)
    7098:	47dc                	lw	a5,12(a5)
    709a:	d63e                	sw	a5,44(sp)
    709c:	6ef020ef          	jal	ra,9f8a <__trunctfdf2>
    70a0:	c428                	sw	a0,72(s0)
    70a2:	c46c                	sw	a1,76(s0)
    70a4:	04c42c83          	lw	s9,76(s0)
    70a8:	00004717          	auipc	a4,0x4
    70ac:	88870713          	addi	a4,a4,-1912 # a930 <__clz_tab+0x104>
    70b0:	04842a83          	lw	s5,72(s0)
    70b4:	00072d03          	lw	s10,0(a4)
    70b8:	00472d83          	lw	s11,4(a4)
    70bc:	001c9793          	slli	a5,s9,0x1
    70c0:	8385                	srli	a5,a5,0x1
    70c2:	866a                	mv	a2,s10
    70c4:	86ee                	mv	a3,s11
    70c6:	8556                	mv	a0,s5
    70c8:	85be                	mv	a1,a5
    70ca:	ce3e                	sw	a5,28(sp)
    70cc:	a9dff0ef          	jal	ra,6b68 <__unorddf2>
    70d0:	ed41                	bnez	a0,7168 <_printf_float+0x130>
    70d2:	47f2                	lw	a5,28(sp)
    70d4:	866a                	mv	a2,s10
    70d6:	86ee                	mv	a3,s11
    70d8:	8556                	mv	a0,s5
    70da:	85be                	mv	a1,a5
    70dc:	8f5fe0ef          	jal	ra,59d0 <__ledf2>
    70e0:	08a05463          	blez	a0,7168 <_printf_float+0x130>
    70e4:	4601                	li	a2,0
    70e6:	4681                	li	a3,0
    70e8:	8556                	mv	a0,s5
    70ea:	85e6                	mv	a1,s9
    70ec:	8e5fe0ef          	jal	ra,59d0 <__ledf2>
    70f0:	00055663          	bgez	a0,70fc <_printf_float+0xc4>
    70f4:	02d00793          	li	a5,45
    70f8:	04f401a3          	sb	a5,67(s0)
    70fc:	04700793          	li	a5,71
    7100:	00004a97          	auipc	s5,0x4
    7104:	838a8a93          	addi	s5,s5,-1992 # a938 <__clz_tab+0x10c>
    7108:	0147f663          	bgeu	a5,s4,7114 <_printf_float+0xdc>
    710c:	00004a97          	auipc	s5,0x4
    7110:	830a8a93          	addi	s5,s5,-2000 # a93c <__clz_tab+0x110>
    7114:	ffbb7b13          	andi	s6,s6,-5
    7118:	478d                	li	a5,3
    711a:	01642023          	sw	s6,0(s0)
    711e:	c81c                	sw	a5,16(s0)
    7120:	4b01                	li	s6,0
    7122:	874e                	mv	a4,s3
    7124:	86ca                	mv	a3,s2
    7126:	1870                	addi	a2,sp,60
    7128:	85a2                	mv	a1,s0
    712a:	8526                	mv	a0,s1
    712c:	2ec1                	jal	74fc <_printf_common>
    712e:	5cfd                	li	s9,-1
    7130:	15951e63          	bne	a0,s9,728c <_printf_float+0x254>
    7134:	557d                	li	a0,-1
    7136:	50f6                	lw	ra,124(sp)
    7138:	5466                	lw	s0,120(sp)
    713a:	54d6                	lw	s1,116(sp)
    713c:	5946                	lw	s2,112(sp)
    713e:	59b6                	lw	s3,108(sp)
    7140:	5a26                	lw	s4,104(sp)
    7142:	5a96                	lw	s5,100(sp)
    7144:	5b06                	lw	s6,96(sp)
    7146:	4bf6                	lw	s7,92(sp)
    7148:	4c66                	lw	s8,88(sp)
    714a:	4cd6                	lw	s9,84(sp)
    714c:	4d46                	lw	s10,80(sp)
    714e:	4db6                	lw	s11,76(sp)
    7150:	6109                	addi	sp,sp,128
    7152:	8082                	ret
    7154:	079d                	addi	a5,a5,7
    7156:	9be1                	andi	a5,a5,-8
    7158:	00878693          	addi	a3,a5,8
    715c:	c314                	sw	a3,0(a4)
    715e:	4398                	lw	a4,0(a5)
    7160:	43dc                	lw	a5,4(a5)
    7162:	c438                	sw	a4,72(s0)
    7164:	c47c                	sw	a5,76(s0)
    7166:	bf3d                	j	70a4 <_printf_float+0x6c>
    7168:	8656                	mv	a2,s5
    716a:	86e6                	mv	a3,s9
    716c:	8556                	mv	a0,s5
    716e:	85e6                	mv	a1,s9
    7170:	9f9ff0ef          	jal	ra,6b68 <__unorddf2>
    7174:	cd11                	beqz	a0,7190 <_printf_float+0x158>
    7176:	04700793          	li	a5,71
    717a:	00003a97          	auipc	s5,0x3
    717e:	7c6a8a93          	addi	s5,s5,1990 # a940 <__clz_tab+0x114>
    7182:	f947f9e3          	bgeu	a5,s4,7114 <_printf_float+0xdc>
    7186:	00003a97          	auipc	s5,0x3
    718a:	7bea8a93          	addi	s5,s5,1982 # a944 <__clz_tab+0x118>
    718e:	b759                	j	7114 <_printf_float+0xdc>
    7190:	405c                	lw	a5,4(s0)
    7192:	577d                	li	a4,-1
    7194:	0dfa7d13          	andi	s10,s4,223
    7198:	08e79563          	bne	a5,a4,7222 <_printf_float+0x1ea>
    719c:	4799                	li	a5,6
    719e:	c05c                	sw	a5,4(s0)
    71a0:	4054                	lw	a3,4(s0)
    71a2:	400b6713          	ori	a4,s6,1024
    71a6:	183c                	addi	a5,sp,56
    71a8:	85d6                	mv	a1,s5
    71aa:	c03e                	sw	a5,0(sp)
    71ac:	c018                	sw	a4,0(s0)
    71ae:	03310793          	addi	a5,sp,51
    71b2:	c202                	sw	zero,4(sp)
    71b4:	88d2                	mv	a7,s4
    71b6:	03410813          	addi	a6,sp,52
    71ba:	8666                	mv	a2,s9
    71bc:	8526                	mv	a0,s1
    71be:	d01ff0ef          	jal	ra,6ebe <__cvt>
    71c2:	04700793          	li	a5,71
    71c6:	8aaa                	mv	s5,a0
    71c8:	55d2                	lw	a1,52(sp)
    71ca:	00fd1b63          	bne	s10,a5,71e0 <_printf_float+0x1a8>
    71ce:	57f5                	li	a5,-3
    71d0:	00f5c563          	blt	a1,a5,71da <_printf_float+0x1a2>
    71d4:	405c                	lw	a5,4(s0)
    71d6:	08b7d863          	bge	a5,a1,7266 <_printf_float+0x22e>
    71da:	1a79                	addi	s4,s4,-2
    71dc:	0ffa7a13          	andi	s4,s4,255
    71e0:	06500793          	li	a5,101
    71e4:	0547e663          	bltu	a5,s4,7230 <_printf_float+0x1f8>
    71e8:	15fd                	addi	a1,a1,-1
    71ea:	8652                	mv	a2,s4
    71ec:	05040513          	addi	a0,s0,80
    71f0:	da2e                	sw	a1,52(sp)
    71f2:	dbbff0ef          	jal	ra,6fac <__exponent>
    71f6:	5762                	lw	a4,56(sp)
    71f8:	4685                	li	a3,1
    71fa:	8b2a                	mv	s6,a0
    71fc:	00a707b3          	add	a5,a4,a0
    7200:	c81c                	sw	a5,16(s0)
    7202:	00e6c563          	blt	a3,a4,720c <_printf_float+0x1d4>
    7206:	4018                	lw	a4,0(s0)
    7208:	8b05                	andi	a4,a4,1
    720a:	c319                	beqz	a4,7210 <_printf_float+0x1d8>
    720c:	0785                	addi	a5,a5,1
    720e:	c81c                	sw	a5,16(s0)
    7210:	03314783          	lbu	a5,51(sp)
    7214:	f00787e3          	beqz	a5,7122 <_printf_float+0xea>
    7218:	02d00793          	li	a5,45
    721c:	04f401a3          	sb	a5,67(s0)
    7220:	b709                	j	7122 <_printf_float+0xea>
    7222:	04700713          	li	a4,71
    7226:	f6ed1de3          	bne	s10,a4,71a0 <_printf_float+0x168>
    722a:	fbbd                	bnez	a5,71a0 <_printf_float+0x168>
    722c:	4785                	li	a5,1
    722e:	bf85                	j	719e <_printf_float+0x166>
    7230:	06600793          	li	a5,102
    7234:	02fa1b63          	bne	s4,a5,726a <_printf_float+0x232>
    7238:	405c                	lw	a5,4(s0)
    723a:	00b05b63          	blez	a1,7250 <_printf_float+0x218>
    723e:	c80c                	sw	a1,16(s0)
    7240:	e781                	bnez	a5,7248 <_printf_float+0x210>
    7242:	4018                	lw	a4,0(s0)
    7244:	8b05                	andi	a4,a4,1
    7246:	cf09                	beqz	a4,7260 <_printf_float+0x228>
    7248:	0785                	addi	a5,a5,1
    724a:	97ae                	add	a5,a5,a1
    724c:	c81c                	sw	a5,16(s0)
    724e:	a809                	j	7260 <_printf_float+0x228>
    7250:	e789                	bnez	a5,725a <_printf_float+0x222>
    7252:	4018                	lw	a4,0(s0)
    7254:	4685                	li	a3,1
    7256:	8b05                	andi	a4,a4,1
    7258:	c319                	beqz	a4,725e <_printf_float+0x226>
    725a:	00278693          	addi	a3,a5,2
    725e:	c814                	sw	a3,16(s0)
    7260:	cc2c                	sw	a1,88(s0)
    7262:	4b01                	li	s6,0
    7264:	b775                	j	7210 <_printf_float+0x1d8>
    7266:	06700a13          	li	s4,103
    726a:	57e2                	lw	a5,56(sp)
    726c:	00f5c963          	blt	a1,a5,727e <_printf_float+0x246>
    7270:	401c                	lw	a5,0(s0)
    7272:	c80c                	sw	a1,16(s0)
    7274:	8b85                	andi	a5,a5,1
    7276:	d7ed                	beqz	a5,7260 <_printf_float+0x228>
    7278:	00158793          	addi	a5,a1,1
    727c:	bfc1                	j	724c <_printf_float+0x214>
    727e:	4705                	li	a4,1
    7280:	00b04463          	bgtz	a1,7288 <_printf_float+0x250>
    7284:	4709                	li	a4,2
    7286:	8f0d                	sub	a4,a4,a1
    7288:	97ba                	add	a5,a5,a4
    728a:	b7c9                	j	724c <_printf_float+0x214>
    728c:	401c                	lw	a5,0(s0)
    728e:	4007f713          	andi	a4,a5,1024
    7292:	e315                	bnez	a4,72b6 <_printf_float+0x27e>
    7294:	4814                	lw	a3,16(s0)
    7296:	8656                	mv	a2,s5
    7298:	85ca                	mv	a1,s2
    729a:	8526                	mv	a0,s1
    729c:	9982                	jalr	s3
    729e:	e9950be3          	beq	a0,s9,7134 <_printf_float+0xfc>
    72a2:	401c                	lw	a5,0(s0)
    72a4:	8b89                	andi	a5,a5,2
    72a6:	24079663          	bnez	a5,74f2 <_printf_float+0x4ba>
    72aa:	57f2                	lw	a5,60(sp)
    72ac:	4448                	lw	a0,12(s0)
    72ae:	e8f554e3          	bge	a0,a5,7136 <_printf_float+0xfe>
    72b2:	853e                	mv	a0,a5
    72b4:	b549                	j	7136 <_printf_float+0xfe>
    72b6:	06500713          	li	a4,101
    72ba:	19477b63          	bgeu	a4,s4,7450 <_printf_float+0x418>
    72be:	4428                	lw	a0,72(s0)
    72c0:	446c                	lw	a1,76(s0)
    72c2:	4601                	li	a2,0
    72c4:	4681                	li	a3,0
    72c6:	dbcfe0ef          	jal	ra,5882 <__eqdf2>
    72ca:	e939                	bnez	a0,7320 <_printf_float+0x2e8>
    72cc:	4685                	li	a3,1
    72ce:	00003617          	auipc	a2,0x3
    72d2:	67a60613          	addi	a2,a2,1658 # a948 <__clz_tab+0x11c>
    72d6:	85ca                	mv	a1,s2
    72d8:	8526                	mv	a0,s1
    72da:	9982                	jalr	s3
    72dc:	e5950ce3          	beq	a0,s9,7134 <_printf_float+0xfc>
    72e0:	5752                	lw	a4,52(sp)
    72e2:	57e2                	lw	a5,56(sp)
    72e4:	00f74563          	blt	a4,a5,72ee <_printf_float+0x2b6>
    72e8:	401c                	lw	a5,0(s0)
    72ea:	8b85                	andi	a5,a5,1
    72ec:	dbdd                	beqz	a5,72a2 <_printf_float+0x26a>
    72ee:	86e2                	mv	a3,s8
    72f0:	865e                	mv	a2,s7
    72f2:	85ca                	mv	a1,s2
    72f4:	8526                	mv	a0,s1
    72f6:	9982                	jalr	s3
    72f8:	57fd                	li	a5,-1
    72fa:	e2f50de3          	beq	a0,a5,7134 <_printf_float+0xfc>
    72fe:	4a01                	li	s4,0
    7300:	01a40a93          	addi	s5,s0,26
    7304:	5b7d                	li	s6,-1
    7306:	57e2                	lw	a5,56(sp)
    7308:	17fd                	addi	a5,a5,-1
    730a:	f8fa5ce3          	bge	s4,a5,72a2 <_printf_float+0x26a>
    730e:	4685                	li	a3,1
    7310:	8656                	mv	a2,s5
    7312:	85ca                	mv	a1,s2
    7314:	8526                	mv	a0,s1
    7316:	9982                	jalr	s3
    7318:	e1650ee3          	beq	a0,s6,7134 <_printf_float+0xfc>
    731c:	0a05                	addi	s4,s4,1
    731e:	b7e5                	j	7306 <_printf_float+0x2ce>
    7320:	57d2                	lw	a5,52(sp)
    7322:	06f04663          	bgtz	a5,738e <_printf_float+0x356>
    7326:	4685                	li	a3,1
    7328:	00003617          	auipc	a2,0x3
    732c:	62060613          	addi	a2,a2,1568 # a948 <__clz_tab+0x11c>
    7330:	85ca                	mv	a1,s2
    7332:	8526                	mv	a0,s1
    7334:	9982                	jalr	s3
    7336:	df950fe3          	beq	a0,s9,7134 <_printf_float+0xfc>
    733a:	57d2                	lw	a5,52(sp)
    733c:	5762                	lw	a4,56(sp)
    733e:	8fd9                	or	a5,a5,a4
    7340:	e781                	bnez	a5,7348 <_printf_float+0x310>
    7342:	401c                	lw	a5,0(s0)
    7344:	8b85                	andi	a5,a5,1
    7346:	dfb1                	beqz	a5,72a2 <_printf_float+0x26a>
    7348:	86e2                	mv	a3,s8
    734a:	865e                	mv	a2,s7
    734c:	85ca                	mv	a1,s2
    734e:	8526                	mv	a0,s1
    7350:	9982                	jalr	s3
    7352:	57fd                	li	a5,-1
    7354:	def500e3          	beq	a0,a5,7134 <_printf_float+0xfc>
    7358:	4a01                	li	s4,0
    735a:	01a40b13          	addi	s6,s0,26
    735e:	5bfd                	li	s7,-1
    7360:	57d2                	lw	a5,52(sp)
    7362:	40f007b3          	neg	a5,a5
    7366:	00fa4b63          	blt	s4,a5,737c <_printf_float+0x344>
    736a:	56e2                	lw	a3,56(sp)
    736c:	8656                	mv	a2,s5
    736e:	85ca                	mv	a1,s2
    7370:	8526                	mv	a0,s1
    7372:	9982                	jalr	s3
    7374:	57fd                	li	a5,-1
    7376:	f2f516e3          	bne	a0,a5,72a2 <_printf_float+0x26a>
    737a:	bb6d                	j	7134 <_printf_float+0xfc>
    737c:	4685                	li	a3,1
    737e:	865a                	mv	a2,s6
    7380:	85ca                	mv	a1,s2
    7382:	8526                	mv	a0,s1
    7384:	9982                	jalr	s3
    7386:	db7507e3          	beq	a0,s7,7134 <_printf_float+0xfc>
    738a:	0a05                	addi	s4,s4,1
    738c:	bfd1                	j	7360 <_printf_float+0x328>
    738e:	4c3c                	lw	a5,88(s0)
    7390:	5a62                	lw	s4,56(sp)
    7392:	0147d363          	bge	a5,s4,7398 <_printf_float+0x360>
    7396:	8a3e                	mv	s4,a5
    7398:	01405a63          	blez	s4,73ac <_printf_float+0x374>
    739c:	86d2                	mv	a3,s4
    739e:	8656                	mv	a2,s5
    73a0:	85ca                	mv	a1,s2
    73a2:	8526                	mv	a0,s1
    73a4:	9982                	jalr	s3
    73a6:	57fd                	li	a5,-1
    73a8:	d8f506e3          	beq	a0,a5,7134 <_printf_float+0xfc>
    73ac:	4c81                	li	s9,0
    73ae:	01a40d13          	addi	s10,s0,26
    73b2:	5dfd                	li	s11,-1
    73b4:	a809                	j	73c6 <_printf_float+0x38e>
    73b6:	4685                	li	a3,1
    73b8:	866a                	mv	a2,s10
    73ba:	85ca                	mv	a1,s2
    73bc:	8526                	mv	a0,s1
    73be:	9982                	jalr	s3
    73c0:	d7b50ae3          	beq	a0,s11,7134 <_printf_float+0xfc>
    73c4:	0c85                	addi	s9,s9,1
    73c6:	05842b03          	lw	s6,88(s0)
    73ca:	87d2                	mv	a5,s4
    73cc:	000a5363          	bgez	s4,73d2 <_printf_float+0x39a>
    73d0:	4781                	li	a5,0
    73d2:	40fb07b3          	sub	a5,s6,a5
    73d6:	fefcc0e3          	blt	s9,a5,73b6 <_printf_float+0x37e>
    73da:	5752                	lw	a4,52(sp)
    73dc:	57e2                	lw	a5,56(sp)
    73de:	02f74d63          	blt	a4,a5,7418 <_printf_float+0x3e0>
    73e2:	401c                	lw	a5,0(s0)
    73e4:	8b85                	andi	a5,a5,1
    73e6:	eb8d                	bnez	a5,7418 <_printf_float+0x3e0>
    73e8:	57e2                	lw	a5,56(sp)
    73ea:	5752                	lw	a4,52(sp)
    73ec:	40e78a33          	sub	s4,a5,a4
    73f0:	00eb4463          	blt	s6,a4,73f8 <_printf_float+0x3c0>
    73f4:	41678a33          	sub	s4,a5,s6
    73f8:	01405b63          	blez	s4,740e <_printf_float+0x3d6>
    73fc:	86d2                	mv	a3,s4
    73fe:	016a8633          	add	a2,s5,s6
    7402:	85ca                	mv	a1,s2
    7404:	8526                	mv	a0,s1
    7406:	9982                	jalr	s3
    7408:	57fd                	li	a5,-1
    740a:	d2f505e3          	beq	a0,a5,7134 <_printf_float+0xfc>
    740e:	4a81                	li	s5,0
    7410:	01a40b13          	addi	s6,s0,26
    7414:	5bfd                	li	s7,-1
    7416:	a015                	j	743a <_printf_float+0x402>
    7418:	86e2                	mv	a3,s8
    741a:	865e                	mv	a2,s7
    741c:	85ca                	mv	a1,s2
    741e:	8526                	mv	a0,s1
    7420:	9982                	jalr	s3
    7422:	57fd                	li	a5,-1
    7424:	fcf512e3          	bne	a0,a5,73e8 <_printf_float+0x3b0>
    7428:	b331                	j	7134 <_printf_float+0xfc>
    742a:	4685                	li	a3,1
    742c:	865a                	mv	a2,s6
    742e:	85ca                	mv	a1,s2
    7430:	8526                	mv	a0,s1
    7432:	9982                	jalr	s3
    7434:	d17500e3          	beq	a0,s7,7134 <_printf_float+0xfc>
    7438:	0a85                	addi	s5,s5,1
    743a:	5752                	lw	a4,52(sp)
    743c:	57e2                	lw	a5,56(sp)
    743e:	8f99                	sub	a5,a5,a4
    7440:	8752                	mv	a4,s4
    7442:	000a5363          	bgez	s4,7448 <_printf_float+0x410>
    7446:	4701                	li	a4,0
    7448:	8f99                	sub	a5,a5,a4
    744a:	fefac0e3          	blt	s5,a5,742a <_printf_float+0x3f2>
    744e:	bd91                	j	72a2 <_printf_float+0x26a>
    7450:	56e2                	lw	a3,56(sp)
    7452:	4705                	li	a4,1
    7454:	00d74463          	blt	a4,a3,745c <_printf_float+0x424>
    7458:	8b85                	andi	a5,a5,1
    745a:	c7b5                	beqz	a5,74c6 <_printf_float+0x48e>
    745c:	4685                	li	a3,1
    745e:	8656                	mv	a2,s5
    7460:	85ca                	mv	a1,s2
    7462:	8526                	mv	a0,s1
    7464:	9982                	jalr	s3
    7466:	5a7d                	li	s4,-1
    7468:	cd4506e3          	beq	a0,s4,7134 <_printf_float+0xfc>
    746c:	86e2                	mv	a3,s8
    746e:	865e                	mv	a2,s7
    7470:	85ca                	mv	a1,s2
    7472:	8526                	mv	a0,s1
    7474:	9982                	jalr	s3
    7476:	cb450fe3          	beq	a0,s4,7134 <_printf_float+0xfc>
    747a:	4428                	lw	a0,72(s0)
    747c:	446c                	lw	a1,76(s0)
    747e:	4601                	li	a2,0
    7480:	4681                	li	a3,0
    7482:	c00fe0ef          	jal	ra,5882 <__eqdf2>
    7486:	c91d                	beqz	a0,74bc <_printf_float+0x484>
    7488:	56e2                	lw	a3,56(sp)
    748a:	001a8613          	addi	a2,s5,1
    748e:	85ca                	mv	a1,s2
    7490:	16fd                	addi	a3,a3,-1
    7492:	8526                	mv	a0,s1
    7494:	9982                	jalr	s3
    7496:	c9450fe3          	beq	a0,s4,7134 <_printf_float+0xfc>
    749a:	86da                	mv	a3,s6
    749c:	05040613          	addi	a2,s0,80
    74a0:	b5f9                	j	736e <_printf_float+0x336>
    74a2:	4685                	li	a3,1
    74a4:	8656                	mv	a2,s5
    74a6:	85ca                	mv	a1,s2
    74a8:	8526                	mv	a0,s1
    74aa:	9982                	jalr	s3
    74ac:	c97504e3          	beq	a0,s7,7134 <_printf_float+0xfc>
    74b0:	0a05                	addi	s4,s4,1
    74b2:	57e2                	lw	a5,56(sp)
    74b4:	17fd                	addi	a5,a5,-1
    74b6:	fefa46e3          	blt	s4,a5,74a2 <_printf_float+0x46a>
    74ba:	b7c5                	j	749a <_printf_float+0x462>
    74bc:	4a01                	li	s4,0
    74be:	01a40a93          	addi	s5,s0,26
    74c2:	5bfd                	li	s7,-1
    74c4:	b7fd                	j	74b2 <_printf_float+0x47a>
    74c6:	4685                	li	a3,1
    74c8:	8656                	mv	a2,s5
    74ca:	85ca                	mv	a1,s2
    74cc:	8526                	mv	a0,s1
    74ce:	9982                	jalr	s3
    74d0:	fd9515e3          	bne	a0,s9,749a <_printf_float+0x462>
    74d4:	b185                	j	7134 <_printf_float+0xfc>
    74d6:	4685                	li	a3,1
    74d8:	8656                	mv	a2,s5
    74da:	85ca                	mv	a1,s2
    74dc:	8526                	mv	a0,s1
    74de:	9982                	jalr	s3
    74e0:	c5650ae3          	beq	a0,s6,7134 <_printf_float+0xfc>
    74e4:	0a05                	addi	s4,s4,1
    74e6:	445c                	lw	a5,12(s0)
    74e8:	5772                	lw	a4,60(sp)
    74ea:	8f99                	sub	a5,a5,a4
    74ec:	fefa45e3          	blt	s4,a5,74d6 <_printf_float+0x49e>
    74f0:	bb6d                	j	72aa <_printf_float+0x272>
    74f2:	4a01                	li	s4,0
    74f4:	01940a93          	addi	s5,s0,25
    74f8:	5b7d                	li	s6,-1
    74fa:	b7f5                	j	74e6 <_printf_float+0x4ae>

000074fc <_printf_common>:
_printf_common():
    74fc:	7179                	addi	sp,sp,-48
    74fe:	ca56                	sw	s5,20(sp)
    7500:	499c                	lw	a5,16(a1)
    7502:	8aba                	mv	s5,a4
    7504:	4598                	lw	a4,8(a1)
    7506:	d422                	sw	s0,40(sp)
    7508:	d226                	sw	s1,36(sp)
    750a:	ce4e                	sw	s3,28(sp)
    750c:	cc52                	sw	s4,24(sp)
    750e:	d606                	sw	ra,44(sp)
    7510:	d04a                	sw	s2,32(sp)
    7512:	c85a                	sw	s6,16(sp)
    7514:	c65e                	sw	s7,12(sp)
    7516:	89aa                	mv	s3,a0
    7518:	842e                	mv	s0,a1
    751a:	84b2                	mv	s1,a2
    751c:	8a36                	mv	s4,a3
    751e:	00e7d363          	bge	a5,a4,7524 <_printf_common+0x28>
    7522:	87ba                	mv	a5,a4
    7524:	c09c                	sw	a5,0(s1)
    7526:	04344703          	lbu	a4,67(s0)
    752a:	c319                	beqz	a4,7530 <_printf_common+0x34>
    752c:	0785                	addi	a5,a5,1
    752e:	c09c                	sw	a5,0(s1)
    7530:	401c                	lw	a5,0(s0)
    7532:	0207f793          	andi	a5,a5,32
    7536:	c781                	beqz	a5,753e <_printf_common+0x42>
    7538:	409c                	lw	a5,0(s1)
    753a:	0789                	addi	a5,a5,2
    753c:	c09c                	sw	a5,0(s1)
    753e:	00042903          	lw	s2,0(s0)
    7542:	00697913          	andi	s2,s2,6
    7546:	00091a63          	bnez	s2,755a <_printf_common+0x5e>
    754a:	01940b13          	addi	s6,s0,25
    754e:	5bfd                	li	s7,-1
    7550:	445c                	lw	a5,12(s0)
    7552:	4098                	lw	a4,0(s1)
    7554:	8f99                	sub	a5,a5,a4
    7556:	04f94c63          	blt	s2,a5,75ae <_printf_common+0xb2>
    755a:	401c                	lw	a5,0(s0)
    755c:	04344683          	lbu	a3,67(s0)
    7560:	0207f793          	andi	a5,a5,32
    7564:	00d036b3          	snez	a3,a3
    7568:	eba5                	bnez	a5,75d8 <_printf_common+0xdc>
    756a:	04340613          	addi	a2,s0,67
    756e:	85d2                	mv	a1,s4
    7570:	854e                	mv	a0,s3
    7572:	9a82                	jalr	s5
    7574:	57fd                	li	a5,-1
    7576:	04f50363          	beq	a0,a5,75bc <_printf_common+0xc0>
    757a:	401c                	lw	a5,0(s0)
    757c:	4611                	li	a2,4
    757e:	4098                	lw	a4,0(s1)
    7580:	8b99                	andi	a5,a5,6
    7582:	4454                	lw	a3,12(s0)
    7584:	4481                	li	s1,0
    7586:	00c79763          	bne	a5,a2,7594 <_printf_common+0x98>
    758a:	40e684b3          	sub	s1,a3,a4
    758e:	0004d363          	bgez	s1,7594 <_printf_common+0x98>
    7592:	4481                	li	s1,0
    7594:	441c                	lw	a5,8(s0)
    7596:	4818                	lw	a4,16(s0)
    7598:	00f75463          	bge	a4,a5,75a0 <_printf_common+0xa4>
    759c:	8f99                	sub	a5,a5,a4
    759e:	94be                	add	s1,s1,a5
    75a0:	4901                	li	s2,0
    75a2:	0469                	addi	s0,s0,26
    75a4:	5b7d                	li	s6,-1
    75a6:	05249863          	bne	s1,s2,75f6 <_printf_common+0xfa>
    75aa:	4501                	li	a0,0
    75ac:	a809                	j	75be <_printf_common+0xc2>
    75ae:	4685                	li	a3,1
    75b0:	865a                	mv	a2,s6
    75b2:	85d2                	mv	a1,s4
    75b4:	854e                	mv	a0,s3
    75b6:	9a82                	jalr	s5
    75b8:	01751e63          	bne	a0,s7,75d4 <_printf_common+0xd8>
    75bc:	557d                	li	a0,-1
    75be:	50b2                	lw	ra,44(sp)
    75c0:	5422                	lw	s0,40(sp)
    75c2:	5492                	lw	s1,36(sp)
    75c4:	5902                	lw	s2,32(sp)
    75c6:	49f2                	lw	s3,28(sp)
    75c8:	4a62                	lw	s4,24(sp)
    75ca:	4ad2                	lw	s5,20(sp)
    75cc:	4b42                	lw	s6,16(sp)
    75ce:	4bb2                	lw	s7,12(sp)
    75d0:	6145                	addi	sp,sp,48
    75d2:	8082                	ret
    75d4:	0905                	addi	s2,s2,1
    75d6:	bfad                	j	7550 <_printf_common+0x54>
    75d8:	00d40733          	add	a4,s0,a3
    75dc:	03000613          	li	a2,48
    75e0:	04c701a3          	sb	a2,67(a4)
    75e4:	04544703          	lbu	a4,69(s0)
    75e8:	00168793          	addi	a5,a3,1
    75ec:	97a2                	add	a5,a5,s0
    75ee:	0689                	addi	a3,a3,2
    75f0:	04e781a3          	sb	a4,67(a5)
    75f4:	bf9d                	j	756a <_printf_common+0x6e>
    75f6:	4685                	li	a3,1
    75f8:	8622                	mv	a2,s0
    75fa:	85d2                	mv	a1,s4
    75fc:	854e                	mv	a0,s3
    75fe:	9a82                	jalr	s5
    7600:	fb650ee3          	beq	a0,s6,75bc <_printf_common+0xc0>
    7604:	0905                	addi	s2,s2,1
    7606:	b745                	j	75a6 <_printf_common+0xaa>

00007608 <_printf_i>:
_printf_i():
    7608:	7179                	addi	sp,sp,-48
    760a:	d422                	sw	s0,40(sp)
    760c:	d226                	sw	s1,36(sp)
    760e:	d04a                	sw	s2,32(sp)
    7610:	ce4e                	sw	s3,28(sp)
    7612:	d606                	sw	ra,44(sp)
    7614:	cc52                	sw	s4,24(sp)
    7616:	ca56                	sw	s5,20(sp)
    7618:	c85a                	sw	s6,16(sp)
    761a:	89b6                	mv	s3,a3
    761c:	0185c683          	lbu	a3,24(a1)
    7620:	06900793          	li	a5,105
    7624:	8932                	mv	s2,a2
    7626:	84aa                	mv	s1,a0
    7628:	842e                	mv	s0,a1
    762a:	04358613          	addi	a2,a1,67
    762e:	02f68d63          	beq	a3,a5,7668 <_printf_i+0x60>
    7632:	06d7e263          	bltu	a5,a3,7696 <_printf_i+0x8e>
    7636:	05800793          	li	a5,88
    763a:	18f68963          	beq	a3,a5,77cc <_printf_i+0x1c4>
    763e:	00d7ed63          	bltu	a5,a3,7658 <_printf_i+0x50>
    7642:	22068263          	beqz	a3,7866 <_printf_i+0x25e>
    7646:	04300793          	li	a5,67
    764a:	0af68f63          	beq	a3,a5,7708 <_printf_i+0x100>
    764e:	04240a93          	addi	s5,s0,66
    7652:	04d40123          	sb	a3,66(s0)
    7656:	a0d1                	j	771a <_printf_i+0x112>
    7658:	06300793          	li	a5,99
    765c:	0af68663          	beq	a3,a5,7708 <_printf_i+0x100>
    7660:	06400793          	li	a5,100
    7664:	fef695e3          	bne	a3,a5,764e <_printf_i+0x46>
    7668:	401c                	lw	a5,0(s0)
    766a:	4308                	lw	a0,0(a4)
    766c:	0807f693          	andi	a3,a5,128
    7670:	00450593          	addi	a1,a0,4
    7674:	c6cd                	beqz	a3,771e <_printf_i+0x116>
    7676:	411c                	lw	a5,0(a0)
    7678:	c30c                	sw	a1,0(a4)
    767a:	0007d863          	bgez	a5,768a <_printf_i+0x82>
    767e:	02d00713          	li	a4,45
    7682:	40f007b3          	neg	a5,a5
    7686:	04e401a3          	sb	a4,67(s0)
    768a:	00003697          	auipc	a3,0x3
    768e:	2c268693          	addi	a3,a3,706 # a94c <__clz_tab+0x120>
    7692:	4729                	li	a4,10
    7694:	a875                	j	7750 <_printf_i+0x148>
    7696:	07000793          	li	a5,112
    769a:	16f68563          	beq	a3,a5,7804 <_printf_i+0x1fc>
    769e:	02d7e563          	bltu	a5,a3,76c8 <_printf_i+0xc0>
    76a2:	06e00793          	li	a5,110
    76a6:	18f68c63          	beq	a3,a5,783e <_printf_i+0x236>
    76aa:	06f00793          	li	a5,111
    76ae:	faf690e3          	bne	a3,a5,764e <_printf_i+0x46>
    76b2:	400c                	lw	a1,0(s0)
    76b4:	431c                	lw	a5,0(a4)
    76b6:	0805f813          	andi	a6,a1,128
    76ba:	00478513          	addi	a0,a5,4
    76be:	06080863          	beqz	a6,772e <_printf_i+0x126>
    76c2:	c308                	sw	a0,0(a4)
    76c4:	439c                	lw	a5,0(a5)
    76c6:	a895                	j	773a <_printf_i+0x132>
    76c8:	07500793          	li	a5,117
    76cc:	fef683e3          	beq	a3,a5,76b2 <_printf_i+0xaa>
    76d0:	07800793          	li	a5,120
    76d4:	12f68c63          	beq	a3,a5,780c <_printf_i+0x204>
    76d8:	07300793          	li	a5,115
    76dc:	f6f699e3          	bne	a3,a5,764e <_printf_i+0x46>
    76e0:	431c                	lw	a5,0(a4)
    76e2:	41d0                	lw	a2,4(a1)
    76e4:	4581                	li	a1,0
    76e6:	00478693          	addi	a3,a5,4
    76ea:	c314                	sw	a3,0(a4)
    76ec:	0007aa83          	lw	s5,0(a5)
    76f0:	8556                	mv	a0,s5
    76f2:	204010ef          	jal	ra,88f6 <memchr>
    76f6:	c501                	beqz	a0,76fe <_printf_i+0xf6>
    76f8:	41550533          	sub	a0,a0,s5
    76fc:	c048                	sw	a0,4(s0)
    76fe:	405c                	lw	a5,4(s0)
    7700:	c81c                	sw	a5,16(s0)
    7702:	040401a3          	sb	zero,67(s0)
    7706:	a871                	j	77a2 <_printf_i+0x19a>
    7708:	431c                	lw	a5,0(a4)
    770a:	04240a93          	addi	s5,s0,66
    770e:	00478693          	addi	a3,a5,4
    7712:	439c                	lw	a5,0(a5)
    7714:	c314                	sw	a3,0(a4)
    7716:	04f40123          	sb	a5,66(s0)
    771a:	4785                	li	a5,1
    771c:	b7d5                	j	7700 <_printf_i+0xf8>
    771e:	0407f693          	andi	a3,a5,64
    7722:	411c                	lw	a5,0(a0)
    7724:	c30c                	sw	a1,0(a4)
    7726:	dab1                	beqz	a3,767a <_printf_i+0x72>
    7728:	07c2                	slli	a5,a5,0x10
    772a:	87c1                	srai	a5,a5,0x10
    772c:	b7b9                	j	767a <_printf_i+0x72>
    772e:	0405f593          	andi	a1,a1,64
    7732:	c308                	sw	a0,0(a4)
    7734:	d9c1                	beqz	a1,76c4 <_printf_i+0xbc>
    7736:	0007d783          	lhu	a5,0(a5)
    773a:	06f00713          	li	a4,111
    773e:	0ee68863          	beq	a3,a4,782e <_printf_i+0x226>
    7742:	00003697          	auipc	a3,0x3
    7746:	20a68693          	addi	a3,a3,522 # a94c <__clz_tab+0x120>
    774a:	4729                	li	a4,10
    774c:	040401a3          	sb	zero,67(s0)
    7750:	404c                	lw	a1,4(s0)
    7752:	c40c                	sw	a1,8(s0)
    7754:	0005c563          	bltz	a1,775e <_printf_i+0x156>
    7758:	4008                	lw	a0,0(s0)
    775a:	996d                	andi	a0,a0,-5
    775c:	c008                	sw	a0,0(s0)
    775e:	e399                	bnez	a5,7764 <_printf_i+0x15c>
    7760:	8ab2                	mv	s5,a2
    7762:	cd91                	beqz	a1,777e <_printf_i+0x176>
    7764:	8ab2                	mv	s5,a2
    7766:	02e7f5b3          	remu	a1,a5,a4
    776a:	1afd                	addi	s5,s5,-1
    776c:	95b6                	add	a1,a1,a3
    776e:	0005c583          	lbu	a1,0(a1)
    7772:	00ba8023          	sb	a1,0(s5)
    7776:	02e7d5b3          	divu	a1,a5,a4
    777a:	0ce7f063          	bgeu	a5,a4,783a <_printf_i+0x232>
    777e:	47a1                	li	a5,8
    7780:	00f71e63          	bne	a4,a5,779c <_printf_i+0x194>
    7784:	401c                	lw	a5,0(s0)
    7786:	8b85                	andi	a5,a5,1
    7788:	cb91                	beqz	a5,779c <_printf_i+0x194>
    778a:	4058                	lw	a4,4(s0)
    778c:	481c                	lw	a5,16(s0)
    778e:	00e7c763          	blt	a5,a4,779c <_printf_i+0x194>
    7792:	03000793          	li	a5,48
    7796:	fefa8fa3          	sb	a5,-1(s5)
    779a:	1afd                	addi	s5,s5,-1
    779c:	41560633          	sub	a2,a2,s5
    77a0:	c810                	sw	a2,16(s0)
    77a2:	874e                	mv	a4,s3
    77a4:	86ca                	mv	a3,s2
    77a6:	0070                	addi	a2,sp,12
    77a8:	85a2                	mv	a1,s0
    77aa:	8526                	mv	a0,s1
    77ac:	d51ff0ef          	jal	ra,74fc <_printf_common>
    77b0:	5a7d                	li	s4,-1
    77b2:	0b451e63          	bne	a0,s4,786e <_printf_i+0x266>
    77b6:	557d                	li	a0,-1
    77b8:	50b2                	lw	ra,44(sp)
    77ba:	5422                	lw	s0,40(sp)
    77bc:	5492                	lw	s1,36(sp)
    77be:	5902                	lw	s2,32(sp)
    77c0:	49f2                	lw	s3,28(sp)
    77c2:	4a62                	lw	s4,24(sp)
    77c4:	4ad2                	lw	s5,20(sp)
    77c6:	4b42                	lw	s6,16(sp)
    77c8:	6145                	addi	sp,sp,48
    77ca:	8082                	ret
    77cc:	04d582a3          	sb	a3,69(a1)
    77d0:	00003697          	auipc	a3,0x3
    77d4:	17c68693          	addi	a3,a3,380 # a94c <__clz_tab+0x120>
    77d8:	400c                	lw	a1,0(s0)
    77da:	4308                	lw	a0,0(a4)
    77dc:	0805f813          	andi	a6,a1,128
    77e0:	411c                	lw	a5,0(a0)
    77e2:	0511                	addi	a0,a0,4
    77e4:	02080d63          	beqz	a6,781e <_printf_i+0x216>
    77e8:	c308                	sw	a0,0(a4)
    77ea:	0015f713          	andi	a4,a1,1
    77ee:	c701                	beqz	a4,77f6 <_printf_i+0x1ee>
    77f0:	0205e593          	ori	a1,a1,32
    77f4:	c00c                	sw	a1,0(s0)
    77f6:	4741                	li	a4,16
    77f8:	fbb1                	bnez	a5,774c <_printf_i+0x144>
    77fa:	400c                	lw	a1,0(s0)
    77fc:	fdf5f593          	andi	a1,a1,-33
    7800:	c00c                	sw	a1,0(s0)
    7802:	b7a9                	j	774c <_printf_i+0x144>
    7804:	419c                	lw	a5,0(a1)
    7806:	0207e793          	ori	a5,a5,32
    780a:	c19c                	sw	a5,0(a1)
    780c:	07800793          	li	a5,120
    7810:	04f402a3          	sb	a5,69(s0)
    7814:	00003697          	auipc	a3,0x3
    7818:	14c68693          	addi	a3,a3,332 # a960 <__clz_tab+0x134>
    781c:	bf75                	j	77d8 <_printf_i+0x1d0>
    781e:	0405f813          	andi	a6,a1,64
    7822:	c308                	sw	a0,0(a4)
    7824:	fc0803e3          	beqz	a6,77ea <_printf_i+0x1e2>
    7828:	07c2                	slli	a5,a5,0x10
    782a:	83c1                	srli	a5,a5,0x10
    782c:	bf7d                	j	77ea <_printf_i+0x1e2>
    782e:	00003697          	auipc	a3,0x3
    7832:	11e68693          	addi	a3,a3,286 # a94c <__clz_tab+0x120>
    7836:	4721                	li	a4,8
    7838:	bf11                	j	774c <_printf_i+0x144>
    783a:	87ae                	mv	a5,a1
    783c:	b72d                	j	7766 <_printf_i+0x15e>
    783e:	4194                	lw	a3,0(a1)
    7840:	431c                	lw	a5,0(a4)
    7842:	49cc                	lw	a1,20(a1)
    7844:	0806f813          	andi	a6,a3,128
    7848:	00478513          	addi	a0,a5,4
    784c:	00080663          	beqz	a6,7858 <_printf_i+0x250>
    7850:	c308                	sw	a0,0(a4)
    7852:	439c                	lw	a5,0(a5)
    7854:	c38c                	sw	a1,0(a5)
    7856:	a801                	j	7866 <_printf_i+0x25e>
    7858:	c308                	sw	a0,0(a4)
    785a:	0406f693          	andi	a3,a3,64
    785e:	439c                	lw	a5,0(a5)
    7860:	daf5                	beqz	a3,7854 <_printf_i+0x24c>
    7862:	00b79023          	sh	a1,0(a5)
    7866:	00042823          	sw	zero,16(s0)
    786a:	8ab2                	mv	s5,a2
    786c:	bf1d                	j	77a2 <_printf_i+0x19a>
    786e:	4814                	lw	a3,16(s0)
    7870:	8656                	mv	a2,s5
    7872:	85ca                	mv	a1,s2
    7874:	8526                	mv	a0,s1
    7876:	9982                	jalr	s3
    7878:	f3450fe3          	beq	a0,s4,77b6 <_printf_i+0x1ae>
    787c:	401c                	lw	a5,0(s0)
    787e:	8b89                	andi	a5,a5,2
    7880:	e78d                	bnez	a5,78aa <_printf_i+0x2a2>
    7882:	47b2                	lw	a5,12(sp)
    7884:	4448                	lw	a0,12(s0)
    7886:	f2f559e3          	bge	a0,a5,77b8 <_printf_i+0x1b0>
    788a:	853e                	mv	a0,a5
    788c:	b735                	j	77b8 <_printf_i+0x1b0>
    788e:	4685                	li	a3,1
    7890:	8656                	mv	a2,s5
    7892:	85ca                	mv	a1,s2
    7894:	8526                	mv	a0,s1
    7896:	9982                	jalr	s3
    7898:	f1650fe3          	beq	a0,s6,77b6 <_printf_i+0x1ae>
    789c:	0a05                	addi	s4,s4,1
    789e:	445c                	lw	a5,12(s0)
    78a0:	4732                	lw	a4,12(sp)
    78a2:	8f99                	sub	a5,a5,a4
    78a4:	fefa45e3          	blt	s4,a5,788e <_printf_i+0x286>
    78a8:	bfe9                	j	7882 <_printf_i+0x27a>
    78aa:	4a01                	li	s4,0
    78ac:	01940a93          	addi	s5,s0,25
    78b0:	5b7d                	li	s6,-1
    78b2:	b7f5                	j	789e <_printf_i+0x296>

000078b4 <iprintf>:
printf():
    78b4:	7139                	addi	sp,sp,-64
    78b6:	da3e                	sw	a5,52(sp)
    78b8:	d22e                	sw	a1,36(sp)
    78ba:	d432                	sw	a2,40(sp)
    78bc:	d636                	sw	a3,44(sp)
    78be:	d83a                	sw	a4,48(sp)
    78c0:	dc42                	sw	a6,56(sp)
    78c2:	de46                	sw	a7,60(sp)
    78c4:	82418793          	addi	a5,gp,-2012 # 2000025c <_impure_ptr>
    78c8:	cc22                	sw	s0,24(sp)
    78ca:	4380                	lw	s0,0(a5)
    78cc:	ca26                	sw	s1,20(sp)
    78ce:	ce06                	sw	ra,28(sp)
    78d0:	84aa                	mv	s1,a0
    78d2:	c411                	beqz	s0,78de <iprintf+0x2a>
    78d4:	4c1c                	lw	a5,24(s0)
    78d6:	e781                	bnez	a5,78de <iprintf+0x2a>
    78d8:	8522                	mv	a0,s0
    78da:	681000ef          	jal	ra,875a <__sinit>
    78de:	440c                	lw	a1,8(s0)
    78e0:	1054                	addi	a3,sp,36
    78e2:	8626                	mv	a2,s1
    78e4:	8522                	mv	a0,s0
    78e6:	c636                	sw	a3,12(sp)
    78e8:	49b010ef          	jal	ra,9582 <_vfiprintf_r>
    78ec:	40f2                	lw	ra,28(sp)
    78ee:	4462                	lw	s0,24(sp)
    78f0:	44d2                	lw	s1,20(sp)
    78f2:	6121                	addi	sp,sp,64
    78f4:	8082                	ret

000078f6 <siprintf>:
sprintf():
    78f6:	7135                	addi	sp,sp,-160
    78f8:	cb3e                	sw	a5,148(sp)
    78fa:	800007b7          	lui	a5,0x80000
    78fe:	fff7c793          	not	a5,a5
    7902:	ce3e                	sw	a5,28(sp)
    7904:	c83e                	sw	a5,16(sp)
    7906:	77c1                	lui	a5,0xffff0
    7908:	20878793          	addi	a5,a5,520 # ffff0208 <_eusrstack+0xdffe0208>
    790c:	c532                	sw	a2,136(sp)
    790e:	c736                	sw	a3,140(sp)
    7910:	c93a                	sw	a4,144(sp)
    7912:	cd42                	sw	a6,152(sp)
    7914:	cf46                	sw	a7,156(sp)
    7916:	ca3e                	sw	a5,20(sp)
    7918:	82418793          	addi	a5,gp,-2012 # 2000025c <_impure_ptr>
    791c:	c42a                	sw	a0,8(sp)
    791e:	cc2a                	sw	a0,24(sp)
    7920:	4388                	lw	a0,0(a5)
    7922:	0134                	addi	a3,sp,136
    7924:	862e                	mv	a2,a1
    7926:	002c                	addi	a1,sp,8
    7928:	de86                	sw	ra,124(sp)
    792a:	c236                	sw	a3,4(sp)
    792c:	16d010ef          	jal	ra,9298 <_svfiprintf_r>
    7930:	47a2                	lw	a5,8(sp)
    7932:	00078023          	sb	zero,0(a5)
    7936:	50f6                	lw	ra,124(sp)
    7938:	610d                	addi	sp,sp,160
    793a:	8082                	ret

0000793c <strlen>:
strlen():
    793c:	87aa                	mv	a5,a0
    793e:	0785                	addi	a5,a5,1
    7940:	fff7c703          	lbu	a4,-1(a5)
    7944:	ff6d                	bnez	a4,793e <strlen+0x2>
    7946:	40a78533          	sub	a0,a5,a0
    794a:	157d                	addi	a0,a0,-1
    794c:	8082                	ret

0000794e <strncmp>:
strncmp():
    794e:	c605                	beqz	a2,7976 <strncmp+0x28>
    7950:	167d                	addi	a2,a2,-1
    7952:	4701                	li	a4,0
    7954:	00e507b3          	add	a5,a0,a4
    7958:	00e586b3          	add	a3,a1,a4
    795c:	0007c783          	lbu	a5,0(a5)
    7960:	0006c683          	lbu	a3,0(a3)
    7964:	00d79663          	bne	a5,a3,7970 <strncmp+0x22>
    7968:	00c70463          	beq	a4,a2,7970 <strncmp+0x22>
    796c:	0705                	addi	a4,a4,1
    796e:	f3fd                	bnez	a5,7954 <strncmp+0x6>
    7970:	40d78533          	sub	a0,a5,a3
    7974:	8082                	ret
    7976:	4501                	li	a0,0
    7978:	8082                	ret

0000797a <quorem>:
quorem():
    797a:	1101                	addi	sp,sp,-32
    797c:	cc22                	sw	s0,24(sp)
    797e:	491c                	lw	a5,16(a0)
    7980:	4980                	lw	s0,16(a1)
    7982:	ce06                	sw	ra,28(sp)
    7984:	ca26                	sw	s1,20(sp)
    7986:	c84a                	sw	s2,16(sp)
    7988:	c64e                	sw	s3,12(sp)
    798a:	c452                	sw	s4,8(sp)
    798c:	c256                	sw	s5,4(sp)
    798e:	1287c163          	blt	a5,s0,7ab0 <quorem+0x136>
    7992:	147d                	addi	s0,s0,-1
    7994:	00241813          	slli	a6,s0,0x2
    7998:	01458993          	addi	s3,a1,20
    799c:	01098a33          	add	s4,s3,a6
    79a0:	01450913          	addi	s2,a0,20
    79a4:	984a                	add	a6,a6,s2
    79a6:	000a2783          	lw	a5,0(s4)
    79aa:	00082703          	lw	a4,0(a6) # 100000 <_data_lma+0xf53ac>
    79ae:	0785                	addi	a5,a5,1
    79b0:	02f754b3          	divu	s1,a4,a5
    79b4:	06f76663          	bltu	a4,a5,7a20 <quorem+0xa6>
    79b8:	68c1                	lui	a7,0x10
    79ba:	834e                	mv	t1,s3
    79bc:	8e4a                	mv	t3,s2
    79be:	4e81                	li	t4,0
    79c0:	4f01                	li	t5,0
    79c2:	18fd                	addi	a7,a7,-1
    79c4:	0311                	addi	t1,t1,4
    79c6:	ffc32603          	lw	a2,-4(t1) # 3ffffc <_data_lma+0x3f53a8>
    79ca:	0e11                	addi	t3,t3,4
    79cc:	01167733          	and	a4,a2,a7
    79d0:	8241                	srli	a2,a2,0x10
    79d2:	02970733          	mul	a4,a4,s1
    79d6:	02960633          	mul	a2,a2,s1
    79da:	9776                	add	a4,a4,t4
    79dc:	01075693          	srli	a3,a4,0x10
    79e0:	011777b3          	and	a5,a4,a7
    79e4:	40ff07b3          	sub	a5,t5,a5
    79e8:	9636                	add	a2,a2,a3
    79ea:	ffce2683          	lw	a3,-4(t3)
    79ee:	01065e93          	srli	t4,a2,0x10
    79f2:	01167633          	and	a2,a2,a7
    79f6:	0116f733          	and	a4,a3,a7
    79fa:	97ba                	add	a5,a5,a4
    79fc:	82c1                	srli	a3,a3,0x10
    79fe:	4107d713          	srai	a4,a5,0x10
    7a02:	8e91                	sub	a3,a3,a2
    7a04:	96ba                	add	a3,a3,a4
    7a06:	4106df13          	srai	t5,a3,0x10
    7a0a:	0117f7b3          	and	a5,a5,a7
    7a0e:	06c2                	slli	a3,a3,0x10
    7a10:	8fd5                	or	a5,a5,a3
    7a12:	fefe2e23          	sw	a5,-4(t3)
    7a16:	fa6a77e3          	bgeu	s4,t1,79c4 <quorem+0x4a>
    7a1a:	00082783          	lw	a5,0(a6)
    7a1e:	cbbd                	beqz	a5,7a94 <quorem+0x11a>
    7a20:	8aaa                	mv	s5,a0
    7a22:	3ee010ef          	jal	ra,8e10 <__mcmp>
    7a26:	04054963          	bltz	a0,7a78 <quorem+0xfe>
    7a2a:	6641                	lui	a2,0x10
    7a2c:	0485                	addi	s1,s1,1
    7a2e:	85ca                	mv	a1,s2
    7a30:	4501                	li	a0,0
    7a32:	167d                	addi	a2,a2,-1
    7a34:	0991                	addi	s3,s3,4
    7a36:	ffc9a803          	lw	a6,-4(s3)
    7a3a:	4198                	lw	a4,0(a1)
    7a3c:	0591                	addi	a1,a1,4
    7a3e:	00c876b3          	and	a3,a6,a2
    7a42:	8d15                	sub	a0,a0,a3
    7a44:	00c776b3          	and	a3,a4,a2
    7a48:	96aa                	add	a3,a3,a0
    7a4a:	01075793          	srli	a5,a4,0x10
    7a4e:	01085813          	srli	a6,a6,0x10
    7a52:	4106d713          	srai	a4,a3,0x10
    7a56:	410787b3          	sub	a5,a5,a6
    7a5a:	97ba                	add	a5,a5,a4
    7a5c:	4107d513          	srai	a0,a5,0x10
    7a60:	8ef1                	and	a3,a3,a2
    7a62:	07c2                	slli	a5,a5,0x10
    7a64:	8fd5                	or	a5,a5,a3
    7a66:	fef5ae23          	sw	a5,-4(a1)
    7a6a:	fd3a75e3          	bgeu	s4,s3,7a34 <quorem+0xba>
    7a6e:	00241793          	slli	a5,s0,0x2
    7a72:	97ca                	add	a5,a5,s2
    7a74:	4398                	lw	a4,0(a5)
    7a76:	c71d                	beqz	a4,7aa4 <quorem+0x12a>
    7a78:	8526                	mv	a0,s1
    7a7a:	40f2                	lw	ra,28(sp)
    7a7c:	4462                	lw	s0,24(sp)
    7a7e:	44d2                	lw	s1,20(sp)
    7a80:	4942                	lw	s2,16(sp)
    7a82:	49b2                	lw	s3,12(sp)
    7a84:	4a22                	lw	s4,8(sp)
    7a86:	4a92                	lw	s5,4(sp)
    7a88:	6105                	addi	sp,sp,32
    7a8a:	8082                	ret
    7a8c:	00082783          	lw	a5,0(a6)
    7a90:	e789                	bnez	a5,7a9a <quorem+0x120>
    7a92:	147d                	addi	s0,s0,-1
    7a94:	1871                	addi	a6,a6,-4
    7a96:	ff096be3          	bltu	s2,a6,7a8c <quorem+0x112>
    7a9a:	c900                	sw	s0,16(a0)
    7a9c:	b751                	j	7a20 <quorem+0xa6>
    7a9e:	4398                	lw	a4,0(a5)
    7aa0:	e709                	bnez	a4,7aaa <quorem+0x130>
    7aa2:	147d                	addi	s0,s0,-1
    7aa4:	17f1                	addi	a5,a5,-4
    7aa6:	fef96ce3          	bltu	s2,a5,7a9e <quorem+0x124>
    7aaa:	008aa823          	sw	s0,16(s5)
    7aae:	b7e9                	j	7a78 <quorem+0xfe>
    7ab0:	4501                	li	a0,0
    7ab2:	b7e1                	j	7a7a <quorem+0x100>

00007ab4 <_dtoa_r>:
_dtoa_r():
    7ab4:	7135                	addi	sp,sp,-160
    7ab6:	c0be                	sw	a5,64(sp)
    7ab8:	515c                	lw	a5,36(a0)
    7aba:	cd22                	sw	s0,152(sp)
    7abc:	cb26                	sw	s1,148(sp)
    7abe:	c94a                	sw	s2,144(sp)
    7ac0:	c74e                	sw	s3,140(sp)
    7ac2:	c552                	sw	s4,136(sp)
    7ac4:	d8ea                	sw	s10,112(sp)
    7ac6:	cf06                	sw	ra,156(sp)
    7ac8:	c356                	sw	s5,132(sp)
    7aca:	c15a                	sw	s6,128(sp)
    7acc:	dede                	sw	s7,124(sp)
    7ace:	dce2                	sw	s8,120(sp)
    7ad0:	dae6                	sw	s9,116(sp)
    7ad2:	d6ee                	sw	s11,108(sp)
    7ad4:	d23a                	sw	a4,36(sp)
    7ad6:	d646                	sw	a7,44(sp)
    7ad8:	c82e                	sw	a1,16(sp)
    7ada:	84aa                	mv	s1,a0
    7adc:	842e                	mv	s0,a1
    7ade:	89b2                	mv	s3,a2
    7ae0:	8d36                	mv	s10,a3
    7ae2:	8a42                	mv	s4,a6
    7ae4:	8932                	mv	s2,a2
    7ae6:	ef89                	bnez	a5,7b00 <_dtoa_r+0x4c>
    7ae8:	4541                	li	a0,16
    7aea:	601000ef          	jal	ra,88ea <malloc>
    7aee:	d0c8                	sw	a0,36(s1)
    7af0:	00052223          	sw	zero,4(a0)
    7af4:	00052423          	sw	zero,8(a0)
    7af8:	00052023          	sw	zero,0(a0)
    7afc:	00052623          	sw	zero,12(a0)
    7b00:	50dc                	lw	a5,36(s1)
    7b02:	438c                	lw	a1,0(a5)
    7b04:	cd89                	beqz	a1,7b1e <_dtoa_r+0x6a>
    7b06:	43d8                	lw	a4,4(a5)
    7b08:	4785                	li	a5,1
    7b0a:	8526                	mv	a0,s1
    7b0c:	00e797b3          	sll	a5,a5,a4
    7b10:	c59c                	sw	a5,8(a1)
    7b12:	c1d8                	sw	a4,4(a1)
    7b14:	685000ef          	jal	ra,8998 <_Bfree>
    7b18:	50dc                	lw	a5,36(s1)
    7b1a:	0007a023          	sw	zero,0(a5)
    7b1e:	0609d763          	bgez	s3,7b8c <_dtoa_r+0xd8>
    7b22:	4785                	li	a5,1
    7b24:	00199913          	slli	s2,s3,0x1
    7b28:	00fa2023          	sw	a5,0(s4)
    7b2c:	00195913          	srli	s2,s2,0x1
    7b30:	7ff007b7          	lui	a5,0x7ff00
    7b34:	00f97733          	and	a4,s2,a5
    7b38:	04f71d63          	bne	a4,a5,7b92 <_dtoa_r+0xde>
    7b3c:	4706                	lw	a4,64(sp)
    7b3e:	6789                	lui	a5,0x2
    7b40:	0932                	slli	s2,s2,0xc
    7b42:	70f78793          	addi	a5,a5,1807 # 270f <TIM1_UP_IRQHandler+0x1d>
    7b46:	00c95913          	srli	s2,s2,0xc
    7b4a:	c31c                	sw	a5,0(a4)
    7b4c:	00896933          	or	s2,s2,s0
    7b50:	2e090ee3          	beqz	s2,864c <_dtoa_r+0xb98>
    7b54:	57b2                	lw	a5,44(sp)
    7b56:	00003a97          	auipc	s5,0x3
    7b5a:	e76a8a93          	addi	s5,s5,-394 # a9cc <__clz_tab+0x1a0>
    7b5e:	c799                	beqz	a5,7b6c <_dtoa_r+0xb8>
    7b60:	00003797          	auipc	a5,0x3
    7b64:	e6f78793          	addi	a5,a5,-401 # a9cf <__clz_tab+0x1a3>
    7b68:	5732                	lw	a4,44(sp)
    7b6a:	c31c                	sw	a5,0(a4)
    7b6c:	40fa                	lw	ra,156(sp)
    7b6e:	446a                	lw	s0,152(sp)
    7b70:	8556                	mv	a0,s5
    7b72:	44da                	lw	s1,148(sp)
    7b74:	494a                	lw	s2,144(sp)
    7b76:	49ba                	lw	s3,140(sp)
    7b78:	4a2a                	lw	s4,136(sp)
    7b7a:	4a9a                	lw	s5,132(sp)
    7b7c:	4b0a                	lw	s6,128(sp)
    7b7e:	5bf6                	lw	s7,124(sp)
    7b80:	5c66                	lw	s8,120(sp)
    7b82:	5cd6                	lw	s9,116(sp)
    7b84:	5d46                	lw	s10,112(sp)
    7b86:	5db6                	lw	s11,108(sp)
    7b88:	610d                	addi	sp,sp,160
    7b8a:	8082                	ret
    7b8c:	000a2023          	sw	zero,0(s4)
    7b90:	b745                	j	7b30 <_dtoa_r+0x7c>
    7b92:	4601                	li	a2,0
    7b94:	4681                	li	a3,0
    7b96:	8522                	mv	a0,s0
    7b98:	85ca                	mv	a1,s2
    7b9a:	da22                	sw	s0,52(sp)
    7b9c:	dc4a                	sw	s2,56(sp)
    7b9e:	ce5fd0ef          	jal	ra,5882 <__eqdf2>
    7ba2:	ed19                	bnez	a0,7bc0 <_dtoa_r+0x10c>
    7ba4:	4706                	lw	a4,64(sp)
    7ba6:	4785                	li	a5,1
    7ba8:	00003a97          	auipc	s5,0x3
    7bac:	da0a8a93          	addi	s5,s5,-608 # a948 <__clz_tab+0x11c>
    7bb0:	c31c                	sw	a5,0(a4)
    7bb2:	57b2                	lw	a5,44(sp)
    7bb4:	dfc5                	beqz	a5,7b6c <_dtoa_r+0xb8>
    7bb6:	00003797          	auipc	a5,0x3
    7bba:	d9378793          	addi	a5,a5,-621 # a949 <__clz_tab+0x11d>
    7bbe:	b76d                	j	7b68 <_dtoa_r+0xb4>
    7bc0:	08b8                	addi	a4,sp,88
    7bc2:	08f4                	addi	a3,sp,92
    7bc4:	864a                	mv	a2,s2
    7bc6:	85a2                	mv	a1,s0
    7bc8:	8526                	mv	a0,s1
    7bca:	01495b13          	srli	s6,s2,0x14
    7bce:	366010ef          	jal	ra,8f34 <__d2b>
    7bd2:	7ffb7b13          	andi	s6,s6,2047
    7bd6:	89aa                	mv	s3,a0
    7bd8:	4be6                	lw	s7,88(sp)
    7bda:	100b0963          	beqz	s6,7cec <_dtoa_r+0x238>
    7bde:	57e2                	lw	a5,56(sp)
    7be0:	5552                	lw	a0,52(sp)
    7be2:	c01b0b13          	addi	s6,s6,-1023
    7be6:	00c79593          	slli	a1,a5,0xc
    7bea:	81b1                	srli	a1,a1,0xc
    7bec:	3ff007b7          	lui	a5,0x3ff00
    7bf0:	8ddd                	or	a1,a1,a5
    7bf2:	c282                	sw	zero,68(sp)
    7bf4:	00003797          	auipc	a5,0x3
    7bf8:	d8478793          	addi	a5,a5,-636 # a978 <__clz_tab+0x14c>
    7bfc:	4390                	lw	a2,0(a5)
    7bfe:	43d4                	lw	a3,4(a5)
    7c00:	cdcfe0ef          	jal	ra,60dc <__subdf3>
    7c04:	00003797          	auipc	a5,0x3
    7c08:	d7c78793          	addi	a5,a5,-644 # a980 <__clz_tab+0x154>
    7c0c:	4390                	lw	a2,0(a5)
    7c0e:	43d4                	lw	a3,4(a5)
    7c10:	e77fd0ef          	jal	ra,5a86 <__muldf3>
    7c14:	00003797          	auipc	a5,0x3
    7c18:	d7478793          	addi	a5,a5,-652 # a988 <__clz_tab+0x15c>
    7c1c:	4390                	lw	a2,0(a5)
    7c1e:	43d4                	lw	a3,4(a5)
    7c20:	a6bfc0ef          	jal	ra,468a <__adddf3>
    7c24:	8a2a                	mv	s4,a0
    7c26:	855a                	mv	a0,s6
    7c28:	8aae                	mv	s5,a1
    7c2a:	892ff0ef          	jal	ra,6cbc <__floatsidf>
    7c2e:	00003797          	auipc	a5,0x3
    7c32:	d6278793          	addi	a5,a5,-670 # a990 <__clz_tab+0x164>
    7c36:	4390                	lw	a2,0(a5)
    7c38:	43d4                	lw	a3,4(a5)
    7c3a:	e4dfd0ef          	jal	ra,5a86 <__muldf3>
    7c3e:	862a                	mv	a2,a0
    7c40:	86ae                	mv	a3,a1
    7c42:	8552                	mv	a0,s4
    7c44:	85d6                	mv	a1,s5
    7c46:	a45fc0ef          	jal	ra,468a <__adddf3>
    7c4a:	8a2a                	mv	s4,a0
    7c4c:	8aae                	mv	s5,a1
    7c4e:	f97fe0ef          	jal	ra,6be4 <__fixdfsi>
    7c52:	842a                	mv	s0,a0
    7c54:	4601                	li	a2,0
    7c56:	4681                	li	a3,0
    7c58:	8552                	mv	a0,s4
    7c5a:	85d6                	mv	a1,s5
    7c5c:	d75fd0ef          	jal	ra,59d0 <__ledf2>
    7c60:	00055b63          	bgez	a0,7c76 <_dtoa_r+0x1c2>
    7c64:	8522                	mv	a0,s0
    7c66:	856ff0ef          	jal	ra,6cbc <__floatsidf>
    7c6a:	8652                	mv	a2,s4
    7c6c:	86d6                	mv	a3,s5
    7c6e:	c15fd0ef          	jal	ra,5882 <__eqdf2>
    7c72:	c111                	beqz	a0,7c76 <_dtoa_r+0x1c2>
    7c74:	147d                	addi	s0,s0,-1
    7c76:	4705                	li	a4,1
    7c78:	47d9                	li	a5,22
    7c7a:	de3a                	sw	a4,60(sp)
    7c7c:	0287e363          	bltu	a5,s0,7ca2 <_dtoa_r+0x1ee>
    7c80:	00341713          	slli	a4,s0,0x3
    7c84:	00003797          	auipc	a5,0x3
    7c88:	dd478793          	addi	a5,a5,-556 # aa58 <__mprec_tens>
    7c8c:	97ba                	add	a5,a5,a4
    7c8e:	4390                	lw	a2,0(a5)
    7c90:	43d4                	lw	a3,4(a5)
    7c92:	5552                	lw	a0,52(sp)
    7c94:	55e2                	lw	a1,56(sp)
    7c96:	d3bfd0ef          	jal	ra,59d0 <__ledf2>
    7c9a:	00055363          	bgez	a0,7ca0 <_dtoa_r+0x1ec>
    7c9e:	147d                	addi	s0,s0,-1
    7ca0:	de02                	sw	zero,60(sp)
    7ca2:	416b8b33          	sub	s6,s7,s6
    7ca6:	fffb0c93          	addi	s9,s6,-1
    7caa:	4c01                	li	s8,0
    7cac:	000cd663          	bgez	s9,7cb8 <_dtoa_r+0x204>
    7cb0:	4c05                	li	s8,1
    7cb2:	416c0c33          	sub	s8,s8,s6
    7cb6:	4c81                	li	s9,0
    7cb8:	06044a63          	bltz	s0,7d2c <_dtoa_r+0x278>
    7cbc:	9ca2                	add	s9,s9,s0
    7cbe:	d822                	sw	s0,48(sp)
    7cc0:	d002                	sw	zero,32(sp)
    7cc2:	47a5                	li	a5,9
    7cc4:	15a7e163          	bltu	a5,s10,7e06 <_dtoa_r+0x352>
    7cc8:	4795                	li	a5,5
    7cca:	4b05                	li	s6,1
    7ccc:	01a7d463          	bge	a5,s10,7cd4 <_dtoa_r+0x220>
    7cd0:	1d71                	addi	s10,s10,-4
    7cd2:	4b01                	li	s6,0
    7cd4:	478d                	li	a5,3
    7cd6:	10fd0d63          	beq	s10,a5,7df0 <_dtoa_r+0x33c>
    7cda:	07a7c063          	blt	a5,s10,7d3a <_dtoa_r+0x286>
    7cde:	4789                	li	a5,2
    7ce0:	d402                	sw	zero,40(sp)
    7ce2:	06fd0c63          	beq	s10,a5,7d5a <_dtoa_r+0x2a6>
    7ce6:	4785                	li	a5,1
    7ce8:	d43e                	sw	a5,40(sp)
    7cea:	a085                	j	7d4a <_dtoa_r+0x296>
    7cec:	4b76                	lw	s6,92(sp)
    7cee:	02000793          	li	a5,32
    7cf2:	9b5e                	add	s6,s6,s7
    7cf4:	432b0713          	addi	a4,s6,1074
    7cf8:	02e7d563          	bge	a5,a4,7d22 <_dtoa_r+0x26e>
    7cfc:	04000513          	li	a0,64
    7d00:	8d19                	sub	a0,a0,a4
    7d02:	412b0793          	addi	a5,s6,1042
    7d06:	00a91533          	sll	a0,s2,a0
    7d0a:	00f45433          	srl	s0,s0,a5
    7d0e:	8d41                	or	a0,a0,s0
    7d10:	81cff0ef          	jal	ra,6d2c <__floatunsidf>
    7d14:	fe1007b7          	lui	a5,0xfe100
    7d18:	95be                	add	a1,a1,a5
    7d1a:	4785                	li	a5,1
    7d1c:	1b7d                	addi	s6,s6,-1
    7d1e:	c2be                	sw	a5,68(sp)
    7d20:	bdd1                	j	7bf4 <_dtoa_r+0x140>
    7d22:	40e78533          	sub	a0,a5,a4
    7d26:	00a41533          	sll	a0,s0,a0
    7d2a:	b7dd                	j	7d10 <_dtoa_r+0x25c>
    7d2c:	408007b3          	neg	a5,s0
    7d30:	408c0c33          	sub	s8,s8,s0
    7d34:	d03e                	sw	a5,32(sp)
    7d36:	d802                	sw	zero,48(sp)
    7d38:	b769                	j	7cc2 <_dtoa_r+0x20e>
    7d3a:	4791                	li	a5,4
    7d3c:	00fd0d63          	beq	s10,a5,7d56 <_dtoa_r+0x2a2>
    7d40:	4705                	li	a4,1
    7d42:	4795                	li	a5,5
    7d44:	d43a                	sw	a4,40(sp)
    7d46:	0afd0663          	beq	s10,a5,7df2 <_dtoa_r+0x33e>
    7d4a:	57fd                	li	a5,-1
    7d4c:	c63e                	sw	a5,12(sp)
    7d4e:	5a7d                	li	s4,-1
    7d50:	47c9                	li	a5,18
    7d52:	d202                	sw	zero,36(sp)
    7d54:	a819                	j	7d6a <_dtoa_r+0x2b6>
    7d56:	4785                	li	a5,1
    7d58:	d43e                	sw	a5,40(sp)
    7d5a:	5792                	lw	a5,36(sp)
    7d5c:	0af04863          	bgtz	a5,7e0c <_dtoa_r+0x358>
    7d60:	4785                	li	a5,1
    7d62:	4705                	li	a4,1
    7d64:	c63e                	sw	a5,12(sp)
    7d66:	4a05                	li	s4,1
    7d68:	d23a                	sw	a4,36(sp)
    7d6a:	0244aa83          	lw	s5,36(s1)
    7d6e:	4711                	li	a4,4
    7d70:	000aa223          	sw	zero,4(s5)
    7d74:	01470693          	addi	a3,a4,20
    7d78:	004aa583          	lw	a1,4(s5)
    7d7c:	08d7fc63          	bgeu	a5,a3,7e14 <_dtoa_r+0x360>
    7d80:	8526                	mv	a0,s1
    7d82:	38f000ef          	jal	ra,8910 <_Balloc>
    7d86:	50dc                	lw	a5,36(s1)
    7d88:	00aaa023          	sw	a0,0(s5)
    7d8c:	0007aa83          	lw	s5,0(a5) # fe100000 <_eusrstack+0xde0f0000>
    7d90:	47b9                	li	a5,14
    7d92:	1d47e863          	bltu	a5,s4,7f62 <_dtoa_r+0x4ae>
    7d96:	1c0b0663          	beqz	s6,7f62 <_dtoa_r+0x4ae>
    7d9a:	0a805f63          	blez	s0,7e58 <_dtoa_r+0x3a4>
    7d9e:	00f47793          	andi	a5,s0,15
    7da2:	00379713          	slli	a4,a5,0x3
    7da6:	40445b13          	srai	s6,s0,0x4
    7daa:	00003797          	auipc	a5,0x3
    7dae:	cae78793          	addi	a5,a5,-850 # aa58 <__mprec_tens>
    7db2:	97ba                	add	a5,a5,a4
    7db4:	010b7693          	andi	a3,s6,16
    7db8:	4398                	lw	a4,0(a5)
    7dba:	4d89                	li	s11,2
    7dbc:	43dc                	lw	a5,4(a5)
    7dbe:	c685                	beqz	a3,7de6 <_dtoa_r+0x332>
    7dc0:	00003697          	auipc	a3,0x3
    7dc4:	c7068693          	addi	a3,a3,-912 # aa30 <__mprec_bigtens>
    7dc8:	5290                	lw	a2,32(a3)
    7dca:	5552                	lw	a0,52(sp)
    7dcc:	52d4                	lw	a3,36(a3)
    7dce:	55e2                	lw	a1,56(sp)
    7dd0:	cc3a                	sw	a4,24(sp)
    7dd2:	ce3e                	sw	a5,28(sp)
    7dd4:	ac4fd0ef          	jal	ra,5098 <__divdf3>
    7dd8:	4762                	lw	a4,24(sp)
    7dda:	47f2                	lw	a5,28(sp)
    7ddc:	00fb7b13          	andi	s6,s6,15
    7de0:	c82a                	sw	a0,16(sp)
    7de2:	892e                	mv	s2,a1
    7de4:	4d8d                	li	s11,3
    7de6:	00003b97          	auipc	s7,0x3
    7dea:	c4ab8b93          	addi	s7,s7,-950 # aa30 <__mprec_bigtens>
    7dee:	a889                	j	7e40 <_dtoa_r+0x38c>
    7df0:	d402                	sw	zero,40(sp)
    7df2:	5792                	lw	a5,36(sp)
    7df4:	97a2                	add	a5,a5,s0
    7df6:	c63e                	sw	a5,12(sp)
    7df8:	00178a13          	addi	s4,a5,1
    7dfc:	87d2                	mv	a5,s4
    7dfe:	f74046e3          	bgtz	s4,7d6a <_dtoa_r+0x2b6>
    7e02:	4785                	li	a5,1
    7e04:	b79d                	j	7d6a <_dtoa_r+0x2b6>
    7e06:	4b05                	li	s6,1
    7e08:	4d01                	li	s10,0
    7e0a:	bdf1                	j	7ce6 <_dtoa_r+0x232>
    7e0c:	5792                	lw	a5,36(sp)
    7e0e:	c63e                	sw	a5,12(sp)
    7e10:	8a3e                	mv	s4,a5
    7e12:	bfa1                	j	7d6a <_dtoa_r+0x2b6>
    7e14:	0585                	addi	a1,a1,1
    7e16:	00baa223          	sw	a1,4(s5)
    7e1a:	0706                	slli	a4,a4,0x1
    7e1c:	bfa1                	j	7d74 <_dtoa_r+0x2c0>
    7e1e:	001b7693          	andi	a3,s6,1
    7e22:	ce81                	beqz	a3,7e3a <_dtoa_r+0x386>
    7e24:	000ba603          	lw	a2,0(s7)
    7e28:	004ba683          	lw	a3,4(s7)
    7e2c:	853a                	mv	a0,a4
    7e2e:	85be                	mv	a1,a5
    7e30:	c57fd0ef          	jal	ra,5a86 <__muldf3>
    7e34:	0d85                	addi	s11,s11,1
    7e36:	872a                	mv	a4,a0
    7e38:	87ae                	mv	a5,a1
    7e3a:	401b5b13          	srai	s6,s6,0x1
    7e3e:	0ba1                	addi	s7,s7,8
    7e40:	fc0b1fe3          	bnez	s6,7e1e <_dtoa_r+0x36a>
    7e44:	863a                	mv	a2,a4
    7e46:	4742                	lw	a4,16(sp)
    7e48:	86be                	mv	a3,a5
    7e4a:	85ca                	mv	a1,s2
    7e4c:	853a                	mv	a0,a4
    7e4e:	a4afd0ef          	jal	ra,5098 <__divdf3>
    7e52:	c82a                	sw	a0,16(sp)
    7e54:	892e                	mv	s2,a1
    7e56:	a081                	j	7e96 <_dtoa_r+0x3e2>
    7e58:	4d89                	li	s11,2
    7e5a:	cc15                	beqz	s0,7e96 <_dtoa_r+0x3e2>
    7e5c:	40800b33          	neg	s6,s0
    7e60:	00fb7793          	andi	a5,s6,15
    7e64:	00379713          	slli	a4,a5,0x3
    7e68:	00003797          	auipc	a5,0x3
    7e6c:	bf078793          	addi	a5,a5,-1040 # aa58 <__mprec_tens>
    7e70:	97ba                	add	a5,a5,a4
    7e72:	4390                	lw	a2,0(a5)
    7e74:	43d4                	lw	a3,4(a5)
    7e76:	5552                	lw	a0,52(sp)
    7e78:	55e2                	lw	a1,56(sp)
    7e7a:	404b5b13          	srai	s6,s6,0x4
    7e7e:	00003b97          	auipc	s7,0x3
    7e82:	bb2b8b93          	addi	s7,s7,-1102 # aa30 <__mprec_bigtens>
    7e86:	c01fd0ef          	jal	ra,5a86 <__muldf3>
    7e8a:	c82a                	sw	a0,16(sp)
    7e8c:	892e                	mv	s2,a1
    7e8e:	4781                	li	a5,0
    7e90:	120b1c63          	bnez	s6,7fc8 <_dtoa_r+0x514>
    7e94:	ffdd                	bnez	a5,7e52 <_dtoa_r+0x39e>
    7e96:	57f2                	lw	a5,60(sp)
    7e98:	14078763          	beqz	a5,7fe6 <_dtoa_r+0x532>
    7e9c:	00003797          	auipc	a5,0x3
    7ea0:	afc78793          	addi	a5,a5,-1284 # a998 <__clz_tab+0x16c>
    7ea4:	4bc2                	lw	s7,16(sp)
    7ea6:	4390                	lw	a2,0(a5)
    7ea8:	43d4                	lw	a3,4(a5)
    7eaa:	855e                	mv	a0,s7
    7eac:	85ca                	mv	a1,s2
    7eae:	b23fd0ef          	jal	ra,59d0 <__ledf2>
    7eb2:	12055a63          	bgez	a0,7fe6 <_dtoa_r+0x532>
    7eb6:	120a0b63          	beqz	s4,7fec <_dtoa_r+0x538>
    7eba:	47b2                	lw	a5,12(sp)
    7ebc:	0af05063          	blez	a5,7f5c <_dtoa_r+0x4a8>
    7ec0:	fff40793          	addi	a5,s0,-1
    7ec4:	cc3e                	sw	a5,24(sp)
    7ec6:	00003797          	auipc	a5,0x3
    7eca:	ada78793          	addi	a5,a5,-1318 # a9a0 <__clz_tab+0x174>
    7ece:	4390                	lw	a2,0(a5)
    7ed0:	43d4                	lw	a3,4(a5)
    7ed2:	85ca                	mv	a1,s2
    7ed4:	855e                	mv	a0,s7
    7ed6:	bb1fd0ef          	jal	ra,5a86 <__muldf3>
    7eda:	47b2                	lw	a5,12(sp)
    7edc:	c82a                	sw	a0,16(sp)
    7ede:	892e                	mv	s2,a1
    7ee0:	0d85                	addi	s11,s11,1
    7ee2:	4842                	lw	a6,16(sp)
    7ee4:	856e                	mv	a0,s11
    7ee6:	c6be                	sw	a5,76(sp)
    7ee8:	8b42                	mv	s6,a6
    7eea:	c4c2                	sw	a6,72(sp)
    7eec:	c84a                	sw	s2,16(sp)
    7eee:	dcffe0ef          	jal	ra,6cbc <__floatsidf>
    7ef2:	4826                	lw	a6,72(sp)
    7ef4:	4742                	lw	a4,16(sp)
    7ef6:	8bca                	mv	s7,s2
    7ef8:	8642                	mv	a2,a6
    7efa:	86ba                	mv	a3,a4
    7efc:	b8bfd0ef          	jal	ra,5a86 <__muldf3>
    7f00:	00003697          	auipc	a3,0x3
    7f04:	aa868693          	addi	a3,a3,-1368 # a9a8 <__clz_tab+0x17c>
    7f08:	4290                	lw	a2,0(a3)
    7f0a:	42d4                	lw	a3,4(a3)
    7f0c:	fcc00937          	lui	s2,0xfcc00
    7f10:	f7afc0ef          	jal	ra,468a <__adddf3>
    7f14:	47b6                	lw	a5,76(sp)
    7f16:	8daa                	mv	s11,a0
    7f18:	992e                	add	s2,s2,a1
    7f1a:	efe1                	bnez	a5,7ff2 <_dtoa_r+0x53e>
    7f1c:	00003797          	auipc	a5,0x3
    7f20:	a9478793          	addi	a5,a5,-1388 # a9b0 <__clz_tab+0x184>
    7f24:	4826                	lw	a6,72(sp)
    7f26:	4742                	lw	a4,16(sp)
    7f28:	4390                	lw	a2,0(a5)
    7f2a:	43d4                	lw	a3,4(a5)
    7f2c:	8542                	mv	a0,a6
    7f2e:	85ba                	mv	a1,a4
    7f30:	9acfe0ef          	jal	ra,60dc <__subdf3>
    7f34:	866e                	mv	a2,s11
    7f36:	86ca                	mv	a3,s2
    7f38:	8b2a                	mv	s6,a0
    7f3a:	8bae                	mv	s7,a1
    7f3c:	9dffd0ef          	jal	ra,591a <__gedf2>
    7f40:	54a04563          	bgtz	a0,848a <_dtoa_r+0x9d6>
    7f44:	800007b7          	lui	a5,0x80000
    7f48:	0127c7b3          	xor	a5,a5,s2
    7f4c:	866e                	mv	a2,s11
    7f4e:	86be                	mv	a3,a5
    7f50:	855a                	mv	a0,s6
    7f52:	85de                	mv	a1,s7
    7f54:	a7dfd0ef          	jal	ra,59d0 <__ledf2>
    7f58:	52054663          	bltz	a0,8484 <_dtoa_r+0x9d0>
    7f5c:	57d2                	lw	a5,52(sp)
    7f5e:	5962                	lw	s2,56(sp)
    7f60:	c83e                	sw	a5,16(sp)
    7f62:	47f6                	lw	a5,92(sp)
    7f64:	3007c863          	bltz	a5,8274 <_dtoa_r+0x7c0>
    7f68:	4739                	li	a4,14
    7f6a:	30874563          	blt	a4,s0,8274 <_dtoa_r+0x7c0>
    7f6e:	00341713          	slli	a4,s0,0x3
    7f72:	00003797          	auipc	a5,0x3
    7f76:	ae678793          	addi	a5,a5,-1306 # aa58 <__mprec_tens>
    7f7a:	97ba                	add	a5,a5,a4
    7f7c:	0007ab03          	lw	s6,0(a5)
    7f80:	0047ab83          	lw	s7,4(a5)
    7f84:	5792                	lw	a5,36(sp)
    7f86:	2007d363          	bgez	a5,818c <_dtoa_r+0x6d8>
    7f8a:	21404163          	bgtz	s4,818c <_dtoa_r+0x6d8>
    7f8e:	4e0a1b63          	bnez	s4,8484 <_dtoa_r+0x9d0>
    7f92:	00003797          	auipc	a5,0x3
    7f96:	a1e78793          	addi	a5,a5,-1506 # a9b0 <__clz_tab+0x184>
    7f9a:	4390                	lw	a2,0(a5)
    7f9c:	43d4                	lw	a3,4(a5)
    7f9e:	855a                	mv	a0,s6
    7fa0:	85de                	mv	a1,s7
    7fa2:	ae5fd0ef          	jal	ra,5a86 <__muldf3>
    7fa6:	4742                	lw	a4,16(sp)
    7fa8:	86ca                	mv	a3,s2
    7faa:	4b81                	li	s7,0
    7fac:	863a                	mv	a2,a4
    7fae:	96dfd0ef          	jal	ra,591a <__gedf2>
    7fb2:	4b01                	li	s6,0
    7fb4:	4a055363          	bgez	a0,845a <_dtoa_r+0x9a6>
    7fb8:	03100793          	li	a5,49
    7fbc:	001a8913          	addi	s2,s5,1
    7fc0:	00fa8023          	sb	a5,0(s5)
    7fc4:	0405                	addi	s0,s0,1
    7fc6:	a971                	j	8462 <_dtoa_r+0x9ae>
    7fc8:	001b7713          	andi	a4,s6,1
    7fcc:	cb09                	beqz	a4,7fde <_dtoa_r+0x52a>
    7fce:	000ba603          	lw	a2,0(s7)
    7fd2:	004ba683          	lw	a3,4(s7)
    7fd6:	0d85                	addi	s11,s11,1
    7fd8:	aaffd0ef          	jal	ra,5a86 <__muldf3>
    7fdc:	4785                	li	a5,1
    7fde:	401b5b13          	srai	s6,s6,0x1
    7fe2:	0ba1                	addi	s7,s7,8
    7fe4:	b575                	j	7e90 <_dtoa_r+0x3dc>
    7fe6:	cc22                	sw	s0,24(sp)
    7fe8:	87d2                	mv	a5,s4
    7fea:	bde5                	j	7ee2 <_dtoa_r+0x42e>
    7fec:	cc22                	sw	s0,24(sp)
    7fee:	4781                	li	a5,0
    7ff0:	bdcd                	j	7ee2 <_dtoa_r+0x42e>
    7ff2:	fff78693          	addi	a3,a5,-1
    7ff6:	00fa8db3          	add	s11,s5,a5
    7ffa:	57a2                	lw	a5,40(sp)
    7ffc:	00369613          	slli	a2,a3,0x3
    8000:	00003697          	auipc	a3,0x3
    8004:	a5868693          	addi	a3,a3,-1448 # aa58 <__mprec_tens>
    8008:	96b2                	add	a3,a3,a2
    800a:	882a                	mv	a6,a0
    800c:	42cc                	lw	a1,4(a3)
    800e:	4288                	lw	a0,0(a3)
    8010:	c3e1                	beqz	a5,80d0 <_dtoa_r+0x61c>
    8012:	00003797          	auipc	a5,0x3
    8016:	9a678793          	addi	a5,a5,-1626 # a9b8 <__clz_tab+0x18c>
    801a:	862a                	mv	a2,a0
    801c:	86ae                	mv	a3,a1
    801e:	4388                	lw	a0,0(a5)
    8020:	43cc                	lw	a1,4(a5)
    8022:	c4ca                	sw	s2,72(sp)
    8024:	c842                	sw	a6,16(sp)
    8026:	872fd0ef          	jal	ra,5098 <__divdf3>
    802a:	4842                	lw	a6,16(sp)
    802c:	4726                	lw	a4,72(sp)
    802e:	8956                	mv	s2,s5
    8030:	8642                	mv	a2,a6
    8032:	86ba                	mv	a3,a4
    8034:	8a8fe0ef          	jal	ra,60dc <__subdf3>
    8038:	c82a                	sw	a0,16(sp)
    803a:	ca2e                	sw	a1,20(sp)
    803c:	85de                	mv	a1,s7
    803e:	855a                	mv	a0,s6
    8040:	ba5fe0ef          	jal	ra,6be4 <__fixdfsi>
    8044:	c4aa                	sw	a0,72(sp)
    8046:	c77fe0ef          	jal	ra,6cbc <__floatsidf>
    804a:	862a                	mv	a2,a0
    804c:	86ae                	mv	a3,a1
    804e:	855a                	mv	a0,s6
    8050:	85de                	mv	a1,s7
    8052:	88afe0ef          	jal	ra,60dc <__subdf3>
    8056:	47a6                	lw	a5,72(sp)
    8058:	8b2a                	mv	s6,a0
    805a:	8bae                	mv	s7,a1
    805c:	862a                	mv	a2,a0
    805e:	86ae                	mv	a3,a1
    8060:	4542                	lw	a0,16(sp)
    8062:	45d2                	lw	a1,20(sp)
    8064:	0905                	addi	s2,s2,1
    8066:	03078793          	addi	a5,a5,48
    806a:	fef90fa3          	sb	a5,-1(s2) # fcbfffff <_eusrstack+0xdcbeffff>
    806e:	8adfd0ef          	jal	ra,591a <__gedf2>
    8072:	0ea04c63          	bgtz	a0,816a <_dtoa_r+0x6b6>
    8076:	00003797          	auipc	a5,0x3
    807a:	92278793          	addi	a5,a5,-1758 # a998 <__clz_tab+0x16c>
    807e:	4388                	lw	a0,0(a5)
    8080:	43cc                	lw	a1,4(a5)
    8082:	865a                	mv	a2,s6
    8084:	86de                	mv	a3,s7
    8086:	856fe0ef          	jal	ra,60dc <__subdf3>
    808a:	862a                	mv	a2,a0
    808c:	86ae                	mv	a3,a1
    808e:	4542                	lw	a0,16(sp)
    8090:	45d2                	lw	a1,20(sp)
    8092:	889fd0ef          	jal	ra,591a <__gedf2>
    8096:	18a04463          	bgtz	a0,821e <_dtoa_r+0x76a>
    809a:	edb901e3          	beq	s2,s11,7f5c <_dtoa_r+0x4a8>
    809e:	00003797          	auipc	a5,0x3
    80a2:	90278793          	addi	a5,a5,-1790 # a9a0 <__clz_tab+0x174>
    80a6:	4390                	lw	a2,0(a5)
    80a8:	43d4                	lw	a3,4(a5)
    80aa:	4542                	lw	a0,16(sp)
    80ac:	45d2                	lw	a1,20(sp)
    80ae:	9d9fd0ef          	jal	ra,5a86 <__muldf3>
    80b2:	00003797          	auipc	a5,0x3
    80b6:	8ee78793          	addi	a5,a5,-1810 # a9a0 <__clz_tab+0x174>
    80ba:	4390                	lw	a2,0(a5)
    80bc:	43d4                	lw	a3,4(a5)
    80be:	c82a                	sw	a0,16(sp)
    80c0:	ca2e                	sw	a1,20(sp)
    80c2:	855a                	mv	a0,s6
    80c4:	85de                	mv	a1,s7
    80c6:	9c1fd0ef          	jal	ra,5a86 <__muldf3>
    80ca:	8b2a                	mv	s6,a0
    80cc:	8bae                	mv	s7,a1
    80ce:	b7bd                	j	803c <_dtoa_r+0x588>
    80d0:	86ca                	mv	a3,s2
    80d2:	8642                	mv	a2,a6
    80d4:	9b3fd0ef          	jal	ra,5a86 <__muldf3>
    80d8:	c82a                	sw	a0,16(sp)
    80da:	ca2e                	sw	a1,20(sp)
    80dc:	896e                	mv	s2,s11
    80de:	87d6                	mv	a5,s5
    80e0:	85de                	mv	a1,s7
    80e2:	855a                	mv	a0,s6
    80e4:	c6be                	sw	a5,76(sp)
    80e6:	afffe0ef          	jal	ra,6be4 <__fixdfsi>
    80ea:	c4aa                	sw	a0,72(sp)
    80ec:	bd1fe0ef          	jal	ra,6cbc <__floatsidf>
    80f0:	862a                	mv	a2,a0
    80f2:	86ae                	mv	a3,a1
    80f4:	855a                	mv	a0,s6
    80f6:	85de                	mv	a1,s7
    80f8:	fe5fd0ef          	jal	ra,60dc <__subdf3>
    80fc:	47b6                	lw	a5,76(sp)
    80fe:	4726                	lw	a4,72(sp)
    8100:	8b2a                	mv	s6,a0
    8102:	0785                	addi	a5,a5,1
    8104:	03070713          	addi	a4,a4,48
    8108:	fee78fa3          	sb	a4,-1(a5)
    810c:	8bae                	mv	s7,a1
    810e:	07b79263          	bne	a5,s11,8172 <_dtoa_r+0x6be>
    8112:	00003d97          	auipc	s11,0x3
    8116:	8a6d8d93          	addi	s11,s11,-1882 # a9b8 <__clz_tab+0x18c>
    811a:	000da603          	lw	a2,0(s11)
    811e:	004da683          	lw	a3,4(s11)
    8122:	4542                	lw	a0,16(sp)
    8124:	45d2                	lw	a1,20(sp)
    8126:	d64fc0ef          	jal	ra,468a <__adddf3>
    812a:	862a                	mv	a2,a0
    812c:	86ae                	mv	a3,a1
    812e:	855a                	mv	a0,s6
    8130:	85de                	mv	a1,s7
    8132:	fe8fd0ef          	jal	ra,591a <__gedf2>
    8136:	0ea04463          	bgtz	a0,821e <_dtoa_r+0x76a>
    813a:	4642                	lw	a2,16(sp)
    813c:	46d2                	lw	a3,20(sp)
    813e:	000da503          	lw	a0,0(s11)
    8142:	004da583          	lw	a1,4(s11)
    8146:	f97fd0ef          	jal	ra,60dc <__subdf3>
    814a:	862a                	mv	a2,a0
    814c:	86ae                	mv	a3,a1
    814e:	855a                	mv	a0,s6
    8150:	85de                	mv	a1,s7
    8152:	87ffd0ef          	jal	ra,59d0 <__ledf2>
    8156:	03000793          	li	a5,48
    815a:	e00551e3          	bgez	a0,7f5c <_dtoa_r+0x4a8>
    815e:	fff94703          	lbu	a4,-1(s2)
    8162:	fff90693          	addi	a3,s2,-1
    8166:	00f70463          	beq	a4,a5,816e <_dtoa_r+0x6ba>
    816a:	4462                	lw	s0,24(sp)
    816c:	a849                	j	81fe <_dtoa_r+0x74a>
    816e:	8936                	mv	s2,a3
    8170:	b7fd                	j	815e <_dtoa_r+0x6aa>
    8172:	c4be                	sw	a5,72(sp)
    8174:	00003797          	auipc	a5,0x3
    8178:	82c78793          	addi	a5,a5,-2004 # a9a0 <__clz_tab+0x174>
    817c:	4390                	lw	a2,0(a5)
    817e:	43d4                	lw	a3,4(a5)
    8180:	907fd0ef          	jal	ra,5a86 <__muldf3>
    8184:	8b2a                	mv	s6,a0
    8186:	8bae                	mv	s7,a1
    8188:	47a6                	lw	a5,72(sp)
    818a:	bf99                	j	80e0 <_dtoa_r+0x62c>
    818c:	4642                	lw	a2,16(sp)
    818e:	8dca                	mv	s11,s2
    8190:	001a8c13          	addi	s8,s5,1
    8194:	8d32                	mv	s10,a2
    8196:	9a56                	add	s4,s4,s5
    8198:	865a                	mv	a2,s6
    819a:	86de                	mv	a3,s7
    819c:	856a                	mv	a0,s10
    819e:	85ee                	mv	a1,s11
    81a0:	ef9fc0ef          	jal	ra,5098 <__divdf3>
    81a4:	a41fe0ef          	jal	ra,6be4 <__fixdfsi>
    81a8:	8caa                	mv	s9,a0
    81aa:	b13fe0ef          	jal	ra,6cbc <__floatsidf>
    81ae:	865a                	mv	a2,s6
    81b0:	86de                	mv	a3,s7
    81b2:	8d5fd0ef          	jal	ra,5a86 <__muldf3>
    81b6:	862a                	mv	a2,a0
    81b8:	86ae                	mv	a3,a1
    81ba:	856a                	mv	a0,s10
    81bc:	85ee                	mv	a1,s11
    81be:	f1ffd0ef          	jal	ra,60dc <__subdf3>
    81c2:	030c8793          	addi	a5,s9,48
    81c6:	fefc0fa3          	sb	a5,-1(s8)
    81ca:	862a                	mv	a2,a0
    81cc:	86ae                	mv	a3,a1
    81ce:	8962                	mv	s2,s8
    81d0:	098a1063          	bne	s4,s8,8250 <_dtoa_r+0x79c>
    81d4:	cb6fc0ef          	jal	ra,468a <__adddf3>
    81d8:	865a                	mv	a2,s6
    81da:	86de                	mv	a3,s7
    81dc:	8d2a                	mv	s10,a0
    81de:	8dae                	mv	s11,a1
    81e0:	f3afd0ef          	jal	ra,591a <__gedf2>
    81e4:	02a04c63          	bgtz	a0,821c <_dtoa_r+0x768>
    81e8:	865a                	mv	a2,s6
    81ea:	86de                	mv	a3,s7
    81ec:	856a                	mv	a0,s10
    81ee:	85ee                	mv	a1,s11
    81f0:	e92fd0ef          	jal	ra,5882 <__eqdf2>
    81f4:	e509                	bnez	a0,81fe <_dtoa_r+0x74a>
    81f6:	001cfc93          	andi	s9,s9,1
    81fa:	020c9163          	bnez	s9,821c <_dtoa_r+0x768>
    81fe:	85ce                	mv	a1,s3
    8200:	8526                	mv	a0,s1
    8202:	796000ef          	jal	ra,8998 <_Bfree>
    8206:	4786                	lw	a5,64(sp)
    8208:	00090023          	sb	zero,0(s2)
    820c:	0405                	addi	s0,s0,1
    820e:	c380                	sw	s0,0(a5)
    8210:	57b2                	lw	a5,44(sp)
    8212:	94078de3          	beqz	a5,7b6c <_dtoa_r+0xb8>
    8216:	0127a023          	sw	s2,0(a5)
    821a:	ba89                	j	7b6c <_dtoa_r+0xb8>
    821c:	cc22                	sw	s0,24(sp)
    821e:	03900713          	li	a4,57
    8222:	fff94683          	lbu	a3,-1(s2)
    8226:	fff90793          	addi	a5,s2,-1
    822a:	00e69b63          	bne	a3,a4,8240 <_dtoa_r+0x78c>
    822e:	00fa9f63          	bne	s5,a5,824c <_dtoa_r+0x798>
    8232:	4762                	lw	a4,24(sp)
    8234:	0705                	addi	a4,a4,1
    8236:	cc3a                	sw	a4,24(sp)
    8238:	03000713          	li	a4,48
    823c:	00ea8023          	sb	a4,0(s5)
    8240:	0007c703          	lbu	a4,0(a5)
    8244:	0705                	addi	a4,a4,1
    8246:	00e78023          	sb	a4,0(a5)
    824a:	b705                	j	816a <_dtoa_r+0x6b6>
    824c:	893e                	mv	s2,a5
    824e:	bfd1                	j	8222 <_dtoa_r+0x76e>
    8250:	00002797          	auipc	a5,0x2
    8254:	75078793          	addi	a5,a5,1872 # a9a0 <__clz_tab+0x174>
    8258:	4390                	lw	a2,0(a5)
    825a:	43d4                	lw	a3,4(a5)
    825c:	0c05                	addi	s8,s8,1
    825e:	829fd0ef          	jal	ra,5a86 <__muldf3>
    8262:	4601                	li	a2,0
    8264:	4681                	li	a3,0
    8266:	8d2a                	mv	s10,a0
    8268:	8dae                	mv	s11,a1
    826a:	e18fd0ef          	jal	ra,5882 <__eqdf2>
    826e:	f20515e3          	bnez	a0,8198 <_dtoa_r+0x6e4>
    8272:	b771                	j	81fe <_dtoa_r+0x74a>
    8274:	5722                	lw	a4,40(sp)
    8276:	0e070d63          	beqz	a4,8370 <_dtoa_r+0x8bc>
    827a:	4705                	li	a4,1
    827c:	0da74163          	blt	a4,s10,833e <_dtoa_r+0x88a>
    8280:	4716                	lw	a4,68(sp)
    8282:	43378793          	addi	a5,a5,1075
    8286:	e709                	bnez	a4,8290 <_dtoa_r+0x7dc>
    8288:	4766                	lw	a4,88(sp)
    828a:	03600793          	li	a5,54
    828e:	8f99                	sub	a5,a5,a4
    8290:	5b82                	lw	s7,32(sp)
    8292:	8de2                	mv	s11,s8
    8294:	4585                	li	a1,1
    8296:	8526                	mv	a0,s1
    8298:	9c3e                	add	s8,s8,a5
    829a:	9cbe                	add	s9,s9,a5
    829c:	089000ef          	jal	ra,8b24 <__i2b>
    82a0:	8b2a                	mv	s6,a0
    82a2:	01b05e63          	blez	s11,82be <_dtoa_r+0x80a>
    82a6:	01905c63          	blez	s9,82be <_dtoa_r+0x80a>
    82aa:	87ee                	mv	a5,s11
    82ac:	01bcd363          	bge	s9,s11,82b2 <_dtoa_r+0x7fe>
    82b0:	87e6                	mv	a5,s9
    82b2:	40fc0c33          	sub	s8,s8,a5
    82b6:	40fd8db3          	sub	s11,s11,a5
    82ba:	40fc8cb3          	sub	s9,s9,a5
    82be:	5782                	lw	a5,32(sp)
    82c0:	c3a1                	beqz	a5,8300 <_dtoa_r+0x84c>
    82c2:	57a2                	lw	a5,40(sp)
    82c4:	cbd5                	beqz	a5,8378 <_dtoa_r+0x8c4>
    82c6:	03705463          	blez	s7,82ee <_dtoa_r+0x83a>
    82ca:	85da                	mv	a1,s6
    82cc:	865e                	mv	a2,s7
    82ce:	8526                	mv	a0,s1
    82d0:	1b5000ef          	jal	ra,8c84 <__pow5mult>
    82d4:	864e                	mv	a2,s3
    82d6:	85aa                	mv	a1,a0
    82d8:	8b2a                	mv	s6,a0
    82da:	8526                	mv	a0,s1
    82dc:	065000ef          	jal	ra,8b40 <__multiply>
    82e0:	cc2a                	sw	a0,24(sp)
    82e2:	85ce                	mv	a1,s3
    82e4:	8526                	mv	a0,s1
    82e6:	6b2000ef          	jal	ra,8998 <_Bfree>
    82ea:	47e2                	lw	a5,24(sp)
    82ec:	89be                	mv	s3,a5
    82ee:	5782                	lw	a5,32(sp)
    82f0:	41778633          	sub	a2,a5,s7
    82f4:	c611                	beqz	a2,8300 <_dtoa_r+0x84c>
    82f6:	85ce                	mv	a1,s3
    82f8:	8526                	mv	a0,s1
    82fa:	18b000ef          	jal	ra,8c84 <__pow5mult>
    82fe:	89aa                	mv	s3,a0
    8300:	4585                	li	a1,1
    8302:	8526                	mv	a0,s1
    8304:	021000ef          	jal	ra,8b24 <__i2b>
    8308:	57c2                	lw	a5,48(sp)
    830a:	8baa                	mv	s7,a0
    830c:	06f05863          	blez	a5,837c <_dtoa_r+0x8c8>
    8310:	863e                	mv	a2,a5
    8312:	85aa                	mv	a1,a0
    8314:	8526                	mv	a0,s1
    8316:	16f000ef          	jal	ra,8c84 <__pow5mult>
    831a:	4785                	li	a5,1
    831c:	8baa                	mv	s7,a0
    831e:	07a7d363          	bge	a5,s10,8384 <_dtoa_r+0x8d0>
    8322:	d002                	sw	zero,32(sp)
    8324:	010ba783          	lw	a5,16(s7)
    8328:	078d                	addi	a5,a5,3
    832a:	078a                	slli	a5,a5,0x2
    832c:	97de                	add	a5,a5,s7
    832e:	43c8                	lw	a0,4(a5)
    8330:	744000ef          	jal	ra,8a74 <__hi0bits>
    8334:	02000793          	li	a5,32
    8338:	40a78533          	sub	a0,a5,a0
    833c:	a885                	j	83ac <_dtoa_r+0x8f8>
    833e:	5782                	lw	a5,32(sp)
    8340:	fffa0b93          	addi	s7,s4,-1
    8344:	0177ca63          	blt	a5,s7,8358 <_dtoa_r+0x8a4>
    8348:	41778bb3          	sub	s7,a5,s7
    834c:	000a5f63          	bgez	s4,836a <_dtoa_r+0x8b6>
    8350:	414c0db3          	sub	s11,s8,s4
    8354:	4781                	li	a5,0
    8356:	bf3d                	j	8294 <_dtoa_r+0x7e0>
    8358:	5782                	lw	a5,32(sp)
    835a:	d05e                	sw	s7,32(sp)
    835c:	40fb8633          	sub	a2,s7,a5
    8360:	57c2                	lw	a5,48(sp)
    8362:	4b81                	li	s7,0
    8364:	97b2                	add	a5,a5,a2
    8366:	d83e                	sw	a5,48(sp)
    8368:	b7d5                	j	834c <_dtoa_r+0x898>
    836a:	8de2                	mv	s11,s8
    836c:	87d2                	mv	a5,s4
    836e:	b71d                	j	8294 <_dtoa_r+0x7e0>
    8370:	5b82                	lw	s7,32(sp)
    8372:	8de2                	mv	s11,s8
    8374:	4b01                	li	s6,0
    8376:	b735                	j	82a2 <_dtoa_r+0x7ee>
    8378:	5602                	lw	a2,32(sp)
    837a:	bfb5                	j	82f6 <_dtoa_r+0x842>
    837c:	4785                	li	a5,1
    837e:	d002                	sw	zero,32(sp)
    8380:	03a7c363          	blt	a5,s10,83a6 <_dtoa_r+0x8f2>
    8384:	47c2                	lw	a5,16(sp)
    8386:	d002                	sw	zero,32(sp)
    8388:	ef99                	bnez	a5,83a6 <_dtoa_r+0x8f2>
    838a:	d03e                	sw	a5,32(sp)
    838c:	00c91793          	slli	a5,s2,0xc
    8390:	eb99                	bnez	a5,83a6 <_dtoa_r+0x8f2>
    8392:	7ff005b7          	lui	a1,0x7ff00
    8396:	00b97933          	and	s2,s2,a1
    839a:	00090663          	beqz	s2,83a6 <_dtoa_r+0x8f2>
    839e:	4785                	li	a5,1
    83a0:	0c05                	addi	s8,s8,1
    83a2:	0c85                	addi	s9,s9,1
    83a4:	d03e                	sw	a5,32(sp)
    83a6:	57c2                	lw	a5,48(sp)
    83a8:	4505                	li	a0,1
    83aa:	ffad                	bnez	a5,8324 <_dtoa_r+0x870>
    83ac:	9566                	add	a0,a0,s9
    83ae:	897d                	andi	a0,a0,31
    83b0:	cd3d                	beqz	a0,842e <_dtoa_r+0x97a>
    83b2:	02000793          	li	a5,32
    83b6:	8f89                	sub	a5,a5,a0
    83b8:	4711                	li	a4,4
    83ba:	06f75763          	bge	a4,a5,8428 <_dtoa_r+0x974>
    83be:	47f1                	li	a5,28
    83c0:	40a78533          	sub	a0,a5,a0
    83c4:	9c2a                	add	s8,s8,a0
    83c6:	9daa                	add	s11,s11,a0
    83c8:	9caa                	add	s9,s9,a0
    83ca:	01805863          	blez	s8,83da <_dtoa_r+0x926>
    83ce:	85ce                	mv	a1,s3
    83d0:	8662                	mv	a2,s8
    83d2:	8526                	mv	a0,s1
    83d4:	16f000ef          	jal	ra,8d42 <__lshift>
    83d8:	89aa                	mv	s3,a0
    83da:	01905863          	blez	s9,83ea <_dtoa_r+0x936>
    83de:	85de                	mv	a1,s7
    83e0:	8666                	mv	a2,s9
    83e2:	8526                	mv	a0,s1
    83e4:	15f000ef          	jal	ra,8d42 <__lshift>
    83e8:	8baa                	mv	s7,a0
    83ea:	57f2                	lw	a5,60(sp)
    83ec:	c3b9                	beqz	a5,8432 <_dtoa_r+0x97e>
    83ee:	85de                	mv	a1,s7
    83f0:	854e                	mv	a0,s3
    83f2:	21f000ef          	jal	ra,8e10 <__mcmp>
    83f6:	02055e63          	bgez	a0,8432 <_dtoa_r+0x97e>
    83fa:	85ce                	mv	a1,s3
    83fc:	4681                	li	a3,0
    83fe:	4629                	li	a2,10
    8400:	8526                	mv	a0,s1
    8402:	2be9                	jal	89dc <__multadd>
    8404:	57a2                	lw	a5,40(sp)
    8406:	147d                	addi	s0,s0,-1
    8408:	89aa                	mv	s3,a0
    840a:	24078e63          	beqz	a5,8666 <_dtoa_r+0xbb2>
    840e:	85da                	mv	a1,s6
    8410:	4681                	li	a3,0
    8412:	4629                	li	a2,10
    8414:	8526                	mv	a0,s1
    8416:	23d9                	jal	89dc <__multadd>
    8418:	47b2                	lw	a5,12(sp)
    841a:	8b2a                	mv	s6,a0
    841c:	06f04f63          	bgtz	a5,849a <_dtoa_r+0x9e6>
    8420:	4789                	li	a5,2
    8422:	07a7dc63          	bge	a5,s10,849a <_dtoa_r+0x9e6>
    8426:	a821                	j	843e <_dtoa_r+0x98a>
    8428:	fae781e3          	beq	a5,a4,83ca <_dtoa_r+0x916>
    842c:	853e                	mv	a0,a5
    842e:	0571                	addi	a0,a0,28
    8430:	bf51                	j	83c4 <_dtoa_r+0x910>
    8432:	07404063          	bgtz	s4,8492 <_dtoa_r+0x9de>
    8436:	4789                	li	a5,2
    8438:	05a7dd63          	bge	a5,s10,8492 <_dtoa_r+0x9de>
    843c:	c652                	sw	s4,12(sp)
    843e:	47b2                	lw	a5,12(sp)
    8440:	ef89                	bnez	a5,845a <_dtoa_r+0x9a6>
    8442:	85de                	mv	a1,s7
    8444:	4681                	li	a3,0
    8446:	4615                	li	a2,5
    8448:	8526                	mv	a0,s1
    844a:	2b49                	jal	89dc <__multadd>
    844c:	8baa                	mv	s7,a0
    844e:	85aa                	mv	a1,a0
    8450:	854e                	mv	a0,s3
    8452:	1bf000ef          	jal	ra,8e10 <__mcmp>
    8456:	b6a041e3          	bgtz	a0,7fb8 <_dtoa_r+0x504>
    845a:	5792                	lw	a5,36(sp)
    845c:	8956                	mv	s2,s5
    845e:	fff7c413          	not	s0,a5
    8462:	4c01                	li	s8,0
    8464:	85de                	mv	a1,s7
    8466:	8526                	mv	a0,s1
    8468:	2b05                	jal	8998 <_Bfree>
    846a:	d80b0ae3          	beqz	s6,81fe <_dtoa_r+0x74a>
    846e:	000c0763          	beqz	s8,847c <_dtoa_r+0x9c8>
    8472:	016c0563          	beq	s8,s6,847c <_dtoa_r+0x9c8>
    8476:	85e2                	mv	a1,s8
    8478:	8526                	mv	a0,s1
    847a:	2b39                	jal	8998 <_Bfree>
    847c:	85da                	mv	a1,s6
    847e:	8526                	mv	a0,s1
    8480:	2b21                	jal	8998 <_Bfree>
    8482:	bbb5                	j	81fe <_dtoa_r+0x74a>
    8484:	4b81                	li	s7,0
    8486:	4b01                	li	s6,0
    8488:	bfc9                	j	845a <_dtoa_r+0x9a6>
    848a:	4462                	lw	s0,24(sp)
    848c:	4b81                	li	s7,0
    848e:	4b01                	li	s6,0
    8490:	b625                	j	7fb8 <_dtoa_r+0x504>
    8492:	57a2                	lw	a5,40(sp)
    8494:	c652                	sw	s4,12(sp)
    8496:	1c078e63          	beqz	a5,8672 <_dtoa_r+0xbbe>
    849a:	01b05863          	blez	s11,84aa <_dtoa_r+0x9f6>
    849e:	85da                	mv	a1,s6
    84a0:	866e                	mv	a2,s11
    84a2:	8526                	mv	a0,s1
    84a4:	09f000ef          	jal	ra,8d42 <__lshift>
    84a8:	8b2a                	mv	s6,a0
    84aa:	5782                	lw	a5,32(sp)
    84ac:	855a                	mv	a0,s6
    84ae:	c785                	beqz	a5,84d6 <_dtoa_r+0xa22>
    84b0:	004b2583          	lw	a1,4(s6)
    84b4:	8526                	mv	a0,s1
    84b6:	29a9                	jal	8910 <_Balloc>
    84b8:	010b2603          	lw	a2,16(s6)
    84bc:	892a                	mv	s2,a0
    84be:	00cb0593          	addi	a1,s6,12
    84c2:	0609                	addi	a2,a2,2
    84c4:	060a                	slli	a2,a2,0x2
    84c6:	0531                	addi	a0,a0,12
    84c8:	941fe0ef          	jal	ra,6e08 <memcpy>
    84cc:	4605                	li	a2,1
    84ce:	85ca                	mv	a1,s2
    84d0:	8526                	mv	a0,s1
    84d2:	071000ef          	jal	ra,8d42 <__lshift>
    84d6:	47b2                	lw	a5,12(sp)
    84d8:	8c5a                	mv	s8,s6
    84da:	001a8a13          	addi	s4,s5,1
    84de:	97d6                	add	a5,a5,s5
    84e0:	cc3e                	sw	a5,24(sp)
    84e2:	47c2                	lw	a5,16(sp)
    84e4:	8b2a                	mv	s6,a0
    84e6:	8b85                	andi	a5,a5,1
    84e8:	d03e                	sw	a5,32(sp)
    84ea:	fffa0793          	addi	a5,s4,-1
    84ee:	85de                	mv	a1,s7
    84f0:	854e                	mv	a0,s3
    84f2:	c63e                	sw	a5,12(sp)
    84f4:	c86ff0ef          	jal	ra,797a <quorem>
    84f8:	c82a                	sw	a0,16(sp)
    84fa:	85e2                	mv	a1,s8
    84fc:	03050d93          	addi	s11,a0,48
    8500:	854e                	mv	a0,s3
    8502:	10f000ef          	jal	ra,8e10 <__mcmp>
    8506:	8caa                	mv	s9,a0
    8508:	865a                	mv	a2,s6
    850a:	85de                	mv	a1,s7
    850c:	8526                	mv	a0,s1
    850e:	135000ef          	jal	ra,8e42 <__mdiff>
    8512:	4554                	lw	a3,12(a0)
    8514:	892a                	mv	s2,a0
    8516:	4705                	li	a4,1
    8518:	e691                	bnez	a3,8524 <_dtoa_r+0xa70>
    851a:	85aa                	mv	a1,a0
    851c:	854e                	mv	a0,s3
    851e:	0f3000ef          	jal	ra,8e10 <__mcmp>
    8522:	872a                	mv	a4,a0
    8524:	85ca                	mv	a1,s2
    8526:	8526                	mv	a0,s1
    8528:	d23a                	sw	a4,36(sp)
    852a:	21bd                	jal	8998 <_Bfree>
    852c:	5712                	lw	a4,36(sp)
    852e:	5782                	lw	a5,32(sp)
    8530:	8952                	mv	s2,s4
    8532:	00ed66b3          	or	a3,s10,a4
    8536:	8edd                	or	a3,a3,a5
    8538:	ee91                	bnez	a3,8554 <_dtoa_r+0xaa0>
    853a:	03900713          	li	a4,57
    853e:	04ed8963          	beq	s11,a4,8590 <_dtoa_r+0xadc>
    8542:	01905563          	blez	s9,854c <_dtoa_r+0xa98>
    8546:	47c2                	lw	a5,16(sp)
    8548:	03178d93          	addi	s11,a5,49
    854c:	47b2                	lw	a5,12(sp)
    854e:	01b78023          	sb	s11,0(a5)
    8552:	bf09                	j	8464 <_dtoa_r+0x9b0>
    8554:	000cc963          	bltz	s9,8566 <_dtoa_r+0xab2>
    8558:	5782                	lw	a5,32(sp)
    855a:	019d6cb3          	or	s9,s10,s9
    855e:	00fcecb3          	or	s9,s9,a5
    8562:	040c9663          	bnez	s9,85ae <_dtoa_r+0xafa>
    8566:	fee053e3          	blez	a4,854c <_dtoa_r+0xa98>
    856a:	85ce                	mv	a1,s3
    856c:	4605                	li	a2,1
    856e:	8526                	mv	a0,s1
    8570:	7d2000ef          	jal	ra,8d42 <__lshift>
    8574:	85de                	mv	a1,s7
    8576:	89aa                	mv	s3,a0
    8578:	099000ef          	jal	ra,8e10 <__mcmp>
    857c:	00a04663          	bgtz	a0,8588 <_dtoa_r+0xad4>
    8580:	f571                	bnez	a0,854c <_dtoa_r+0xa98>
    8582:	001df713          	andi	a4,s11,1
    8586:	d379                	beqz	a4,854c <_dtoa_r+0xa98>
    8588:	03900713          	li	a4,57
    858c:	faed9de3          	bne	s11,a4,8546 <_dtoa_r+0xa92>
    8590:	4732                	lw	a4,12(sp)
    8592:	03900793          	li	a5,57
    8596:	00f70023          	sb	a5,0(a4)
    859a:	03900693          	li	a3,57
    859e:	fff94783          	lbu	a5,-1(s2)
    85a2:	fff90713          	addi	a4,s2,-1
    85a6:	08d78963          	beq	a5,a3,8638 <_dtoa_r+0xb84>
    85aa:	0785                	addi	a5,a5,1
    85ac:	a811                	j	85c0 <_dtoa_r+0xb0c>
    85ae:	00e05c63          	blez	a4,85c6 <_dtoa_r+0xb12>
    85b2:	03900713          	li	a4,57
    85b6:	fced8de3          	beq	s11,a4,8590 <_dtoa_r+0xadc>
    85ba:	4732                	lw	a4,12(sp)
    85bc:	001d8793          	addi	a5,s11,1
    85c0:	00f70023          	sb	a5,0(a4)
    85c4:	b545                	j	8464 <_dtoa_r+0x9b0>
    85c6:	47e2                	lw	a5,24(sp)
    85c8:	ffba0fa3          	sb	s11,-1(s4)
    85cc:	03478d63          	beq	a5,s4,8606 <_dtoa_r+0xb52>
    85d0:	85ce                	mv	a1,s3
    85d2:	4681                	li	a3,0
    85d4:	4629                	li	a2,10
    85d6:	8526                	mv	a0,s1
    85d8:	2111                	jal	89dc <__multadd>
    85da:	89aa                	mv	s3,a0
    85dc:	4681                	li	a3,0
    85de:	4629                	li	a2,10
    85e0:	85e2                	mv	a1,s8
    85e2:	8526                	mv	a0,s1
    85e4:	016c1763          	bne	s8,s6,85f2 <_dtoa_r+0xb3e>
    85e8:	2ed5                	jal	89dc <__multadd>
    85ea:	8c2a                	mv	s8,a0
    85ec:	8b2a                	mv	s6,a0
    85ee:	0a05                	addi	s4,s4,1
    85f0:	bded                	j	84ea <_dtoa_r+0xa36>
    85f2:	26ed                	jal	89dc <__multadd>
    85f4:	85da                	mv	a1,s6
    85f6:	8c2a                	mv	s8,a0
    85f8:	4681                	li	a3,0
    85fa:	4629                	li	a2,10
    85fc:	8526                	mv	a0,s1
    85fe:	2ef9                	jal	89dc <__multadd>
    8600:	8b2a                	mv	s6,a0
    8602:	b7f5                	j	85ee <_dtoa_r+0xb3a>
    8604:	4c01                	li	s8,0
    8606:	85ce                	mv	a1,s3
    8608:	4605                	li	a2,1
    860a:	8526                	mv	a0,s1
    860c:	736000ef          	jal	ra,8d42 <__lshift>
    8610:	85de                	mv	a1,s7
    8612:	89aa                	mv	s3,a0
    8614:	7fc000ef          	jal	ra,8e10 <__mcmp>
    8618:	f8a041e3          	bgtz	a0,859a <_dtoa_r+0xae6>
    861c:	e501                	bnez	a0,8624 <_dtoa_r+0xb70>
    861e:	001df793          	andi	a5,s11,1
    8622:	ffa5                	bnez	a5,859a <_dtoa_r+0xae6>
    8624:	03000793          	li	a5,48
    8628:	fff94703          	lbu	a4,-1(s2)
    862c:	fff90693          	addi	a3,s2,-1
    8630:	e2f71ae3          	bne	a4,a5,8464 <_dtoa_r+0x9b0>
    8634:	8936                	mv	s2,a3
    8636:	bfcd                	j	8628 <_dtoa_r+0xb74>
    8638:	00ea9863          	bne	s5,a4,8648 <_dtoa_r+0xb94>
    863c:	03100793          	li	a5,49
    8640:	0405                	addi	s0,s0,1
    8642:	00fa8023          	sb	a5,0(s5)
    8646:	bd39                	j	8464 <_dtoa_r+0x9b0>
    8648:	893a                	mv	s2,a4
    864a:	bf91                	j	859e <_dtoa_r+0xaea>
    864c:	5732                	lw	a4,44(sp)
    864e:	00002a97          	auipc	s5,0x2
    8652:	372a8a93          	addi	s5,s5,882 # a9c0 <__clz_tab+0x194>
    8656:	00002797          	auipc	a5,0x2
    865a:	37278793          	addi	a5,a5,882 # a9c8 <__clz_tab+0x19c>
    865e:	d0071563          	bnez	a4,7b68 <_dtoa_r+0xb4>
    8662:	d0aff06f          	j	7b6c <_dtoa_r+0xb8>
    8666:	47b2                	lw	a5,12(sp)
    8668:	00f04563          	bgtz	a5,8672 <_dtoa_r+0xbbe>
    866c:	4789                	li	a5,2
    866e:	dda7c8e3          	blt	a5,s10,843e <_dtoa_r+0x98a>
    8672:	8956                	mv	s2,s5
    8674:	85de                	mv	a1,s7
    8676:	854e                	mv	a0,s3
    8678:	b02ff0ef          	jal	ra,797a <quorem>
    867c:	47b2                	lw	a5,12(sp)
    867e:	0905                	addi	s2,s2,1
    8680:	03050d93          	addi	s11,a0,48
    8684:	ffb90fa3          	sb	s11,-1(s2)
    8688:	41590733          	sub	a4,s2,s5
    868c:	f6f75ce3          	bge	a4,a5,8604 <_dtoa_r+0xb50>
    8690:	85ce                	mv	a1,s3
    8692:	4681                	li	a3,0
    8694:	4629                	li	a2,10
    8696:	8526                	mv	a0,s1
    8698:	2691                	jal	89dc <__multadd>
    869a:	89aa                	mv	s3,a0
    869c:	bfe1                	j	8674 <_dtoa_r+0xbc0>

0000869e <std>:
std():
    869e:	1141                	addi	sp,sp,-16
    86a0:	c422                	sw	s0,8(sp)
    86a2:	c606                	sw	ra,12(sp)
    86a4:	842a                	mv	s0,a0
    86a6:	00b51623          	sh	a1,12(a0)
    86aa:	00c51723          	sh	a2,14(a0)
    86ae:	00052023          	sw	zero,0(a0)
    86b2:	00052223          	sw	zero,4(a0)
    86b6:	00052423          	sw	zero,8(a0)
    86ba:	06052223          	sw	zero,100(a0)
    86be:	00052823          	sw	zero,16(a0)
    86c2:	00052a23          	sw	zero,20(a0)
    86c6:	00052c23          	sw	zero,24(a0)
    86ca:	4621                	li	a2,8
    86cc:	4581                	li	a1,0
    86ce:	05c50513          	addi	a0,a0,92
    86d2:	b2ff70ef          	jal	ra,200 <memset>
    86d6:	00001797          	auipc	a5,0x1
    86da:	17478793          	addi	a5,a5,372 # 984a <__sread>
    86de:	d05c                	sw	a5,36(s0)
    86e0:	00001797          	auipc	a5,0x1
    86e4:	19a78793          	addi	a5,a5,410 # 987a <__swrite>
    86e8:	d41c                	sw	a5,40(s0)
    86ea:	00001797          	auipc	a5,0x1
    86ee:	1de78793          	addi	a5,a5,478 # 98c8 <__sseek>
    86f2:	d45c                	sw	a5,44(s0)
    86f4:	00001797          	auipc	a5,0x1
    86f8:	20a78793          	addi	a5,a5,522 # 98fe <__sclose>
    86fc:	d000                	sw	s0,32(s0)
    86fe:	d81c                	sw	a5,48(s0)
    8700:	40b2                	lw	ra,12(sp)
    8702:	4422                	lw	s0,8(sp)
    8704:	0141                	addi	sp,sp,16
    8706:	8082                	ret

00008708 <_cleanup_r>:
_cleanup_r():
    8708:	00001597          	auipc	a1,0x1
    870c:	56458593          	addi	a1,a1,1380 # 9c6c <_fflush_r>
    8710:	aa99                	j	8866 <_fwalk_reent>

00008712 <__sfmoreglue>:
__sfmoreglue():
    8712:	1141                	addi	sp,sp,-16
    8714:	c226                	sw	s1,4(sp)
    8716:	06800613          	li	a2,104
    871a:	fff58493          	addi	s1,a1,-1
    871e:	02c484b3          	mul	s1,s1,a2
    8722:	c04a                	sw	s2,0(sp)
    8724:	892e                	mv	s2,a1
    8726:	c422                	sw	s0,8(sp)
    8728:	c606                	sw	ra,12(sp)
    872a:	07448593          	addi	a1,s1,116
    872e:	1a9000ef          	jal	ra,90d6 <_malloc_r>
    8732:	842a                	mv	s0,a0
    8734:	cd01                	beqz	a0,874c <__sfmoreglue+0x3a>
    8736:	00052023          	sw	zero,0(a0)
    873a:	01252223          	sw	s2,4(a0)
    873e:	0531                	addi	a0,a0,12
    8740:	c408                	sw	a0,8(s0)
    8742:	06848613          	addi	a2,s1,104
    8746:	4581                	li	a1,0
    8748:	ab9f70ef          	jal	ra,200 <memset>
    874c:	8522                	mv	a0,s0
    874e:	40b2                	lw	ra,12(sp)
    8750:	4422                	lw	s0,8(sp)
    8752:	4492                	lw	s1,4(sp)
    8754:	4902                	lw	s2,0(sp)
    8756:	0141                	addi	sp,sp,16
    8758:	8082                	ret

0000875a <__sinit>:
__sinit():
    875a:	4d1c                	lw	a5,24(a0)
    875c:	e7a5                	bnez	a5,87c4 <__sinit+0x6a>
    875e:	1141                	addi	sp,sp,-16
    8760:	c606                	sw	ra,12(sp)
    8762:	c422                	sw	s0,8(sp)
    8764:	00000797          	auipc	a5,0x0
    8768:	fa478793          	addi	a5,a5,-92 # 8708 <_cleanup_r>
    876c:	d51c                	sw	a5,40(a0)
    876e:	82c18793          	addi	a5,gp,-2004 # 20000264 <_global_impure_ptr>
    8772:	439c                	lw	a5,0(a5)
    8774:	04052423          	sw	zero,72(a0)
    8778:	04052623          	sw	zero,76(a0)
    877c:	04052823          	sw	zero,80(a0)
    8780:	00f51463          	bne	a0,a5,8788 <__sinit+0x2e>
    8784:	4785                	li	a5,1
    8786:	cd1c                	sw	a5,24(a0)
    8788:	842a                	mv	s0,a0
    878a:	2835                	jal	87c6 <__sfp>
    878c:	c048                	sw	a0,4(s0)
    878e:	8522                	mv	a0,s0
    8790:	281d                	jal	87c6 <__sfp>
    8792:	c408                	sw	a0,8(s0)
    8794:	8522                	mv	a0,s0
    8796:	2805                	jal	87c6 <__sfp>
    8798:	c448                	sw	a0,12(s0)
    879a:	4048                	lw	a0,4(s0)
    879c:	4601                	li	a2,0
    879e:	4591                	li	a1,4
    87a0:	effff0ef          	jal	ra,869e <std>
    87a4:	4408                	lw	a0,8(s0)
    87a6:	4605                	li	a2,1
    87a8:	45a5                	li	a1,9
    87aa:	ef5ff0ef          	jal	ra,869e <std>
    87ae:	4448                	lw	a0,12(s0)
    87b0:	4609                	li	a2,2
    87b2:	45c9                	li	a1,18
    87b4:	eebff0ef          	jal	ra,869e <std>
    87b8:	4785                	li	a5,1
    87ba:	cc1c                	sw	a5,24(s0)
    87bc:	40b2                	lw	ra,12(sp)
    87be:	4422                	lw	s0,8(sp)
    87c0:	0141                	addi	sp,sp,16
    87c2:	8082                	ret
    87c4:	8082                	ret

000087c6 <__sfp>:
__sfp():
    87c6:	1141                	addi	sp,sp,-16
    87c8:	82c18793          	addi	a5,gp,-2004 # 20000264 <_global_impure_ptr>
    87cc:	c226                	sw	s1,4(sp)
    87ce:	4384                	lw	s1,0(a5)
    87d0:	c04a                	sw	s2,0(sp)
    87d2:	c606                	sw	ra,12(sp)
    87d4:	4c9c                	lw	a5,24(s1)
    87d6:	c422                	sw	s0,8(sp)
    87d8:	892a                	mv	s2,a0
    87da:	e781                	bnez	a5,87e2 <__sfp+0x1c>
    87dc:	8526                	mv	a0,s1
    87de:	f7dff0ef          	jal	ra,875a <__sinit>
    87e2:	04848493          	addi	s1,s1,72
    87e6:	4480                	lw	s0,8(s1)
    87e8:	40dc                	lw	a5,4(s1)
    87ea:	17fd                	addi	a5,a5,-1
    87ec:	0007d663          	bgez	a5,87f8 <__sfp+0x32>
    87f0:	409c                	lw	a5,0(s1)
    87f2:	cfb9                	beqz	a5,8850 <__sfp+0x8a>
    87f4:	4084                	lw	s1,0(s1)
    87f6:	bfc5                	j	87e6 <__sfp+0x20>
    87f8:	00c41703          	lh	a4,12(s0)
    87fc:	e739                	bnez	a4,884a <__sfp+0x84>
    87fe:	77c1                	lui	a5,0xffff0
    8800:	0785                	addi	a5,a5,1
    8802:	06042223          	sw	zero,100(s0)
    8806:	00042023          	sw	zero,0(s0)
    880a:	00042223          	sw	zero,4(s0)
    880e:	00042423          	sw	zero,8(s0)
    8812:	c45c                	sw	a5,12(s0)
    8814:	00042823          	sw	zero,16(s0)
    8818:	00042a23          	sw	zero,20(s0)
    881c:	00042c23          	sw	zero,24(s0)
    8820:	4621                	li	a2,8
    8822:	4581                	li	a1,0
    8824:	05c40513          	addi	a0,s0,92
    8828:	9d9f70ef          	jal	ra,200 <memset>
    882c:	02042a23          	sw	zero,52(s0)
    8830:	02042c23          	sw	zero,56(s0)
    8834:	04042423          	sw	zero,72(s0)
    8838:	04042623          	sw	zero,76(s0)
    883c:	8522                	mv	a0,s0
    883e:	40b2                	lw	ra,12(sp)
    8840:	4422                	lw	s0,8(sp)
    8842:	4492                	lw	s1,4(sp)
    8844:	4902                	lw	s2,0(sp)
    8846:	0141                	addi	sp,sp,16
    8848:	8082                	ret
    884a:	06840413          	addi	s0,s0,104
    884e:	bf71                	j	87ea <__sfp+0x24>
    8850:	4591                	li	a1,4
    8852:	854a                	mv	a0,s2
    8854:	ebfff0ef          	jal	ra,8712 <__sfmoreglue>
    8858:	c088                	sw	a0,0(s1)
    885a:	fd49                	bnez	a0,87f4 <__sfp+0x2e>
    885c:	47b1                	li	a5,12
    885e:	00f92023          	sw	a5,0(s2)
    8862:	4401                	li	s0,0
    8864:	bfe1                	j	883c <__sfp+0x76>

00008866 <_fwalk_reent>:
_fwalk_reent():
    8866:	7179                	addi	sp,sp,-48
    8868:	d422                	sw	s0,40(sp)
    886a:	d04a                	sw	s2,32(sp)
    886c:	cc52                	sw	s4,24(sp)
    886e:	ca56                	sw	s5,20(sp)
    8870:	c85a                	sw	s6,16(sp)
    8872:	c65e                	sw	s7,12(sp)
    8874:	d606                	sw	ra,44(sp)
    8876:	d226                	sw	s1,36(sp)
    8878:	ce4e                	sw	s3,28(sp)
    887a:	8a2a                	mv	s4,a0
    887c:	8aae                	mv	s5,a1
    887e:	04850413          	addi	s0,a0,72
    8882:	4901                	li	s2,0
    8884:	4b05                	li	s6,1
    8886:	5bfd                	li	s7,-1
    8888:	ec09                	bnez	s0,88a2 <_fwalk_reent+0x3c>
    888a:	50b2                	lw	ra,44(sp)
    888c:	5422                	lw	s0,40(sp)
    888e:	854a                	mv	a0,s2
    8890:	5492                	lw	s1,36(sp)
    8892:	5902                	lw	s2,32(sp)
    8894:	49f2                	lw	s3,28(sp)
    8896:	4a62                	lw	s4,24(sp)
    8898:	4ad2                	lw	s5,20(sp)
    889a:	4b42                	lw	s6,16(sp)
    889c:	4bb2                	lw	s7,12(sp)
    889e:	6145                	addi	sp,sp,48
    88a0:	8082                	ret
    88a2:	4404                	lw	s1,8(s0)
    88a4:	00442983          	lw	s3,4(s0)
    88a8:	19fd                	addi	s3,s3,-1
    88aa:	0009d463          	bgez	s3,88b2 <_fwalk_reent+0x4c>
    88ae:	4000                	lw	s0,0(s0)
    88b0:	bfe1                	j	8888 <_fwalk_reent+0x22>
    88b2:	00c4d783          	lhu	a5,12(s1)
    88b6:	00fb7b63          	bgeu	s6,a5,88cc <_fwalk_reent+0x66>
    88ba:	00e49783          	lh	a5,14(s1)
    88be:	01778763          	beq	a5,s7,88cc <_fwalk_reent+0x66>
    88c2:	85a6                	mv	a1,s1
    88c4:	8552                	mv	a0,s4
    88c6:	9a82                	jalr	s5
    88c8:	00a96933          	or	s2,s2,a0
    88cc:	06848493          	addi	s1,s1,104
    88d0:	bfe1                	j	88a8 <_fwalk_reent+0x42>

000088d2 <_localeconv_r>:
_localeconv_r():
    88d2:	82418793          	addi	a5,gp,-2012 # 2000025c <_impure_ptr>
    88d6:	439c                	lw	a5,0(a5)
    88d8:	5388                	lw	a0,32(a5)
    88da:	e509                	bnez	a0,88e4 <_localeconv_r+0x12>
    88dc:	1fff7517          	auipc	a0,0x1fff7
    88e0:	7ec50513          	addi	a0,a0,2028 # 200000c8 <__global_locale>
    88e4:	0f050513          	addi	a0,a0,240
    88e8:	8082                	ret

000088ea <malloc>:
malloc():
    88ea:	82418793          	addi	a5,gp,-2012 # 2000025c <_impure_ptr>
    88ee:	85aa                	mv	a1,a0
    88f0:	4388                	lw	a0,0(a5)
    88f2:	7e40006f          	j	90d6 <_malloc_r>

000088f6 <memchr>:
memchr():
    88f6:	0ff5f593          	andi	a1,a1,255
    88fa:	962a                	add	a2,a2,a0
    88fc:	00c51463          	bne	a0,a2,8904 <memchr+0xe>
    8900:	4501                	li	a0,0
    8902:	8082                	ret
    8904:	00054783          	lbu	a5,0(a0)
    8908:	feb78de3          	beq	a5,a1,8902 <memchr+0xc>
    890c:	0505                	addi	a0,a0,1
    890e:	b7fd                	j	88fc <memchr+0x6>

00008910 <_Balloc>:
_Balloc():
    8910:	515c                	lw	a5,36(a0)
    8912:	1141                	addi	sp,sp,-16
    8914:	c422                	sw	s0,8(sp)
    8916:	c04a                	sw	s2,0(sp)
    8918:	c606                	sw	ra,12(sp)
    891a:	c226                	sw	s1,4(sp)
    891c:	842a                	mv	s0,a0
    891e:	892e                	mv	s2,a1
    8920:	ef89                	bnez	a5,893a <_Balloc+0x2a>
    8922:	4541                	li	a0,16
    8924:	fc7ff0ef          	jal	ra,88ea <malloc>
    8928:	d048                	sw	a0,36(s0)
    892a:	00052223          	sw	zero,4(a0)
    892e:	00052423          	sw	zero,8(a0)
    8932:	00052023          	sw	zero,0(a0)
    8936:	00052623          	sw	zero,12(a0)
    893a:	5044                	lw	s1,36(s0)
    893c:	44dc                	lw	a5,12(s1)
    893e:	c795                	beqz	a5,896a <_Balloc+0x5a>
    8940:	5058                	lw	a4,36(s0)
    8942:	00291793          	slli	a5,s2,0x2
    8946:	4758                	lw	a4,12(a4)
    8948:	97ba                	add	a5,a5,a4
    894a:	4388                	lw	a0,0(a5)
    894c:	ed1d                	bnez	a0,898a <_Balloc+0x7a>
    894e:	4485                	li	s1,1
    8950:	012494b3          	sll	s1,s1,s2
    8954:	00548613          	addi	a2,s1,5
    8958:	060a                	slli	a2,a2,0x2
    895a:	4585                	li	a1,1
    895c:	8522                	mv	a0,s0
    895e:	256d                	jal	9008 <_calloc_r>
    8960:	cd11                	beqz	a0,897c <_Balloc+0x6c>
    8962:	01252223          	sw	s2,4(a0)
    8966:	c504                	sw	s1,8(a0)
    8968:	a01d                	j	898e <_Balloc+0x7e>
    896a:	02100613          	li	a2,33
    896e:	4591                	li	a1,4
    8970:	8522                	mv	a0,s0
    8972:	2d59                	jal	9008 <_calloc_r>
    8974:	505c                	lw	a5,36(s0)
    8976:	c4c8                	sw	a0,12(s1)
    8978:	47dc                	lw	a5,12(a5)
    897a:	f3f9                	bnez	a5,8940 <_Balloc+0x30>
    897c:	4501                	li	a0,0
    897e:	40b2                	lw	ra,12(sp)
    8980:	4422                	lw	s0,8(sp)
    8982:	4492                	lw	s1,4(sp)
    8984:	4902                	lw	s2,0(sp)
    8986:	0141                	addi	sp,sp,16
    8988:	8082                	ret
    898a:	4118                	lw	a4,0(a0)
    898c:	c398                	sw	a4,0(a5)
    898e:	00052823          	sw	zero,16(a0)
    8992:	00052623          	sw	zero,12(a0)
    8996:	b7e5                	j	897e <_Balloc+0x6e>

00008998 <_Bfree>:
_Bfree():
    8998:	515c                	lw	a5,36(a0)
    899a:	1101                	addi	sp,sp,-32
    899c:	cc22                	sw	s0,24(sp)
    899e:	ce06                	sw	ra,28(sp)
    89a0:	842a                	mv	s0,a0
    89a2:	ef99                	bnez	a5,89c0 <_Bfree+0x28>
    89a4:	4541                	li	a0,16
    89a6:	c62e                	sw	a1,12(sp)
    89a8:	f43ff0ef          	jal	ra,88ea <malloc>
    89ac:	45b2                	lw	a1,12(sp)
    89ae:	d048                	sw	a0,36(s0)
    89b0:	00052223          	sw	zero,4(a0)
    89b4:	00052423          	sw	zero,8(a0)
    89b8:	00052023          	sw	zero,0(a0)
    89bc:	00052623          	sw	zero,12(a0)
    89c0:	c991                	beqz	a1,89d4 <_Bfree+0x3c>
    89c2:	5054                	lw	a3,36(s0)
    89c4:	41dc                	lw	a5,4(a1)
    89c6:	00279713          	slli	a4,a5,0x2
    89ca:	46dc                	lw	a5,12(a3)
    89cc:	97ba                	add	a5,a5,a4
    89ce:	4398                	lw	a4,0(a5)
    89d0:	c198                	sw	a4,0(a1)
    89d2:	c38c                	sw	a1,0(a5)
    89d4:	40f2                	lw	ra,28(sp)
    89d6:	4462                	lw	s0,24(sp)
    89d8:	6105                	addi	sp,sp,32
    89da:	8082                	ret

000089dc <__multadd>:
__multadd():
    89dc:	7179                	addi	sp,sp,-48
    89de:	ce4e                	sw	s3,28(sp)
    89e0:	89aa                	mv	s3,a0
    89e2:	6541                	lui	a0,0x10
    89e4:	d422                	sw	s0,40(sp)
    89e6:	d226                	sw	s1,36(sp)
    89e8:	842e                	mv	s0,a1
    89ea:	4984                	lw	s1,16(a1)
    89ec:	d606                	sw	ra,44(sp)
    89ee:	d04a                	sw	s2,32(sp)
    89f0:	05d1                	addi	a1,a1,20
    89f2:	4801                	li	a6,0
    89f4:	157d                	addi	a0,a0,-1
    89f6:	419c                	lw	a5,0(a1)
    89f8:	0591                	addi	a1,a1,4
    89fa:	0805                	addi	a6,a6,1
    89fc:	00a7f733          	and	a4,a5,a0
    8a00:	02c70733          	mul	a4,a4,a2
    8a04:	83c1                	srli	a5,a5,0x10
    8a06:	02c787b3          	mul	a5,a5,a2
    8a0a:	9736                	add	a4,a4,a3
    8a0c:	01075693          	srli	a3,a4,0x10
    8a10:	8f69                	and	a4,a4,a0
    8a12:	97b6                	add	a5,a5,a3
    8a14:	0107d693          	srli	a3,a5,0x10
    8a18:	07c2                	slli	a5,a5,0x10
    8a1a:	97ba                	add	a5,a5,a4
    8a1c:	fef5ae23          	sw	a5,-4(a1)
    8a20:	fc984be3          	blt	a6,s1,89f6 <__multadd+0x1a>
    8a24:	c2a1                	beqz	a3,8a64 <__multadd+0x88>
    8a26:	441c                	lw	a5,8(s0)
    8a28:	02f4c763          	blt	s1,a5,8a56 <__multadd+0x7a>
    8a2c:	404c                	lw	a1,4(s0)
    8a2e:	854e                	mv	a0,s3
    8a30:	c636                	sw	a3,12(sp)
    8a32:	0585                	addi	a1,a1,1
    8a34:	eddff0ef          	jal	ra,8910 <_Balloc>
    8a38:	4810                	lw	a2,16(s0)
    8a3a:	00c40593          	addi	a1,s0,12
    8a3e:	892a                	mv	s2,a0
    8a40:	0609                	addi	a2,a2,2
    8a42:	060a                	slli	a2,a2,0x2
    8a44:	0531                	addi	a0,a0,12
    8a46:	bc2fe0ef          	jal	ra,6e08 <memcpy>
    8a4a:	85a2                	mv	a1,s0
    8a4c:	854e                	mv	a0,s3
    8a4e:	f4bff0ef          	jal	ra,8998 <_Bfree>
    8a52:	46b2                	lw	a3,12(sp)
    8a54:	844a                	mv	s0,s2
    8a56:	00448793          	addi	a5,s1,4
    8a5a:	078a                	slli	a5,a5,0x2
    8a5c:	97a2                	add	a5,a5,s0
    8a5e:	c3d4                	sw	a3,4(a5)
    8a60:	0485                	addi	s1,s1,1
    8a62:	c804                	sw	s1,16(s0)
    8a64:	8522                	mv	a0,s0
    8a66:	50b2                	lw	ra,44(sp)
    8a68:	5422                	lw	s0,40(sp)
    8a6a:	5492                	lw	s1,36(sp)
    8a6c:	5902                	lw	s2,32(sp)
    8a6e:	49f2                	lw	s3,28(sp)
    8a70:	6145                	addi	sp,sp,48
    8a72:	8082                	ret

00008a74 <__hi0bits>:
__hi0bits():
    8a74:	7741                	lui	a4,0xffff0
    8a76:	8f69                	and	a4,a4,a0
    8a78:	87aa                	mv	a5,a0
    8a7a:	4501                	li	a0,0
    8a7c:	e319                	bnez	a4,8a82 <__hi0bits+0xe>
    8a7e:	07c2                	slli	a5,a5,0x10
    8a80:	4541                	li	a0,16
    8a82:	ff000737          	lui	a4,0xff000
    8a86:	8f7d                	and	a4,a4,a5
    8a88:	e319                	bnez	a4,8a8e <__hi0bits+0x1a>
    8a8a:	0521                	addi	a0,a0,8
    8a8c:	07a2                	slli	a5,a5,0x8
    8a8e:	f0000737          	lui	a4,0xf0000
    8a92:	8f7d                	and	a4,a4,a5
    8a94:	e319                	bnez	a4,8a9a <__hi0bits+0x26>
    8a96:	0511                	addi	a0,a0,4
    8a98:	0792                	slli	a5,a5,0x4
    8a9a:	c0000737          	lui	a4,0xc0000
    8a9e:	8f7d                	and	a4,a4,a5
    8aa0:	e319                	bnez	a4,8aa6 <__hi0bits+0x32>
    8aa2:	0509                	addi	a0,a0,2
    8aa4:	078a                	slli	a5,a5,0x2
    8aa6:	0007c963          	bltz	a5,8ab8 <__hi0bits+0x44>
    8aaa:	00179713          	slli	a4,a5,0x1
    8aae:	0505                	addi	a0,a0,1
    8ab0:	00074463          	bltz	a4,8ab8 <__hi0bits+0x44>
    8ab4:	02000513          	li	a0,32
    8ab8:	8082                	ret

00008aba <__lo0bits>:
__lo0bits():
    8aba:	411c                	lw	a5,0(a0)
    8abc:	0077f713          	andi	a4,a5,7
    8ac0:	c30d                	beqz	a4,8ae2 <__lo0bits+0x28>
    8ac2:	0017f693          	andi	a3,a5,1
    8ac6:	4701                	li	a4,0
    8ac8:	e699                	bnez	a3,8ad6 <__lo0bits+0x1c>
    8aca:	0027f713          	andi	a4,a5,2
    8ace:	c711                	beqz	a4,8ada <__lo0bits+0x20>
    8ad0:	8385                	srli	a5,a5,0x1
    8ad2:	c11c                	sw	a5,0(a0)
    8ad4:	4705                	li	a4,1
    8ad6:	853a                	mv	a0,a4
    8ad8:	8082                	ret
    8ada:	8389                	srli	a5,a5,0x2
    8adc:	c11c                	sw	a5,0(a0)
    8ade:	4709                	li	a4,2
    8ae0:	bfdd                	j	8ad6 <__lo0bits+0x1c>
    8ae2:	01079693          	slli	a3,a5,0x10
    8ae6:	82c1                	srli	a3,a3,0x10
    8ae8:	4701                	li	a4,0
    8aea:	e299                	bnez	a3,8af0 <__lo0bits+0x36>
    8aec:	83c1                	srli	a5,a5,0x10
    8aee:	4741                	li	a4,16
    8af0:	0ff7f693          	andi	a3,a5,255
    8af4:	e299                	bnez	a3,8afa <__lo0bits+0x40>
    8af6:	0721                	addi	a4,a4,8
    8af8:	83a1                	srli	a5,a5,0x8
    8afa:	00f7f693          	andi	a3,a5,15
    8afe:	e299                	bnez	a3,8b04 <__lo0bits+0x4a>
    8b00:	0711                	addi	a4,a4,4
    8b02:	8391                	srli	a5,a5,0x4
    8b04:	0037f693          	andi	a3,a5,3
    8b08:	e299                	bnez	a3,8b0e <__lo0bits+0x54>
    8b0a:	0709                	addi	a4,a4,2
    8b0c:	8389                	srli	a5,a5,0x2
    8b0e:	0017f693          	andi	a3,a5,1
    8b12:	e681                	bnez	a3,8b1a <__lo0bits+0x60>
    8b14:	8385                	srli	a5,a5,0x1
    8b16:	0705                	addi	a4,a4,1
    8b18:	c399                	beqz	a5,8b1e <__lo0bits+0x64>
    8b1a:	c11c                	sw	a5,0(a0)
    8b1c:	bf6d                	j	8ad6 <__lo0bits+0x1c>
    8b1e:	02000713          	li	a4,32
    8b22:	bf55                	j	8ad6 <__lo0bits+0x1c>

00008b24 <__i2b>:
__i2b():
    8b24:	1141                	addi	sp,sp,-16
    8b26:	c422                	sw	s0,8(sp)
    8b28:	842e                	mv	s0,a1
    8b2a:	4585                	li	a1,1
    8b2c:	c606                	sw	ra,12(sp)
    8b2e:	de3ff0ef          	jal	ra,8910 <_Balloc>
    8b32:	c940                	sw	s0,20(a0)
    8b34:	40b2                	lw	ra,12(sp)
    8b36:	4422                	lw	s0,8(sp)
    8b38:	4705                	li	a4,1
    8b3a:	c918                	sw	a4,16(a0)
    8b3c:	0141                	addi	sp,sp,16
    8b3e:	8082                	ret

00008b40 <__multiply>:
__multiply():
    8b40:	4998                	lw	a4,16(a1)
    8b42:	4a1c                	lw	a5,16(a2)
    8b44:	7179                	addi	sp,sp,-48
    8b46:	d226                	sw	s1,36(sp)
    8b48:	d606                	sw	ra,44(sp)
    8b4a:	d422                	sw	s0,40(sp)
    8b4c:	d04a                	sw	s2,32(sp)
    8b4e:	ce4e                	sw	s3,28(sp)
    8b50:	84ae                	mv	s1,a1
    8b52:	00f75463          	bge	a4,a5,8b5a <__multiply+0x1a>
    8b56:	84b2                	mv	s1,a2
    8b58:	862e                	mv	a2,a1
    8b5a:	0104a983          	lw	s3,16(s1)
    8b5e:	01062903          	lw	s2,16(a2) # 10010 <_data_lma+0x53bc>
    8b62:	449c                	lw	a5,8(s1)
    8b64:	40cc                	lw	a1,4(s1)
    8b66:	01298433          	add	s0,s3,s2
    8b6a:	0087d363          	bge	a5,s0,8b70 <__multiply+0x30>
    8b6e:	0585                	addi	a1,a1,1
    8b70:	c632                	sw	a2,12(sp)
    8b72:	d9fff0ef          	jal	ra,8910 <_Balloc>
    8b76:	4632                	lw	a2,12(sp)
    8b78:	01450813          	addi	a6,a0,20 # 10014 <_data_lma+0x53c0>
    8b7c:	00241313          	slli	t1,s0,0x2
    8b80:	9342                	add	t1,t1,a6
    8b82:	87c2                	mv	a5,a6
    8b84:	0267ed63          	bltu	a5,t1,8bbe <__multiply+0x7e>
    8b88:	01448593          	addi	a1,s1,20
    8b8c:	00299893          	slli	a7,s3,0x2
    8b90:	0651                	addi	a2,a2,20
    8b92:	00291e13          	slli	t3,s2,0x2
    8b96:	66c1                	lui	a3,0x10
    8b98:	98ae                	add	a7,a7,a1
    8b9a:	9e32                	add	t3,t3,a2
    8b9c:	16fd                	addi	a3,a3,-1
    8b9e:	03c66463          	bltu	a2,t3,8bc6 <__multiply+0x86>
    8ba2:	00805663          	blez	s0,8bae <__multiply+0x6e>
    8ba6:	1371                	addi	t1,t1,-4
    8ba8:	00032783          	lw	a5,0(t1)
    8bac:	cbf1                	beqz	a5,8c80 <__multiply+0x140>
    8bae:	c900                	sw	s0,16(a0)
    8bb0:	50b2                	lw	ra,44(sp)
    8bb2:	5422                	lw	s0,40(sp)
    8bb4:	5492                	lw	s1,36(sp)
    8bb6:	5902                	lw	s2,32(sp)
    8bb8:	49f2                	lw	s3,28(sp)
    8bba:	6145                	addi	sp,sp,48
    8bbc:	8082                	ret
    8bbe:	0007a023          	sw	zero,0(a5) # ffff0000 <_eusrstack+0xdffe0000>
    8bc2:	0791                	addi	a5,a5,4
    8bc4:	b7c1                	j	8b84 <__multiply+0x44>
    8bc6:	00062f83          	lw	t6,0(a2)
    8bca:	00dfffb3          	and	t6,t6,a3
    8bce:	040f8a63          	beqz	t6,8c22 <__multiply+0xe2>
    8bd2:	8f42                	mv	t5,a6
    8bd4:	82ae                	mv	t0,a1
    8bd6:	4481                	li	s1,0
    8bd8:	0002a703          	lw	a4,0(t0) # 10000 <_data_lma+0x53ac>
    8bdc:	000f2383          	lw	t2,0(t5)
    8be0:	0f11                	addi	t5,t5,4
    8be2:	00d77eb3          	and	t4,a4,a3
    8be6:	03fe8eb3          	mul	t4,t4,t6
    8bea:	00d3f7b3          	and	a5,t2,a3
    8bee:	0103d393          	srli	t2,t2,0x10
    8bf2:	0291                	addi	t0,t0,4
    8bf4:	9ebe                	add	t4,t4,a5
    8bf6:	01075793          	srli	a5,a4,0x10
    8bfa:	03f787b3          	mul	a5,a5,t6
    8bfe:	9ea6                	add	t4,t4,s1
    8c00:	010ed713          	srli	a4,t4,0x10
    8c04:	00defeb3          	and	t4,t4,a3
    8c08:	979e                	add	a5,a5,t2
    8c0a:	97ba                	add	a5,a5,a4
    8c0c:	0107d493          	srli	s1,a5,0x10
    8c10:	07c2                	slli	a5,a5,0x10
    8c12:	01d7e7b3          	or	a5,a5,t4
    8c16:	feff2e23          	sw	a5,-4(t5)
    8c1a:	fb12efe3          	bltu	t0,a7,8bd8 <__multiply+0x98>
    8c1e:	009f2023          	sw	s1,0(t5)
    8c22:	00265283          	lhu	t0,2(a2)
    8c26:	04028a63          	beqz	t0,8c7a <__multiply+0x13a>
    8c2a:	00082783          	lw	a5,0(a6)
    8c2e:	8ec2                	mv	t4,a6
    8c30:	8f2e                	mv	t5,a1
    8c32:	4f81                	li	t6,0
    8c34:	000f2703          	lw	a4,0(t5)
    8c38:	002ed383          	lhu	t2,2(t4) # 10002 <_data_lma+0x53ae>
    8c3c:	8ff5                	and	a5,a5,a3
    8c3e:	8f75                	and	a4,a4,a3
    8c40:	02570733          	mul	a4,a4,t0
    8c44:	0e91                	addi	t4,t4,4
    8c46:	0f11                	addi	t5,t5,4
    8c48:	971e                	add	a4,a4,t2
    8c4a:	977e                	add	a4,a4,t6
    8c4c:	01071f93          	slli	t6,a4,0x10
    8c50:	00ffe7b3          	or	a5,t6,a5
    8c54:	fefeae23          	sw	a5,-4(t4)
    8c58:	ffef5783          	lhu	a5,-2(t5)
    8c5c:	000eaf83          	lw	t6,0(t4)
    8c60:	8341                	srli	a4,a4,0x10
    8c62:	025787b3          	mul	a5,a5,t0
    8c66:	00dfffb3          	and	t6,t6,a3
    8c6a:	97fe                	add	a5,a5,t6
    8c6c:	97ba                	add	a5,a5,a4
    8c6e:	0107df93          	srli	t6,a5,0x10
    8c72:	fd1f61e3          	bltu	t5,a7,8c34 <__multiply+0xf4>
    8c76:	00fea023          	sw	a5,0(t4)
    8c7a:	0611                	addi	a2,a2,4
    8c7c:	0811                	addi	a6,a6,4
    8c7e:	b705                	j	8b9e <__multiply+0x5e>
    8c80:	147d                	addi	s0,s0,-1
    8c82:	b705                	j	8ba2 <__multiply+0x62>

00008c84 <__pow5mult>:
__pow5mult():
    8c84:	1101                	addi	sp,sp,-32
    8c86:	ca26                	sw	s1,20(sp)
    8c88:	c84a                	sw	s2,16(sp)
    8c8a:	c64e                	sw	s3,12(sp)
    8c8c:	ce06                	sw	ra,28(sp)
    8c8e:	cc22                	sw	s0,24(sp)
    8c90:	c452                	sw	s4,8(sp)
    8c92:	00367793          	andi	a5,a2,3
    8c96:	892a                	mv	s2,a0
    8c98:	84b2                	mv	s1,a2
    8c9a:	89ae                	mv	s3,a1
    8c9c:	cf89                	beqz	a5,8cb6 <__pow5mult+0x32>
    8c9e:	17fd                	addi	a5,a5,-1
    8ca0:	00002717          	auipc	a4,0x2
    8ca4:	e8070713          	addi	a4,a4,-384 # ab20 <p05.3321>
    8ca8:	078a                	slli	a5,a5,0x2
    8caa:	97ba                	add	a5,a5,a4
    8cac:	4390                	lw	a2,0(a5)
    8cae:	4681                	li	a3,0
    8cb0:	d2dff0ef          	jal	ra,89dc <__multadd>
    8cb4:	89aa                	mv	s3,a0
    8cb6:	8489                	srai	s1,s1,0x2
    8cb8:	cca5                	beqz	s1,8d30 <__pow5mult+0xac>
    8cba:	02492783          	lw	a5,36(s2)
    8cbe:	ef91                	bnez	a5,8cda <__pow5mult+0x56>
    8cc0:	4541                	li	a0,16
    8cc2:	c29ff0ef          	jal	ra,88ea <malloc>
    8cc6:	02a92223          	sw	a0,36(s2)
    8cca:	00052223          	sw	zero,4(a0)
    8cce:	00052423          	sw	zero,8(a0)
    8cd2:	00052023          	sw	zero,0(a0)
    8cd6:	00052623          	sw	zero,12(a0)
    8cda:	02492a03          	lw	s4,36(s2)
    8cde:	008a2403          	lw	s0,8(s4)
    8ce2:	e819                	bnez	s0,8cf8 <__pow5mult+0x74>
    8ce4:	27100593          	li	a1,625
    8ce8:	854a                	mv	a0,s2
    8cea:	e3bff0ef          	jal	ra,8b24 <__i2b>
    8cee:	00aa2423          	sw	a0,8(s4)
    8cf2:	842a                	mv	s0,a0
    8cf4:	00052023          	sw	zero,0(a0)
    8cf8:	0014f793          	andi	a5,s1,1
    8cfc:	cf81                	beqz	a5,8d14 <__pow5mult+0x90>
    8cfe:	85ce                	mv	a1,s3
    8d00:	8622                	mv	a2,s0
    8d02:	854a                	mv	a0,s2
    8d04:	e3dff0ef          	jal	ra,8b40 <__multiply>
    8d08:	8a2a                	mv	s4,a0
    8d0a:	85ce                	mv	a1,s3
    8d0c:	854a                	mv	a0,s2
    8d0e:	c8bff0ef          	jal	ra,8998 <_Bfree>
    8d12:	89d2                	mv	s3,s4
    8d14:	8485                	srai	s1,s1,0x1
    8d16:	cc89                	beqz	s1,8d30 <__pow5mult+0xac>
    8d18:	4008                	lw	a0,0(s0)
    8d1a:	e909                	bnez	a0,8d2c <__pow5mult+0xa8>
    8d1c:	8622                	mv	a2,s0
    8d1e:	85a2                	mv	a1,s0
    8d20:	854a                	mv	a0,s2
    8d22:	e1fff0ef          	jal	ra,8b40 <__multiply>
    8d26:	c008                	sw	a0,0(s0)
    8d28:	00052023          	sw	zero,0(a0)
    8d2c:	842a                	mv	s0,a0
    8d2e:	b7e9                	j	8cf8 <__pow5mult+0x74>
    8d30:	40f2                	lw	ra,28(sp)
    8d32:	4462                	lw	s0,24(sp)
    8d34:	854e                	mv	a0,s3
    8d36:	44d2                	lw	s1,20(sp)
    8d38:	4942                	lw	s2,16(sp)
    8d3a:	49b2                	lw	s3,12(sp)
    8d3c:	4a22                	lw	s4,8(sp)
    8d3e:	6105                	addi	sp,sp,32
    8d40:	8082                	ret

00008d42 <__lshift>:
__lshift():
    8d42:	7179                	addi	sp,sp,-48
    8d44:	d226                	sw	s1,36(sp)
    8d46:	84ae                	mv	s1,a1
    8d48:	ce4e                	sw	s3,28(sp)
    8d4a:	0104a983          	lw	s3,16(s1)
    8d4e:	d422                	sw	s0,40(sp)
    8d50:	41cc                	lw	a1,4(a1)
    8d52:	40565413          	srai	s0,a2,0x5
    8d56:	449c                	lw	a5,8(s1)
    8d58:	99a2                	add	s3,s3,s0
    8d5a:	d04a                	sw	s2,32(sp)
    8d5c:	ca56                	sw	s5,20(sp)
    8d5e:	d606                	sw	ra,44(sp)
    8d60:	cc52                	sw	s4,24(sp)
    8d62:	8aaa                	mv	s5,a0
    8d64:	00198913          	addi	s2,s3,1
    8d68:	0927c463          	blt	a5,s2,8df0 <__lshift+0xae>
    8d6c:	8556                	mv	a0,s5
    8d6e:	c632                	sw	a2,12(sp)
    8d70:	ba1ff0ef          	jal	ra,8910 <_Balloc>
    8d74:	4632                	lw	a2,12(sp)
    8d76:	01450793          	addi	a5,a0,20
    8d7a:	8a2a                	mv	s4,a0
    8d7c:	86be                	mv	a3,a5
    8d7e:	4701                	li	a4,0
    8d80:	0691                	addi	a3,a3,4
    8d82:	06874a63          	blt	a4,s0,8df6 <__lshift+0xb4>
    8d86:	00045363          	bgez	s0,8d8c <__lshift+0x4a>
    8d8a:	4401                	li	s0,0
    8d8c:	4894                	lw	a3,16(s1)
    8d8e:	040a                	slli	s0,s0,0x2
    8d90:	00878733          	add	a4,a5,s0
    8d94:	068a                	slli	a3,a3,0x2
    8d96:	01448793          	addi	a5,s1,20
    8d9a:	8a7d                	andi	a2,a2,31
    8d9c:	96be                	add	a3,a3,a5
    8d9e:	c225                	beqz	a2,8dfe <__lshift+0xbc>
    8da0:	02000813          	li	a6,32
    8da4:	40c80833          	sub	a6,a6,a2
    8da8:	4581                	li	a1,0
    8daa:	4388                	lw	a0,0(a5)
    8dac:	0711                	addi	a4,a4,4
    8dae:	0791                	addi	a5,a5,4
    8db0:	00c51533          	sll	a0,a0,a2
    8db4:	8dc9                	or	a1,a1,a0
    8db6:	feb72e23          	sw	a1,-4(a4)
    8dba:	ffc7a583          	lw	a1,-4(a5)
    8dbe:	0105d5b3          	srl	a1,a1,a6
    8dc2:	fed7e4e3          	bltu	a5,a3,8daa <__lshift+0x68>
    8dc6:	c30c                	sw	a1,0(a4)
    8dc8:	c199                	beqz	a1,8dce <__lshift+0x8c>
    8dca:	00298913          	addi	s2,s3,2
    8dce:	197d                	addi	s2,s2,-1
    8dd0:	012a2823          	sw	s2,16(s4)
    8dd4:	8556                	mv	a0,s5
    8dd6:	85a6                	mv	a1,s1
    8dd8:	bc1ff0ef          	jal	ra,8998 <_Bfree>
    8ddc:	50b2                	lw	ra,44(sp)
    8dde:	5422                	lw	s0,40(sp)
    8de0:	8552                	mv	a0,s4
    8de2:	5492                	lw	s1,36(sp)
    8de4:	5902                	lw	s2,32(sp)
    8de6:	49f2                	lw	s3,28(sp)
    8de8:	4a62                	lw	s4,24(sp)
    8dea:	4ad2                	lw	s5,20(sp)
    8dec:	6145                	addi	sp,sp,48
    8dee:	8082                	ret
    8df0:	0585                	addi	a1,a1,1
    8df2:	0786                	slli	a5,a5,0x1
    8df4:	bf95                	j	8d68 <__lshift+0x26>
    8df6:	fe06ae23          	sw	zero,-4(a3) # fffc <_data_lma+0x53a8>
    8dfa:	0705                	addi	a4,a4,1
    8dfc:	b751                	j	8d80 <__lshift+0x3e>
    8dfe:	0791                	addi	a5,a5,4
    8e00:	ffc7a603          	lw	a2,-4(a5)
    8e04:	0711                	addi	a4,a4,4
    8e06:	fec72e23          	sw	a2,-4(a4)
    8e0a:	fed7eae3          	bltu	a5,a3,8dfe <__lshift+0xbc>
    8e0e:	b7c1                	j	8dce <__lshift+0x8c>

00008e10 <__mcmp>:
__mcmp():
    8e10:	491c                	lw	a5,16(a0)
    8e12:	4998                	lw	a4,16(a1)
    8e14:	8f99                	sub	a5,a5,a4
    8e16:	e38d                	bnez	a5,8e38 <__mcmp+0x28>
    8e18:	070a                	slli	a4,a4,0x2
    8e1a:	0551                	addi	a0,a0,20
    8e1c:	05d1                	addi	a1,a1,20
    8e1e:	00e506b3          	add	a3,a0,a4
    8e22:	95ba                	add	a1,a1,a4
    8e24:	16f1                	addi	a3,a3,-4
    8e26:	15f1                	addi	a1,a1,-4
    8e28:	4290                	lw	a2,0(a3)
    8e2a:	4198                	lw	a4,0(a1)
    8e2c:	00e60863          	beq	a2,a4,8e3c <__mcmp+0x2c>
    8e30:	57fd                	li	a5,-1
    8e32:	00e66363          	bltu	a2,a4,8e38 <__mcmp+0x28>
    8e36:	4785                	li	a5,1
    8e38:	853e                	mv	a0,a5
    8e3a:	8082                	ret
    8e3c:	fed564e3          	bltu	a0,a3,8e24 <__mcmp+0x14>
    8e40:	bfe5                	j	8e38 <__mcmp+0x28>

00008e42 <__mdiff>:
__mdiff():
    8e42:	1101                	addi	sp,sp,-32
    8e44:	ca26                	sw	s1,20(sp)
    8e46:	84ae                	mv	s1,a1
    8e48:	c64e                	sw	s3,12(sp)
    8e4a:	85b2                	mv	a1,a2
    8e4c:	89aa                	mv	s3,a0
    8e4e:	8526                	mv	a0,s1
    8e50:	cc22                	sw	s0,24(sp)
    8e52:	ce06                	sw	ra,28(sp)
    8e54:	c84a                	sw	s2,16(sp)
    8e56:	8432                	mv	s0,a2
    8e58:	fb9ff0ef          	jal	ra,8e10 <__mcmp>
    8e5c:	e105                	bnez	a0,8e7c <__mdiff+0x3a>
    8e5e:	4581                	li	a1,0
    8e60:	854e                	mv	a0,s3
    8e62:	aafff0ef          	jal	ra,8910 <_Balloc>
    8e66:	4785                	li	a5,1
    8e68:	c91c                	sw	a5,16(a0)
    8e6a:	00052a23          	sw	zero,20(a0)
    8e6e:	40f2                	lw	ra,28(sp)
    8e70:	4462                	lw	s0,24(sp)
    8e72:	44d2                	lw	s1,20(sp)
    8e74:	4942                	lw	s2,16(sp)
    8e76:	49b2                	lw	s3,12(sp)
    8e78:	6105                	addi	sp,sp,32
    8e7a:	8082                	ret
    8e7c:	4905                	li	s2,1
    8e7e:	00054663          	bltz	a0,8e8a <__mdiff+0x48>
    8e82:	87a2                	mv	a5,s0
    8e84:	4901                	li	s2,0
    8e86:	8426                	mv	s0,s1
    8e88:	84be                	mv	s1,a5
    8e8a:	404c                	lw	a1,4(s0)
    8e8c:	854e                	mv	a0,s3
    8e8e:	a83ff0ef          	jal	ra,8910 <_Balloc>
    8e92:	01042303          	lw	t1,16(s0)
    8e96:	0104a883          	lw	a7,16(s1)
    8e9a:	01440613          	addi	a2,s0,20
    8e9e:	00231e13          	slli	t3,t1,0x2
    8ea2:	01448813          	addi	a6,s1,20
    8ea6:	088a                	slli	a7,a7,0x2
    8ea8:	6ec1                	lui	t4,0x10
    8eaa:	01252623          	sw	s2,12(a0)
    8eae:	9e32                	add	t3,t3,a2
    8eb0:	98c2                	add	a7,a7,a6
    8eb2:	01450693          	addi	a3,a0,20
    8eb6:	4f01                	li	t5,0
    8eb8:	1efd                	addi	t4,t4,-1
    8eba:	4218                	lw	a4,0(a2)
    8ebc:	00082f83          	lw	t6,0(a6)
    8ec0:	0691                	addi	a3,a3,4
    8ec2:	01d775b3          	and	a1,a4,t4
    8ec6:	01dff7b3          	and	a5,t6,t4
    8eca:	95fa                	add	a1,a1,t5
    8ecc:	8d9d                	sub	a1,a1,a5
    8ece:	010fdf93          	srli	t6,t6,0x10
    8ed2:	01075793          	srli	a5,a4,0x10
    8ed6:	41f787b3          	sub	a5,a5,t6
    8eda:	4105d713          	srai	a4,a1,0x10
    8ede:	97ba                	add	a5,a5,a4
    8ee0:	4107df13          	srai	t5,a5,0x10
    8ee4:	01d5f5b3          	and	a1,a1,t4
    8ee8:	07c2                	slli	a5,a5,0x10
    8eea:	8fcd                	or	a5,a5,a1
    8eec:	0811                	addi	a6,a6,4
    8eee:	fef6ae23          	sw	a5,-4(a3)
    8ef2:	0611                	addi	a2,a2,4
    8ef4:	fd1863e3          	bltu	a6,a7,8eba <__mdiff+0x78>
    8ef8:	65c1                	lui	a1,0x10
    8efa:	15fd                	addi	a1,a1,-1
    8efc:	01c66863          	bltu	a2,t3,8f0c <__mdiff+0xca>
    8f00:	16f1                	addi	a3,a3,-4
    8f02:	429c                	lw	a5,0(a3)
    8f04:	c795                	beqz	a5,8f30 <__mdiff+0xee>
    8f06:	00652823          	sw	t1,16(a0)
    8f0a:	b795                	j	8e6e <__mdiff+0x2c>
    8f0c:	421c                	lw	a5,0(a2)
    8f0e:	0691                	addi	a3,a3,4
    8f10:	0611                	addi	a2,a2,4
    8f12:	00b7f733          	and	a4,a5,a1
    8f16:	977a                	add	a4,a4,t5
    8f18:	41075813          	srai	a6,a4,0x10
    8f1c:	83c1                	srli	a5,a5,0x10
    8f1e:	97c2                	add	a5,a5,a6
    8f20:	4107df13          	srai	t5,a5,0x10
    8f24:	8f6d                	and	a4,a4,a1
    8f26:	07c2                	slli	a5,a5,0x10
    8f28:	8fd9                	or	a5,a5,a4
    8f2a:	fef6ae23          	sw	a5,-4(a3)
    8f2e:	b7f9                	j	8efc <__mdiff+0xba>
    8f30:	137d                	addi	t1,t1,-1
    8f32:	b7f9                	j	8f00 <__mdiff+0xbe>

00008f34 <__d2b>:
__d2b():
    8f34:	7179                	addi	sp,sp,-48
    8f36:	d422                	sw	s0,40(sp)
    8f38:	842e                	mv	s0,a1
    8f3a:	4585                	li	a1,1
    8f3c:	d226                	sw	s1,36(sp)
    8f3e:	d04a                	sw	s2,32(sp)
    8f40:	84b2                	mv	s1,a2
    8f42:	ce4e                	sw	s3,28(sp)
    8f44:	cc52                	sw	s4,24(sp)
    8f46:	893a                	mv	s2,a4
    8f48:	d606                	sw	ra,44(sp)
    8f4a:	8a36                	mv	s4,a3
    8f4c:	9c5ff0ef          	jal	ra,8910 <_Balloc>
    8f50:	00100737          	lui	a4,0x100
    8f54:	fff70793          	addi	a5,a4,-1 # fffff <_data_lma+0xf53ab>
    8f58:	8fe5                	and	a5,a5,s1
    8f5a:	80d1                	srli	s1,s1,0x14
    8f5c:	7ff4f493          	andi	s1,s1,2047
    8f60:	89aa                	mv	s3,a0
    8f62:	e0b5                	bnez	s1,8fc6 <__d2b+0x92>
    8f64:	c63e                	sw	a5,12(sp)
    8f66:	c42d                	beqz	s0,8fd0 <__d2b+0x9c>
    8f68:	0028                	addi	a0,sp,8
    8f6a:	c422                	sw	s0,8(sp)
    8f6c:	b4fff0ef          	jal	ra,8aba <__lo0bits>
    8f70:	46a2                	lw	a3,8(sp)
    8f72:	cd21                	beqz	a0,8fca <__d2b+0x96>
    8f74:	4732                	lw	a4,12(sp)
    8f76:	02000793          	li	a5,32
    8f7a:	8f89                	sub	a5,a5,a0
    8f7c:	00f717b3          	sll	a5,a4,a5
    8f80:	8fd5                	or	a5,a5,a3
    8f82:	00a75733          	srl	a4,a4,a0
    8f86:	00f9aa23          	sw	a5,20(s3)
    8f8a:	c63a                	sw	a4,12(sp)
    8f8c:	4432                	lw	s0,12(sp)
    8f8e:	0089ac23          	sw	s0,24(s3)
    8f92:	00803433          	snez	s0,s0
    8f96:	0405                	addi	s0,s0,1
    8f98:	0089a823          	sw	s0,16(s3)
    8f9c:	c4b9                	beqz	s1,8fea <__d2b+0xb6>
    8f9e:	bcd48493          	addi	s1,s1,-1075
    8fa2:	94aa                	add	s1,s1,a0
    8fa4:	03500793          	li	a5,53
    8fa8:	009a2023          	sw	s1,0(s4)
    8fac:	40a78533          	sub	a0,a5,a0
    8fb0:	00a92023          	sw	a0,0(s2)
    8fb4:	50b2                	lw	ra,44(sp)
    8fb6:	5422                	lw	s0,40(sp)
    8fb8:	854e                	mv	a0,s3
    8fba:	5492                	lw	s1,36(sp)
    8fbc:	5902                	lw	s2,32(sp)
    8fbe:	49f2                	lw	s3,28(sp)
    8fc0:	4a62                	lw	s4,24(sp)
    8fc2:	6145                	addi	sp,sp,48
    8fc4:	8082                	ret
    8fc6:	8fd9                	or	a5,a5,a4
    8fc8:	bf71                	j	8f64 <__d2b+0x30>
    8fca:	00d9aa23          	sw	a3,20(s3)
    8fce:	bf7d                	j	8f8c <__d2b+0x58>
    8fd0:	0068                	addi	a0,sp,12
    8fd2:	ae9ff0ef          	jal	ra,8aba <__lo0bits>
    8fd6:	47b2                	lw	a5,12(sp)
    8fd8:	02050513          	addi	a0,a0,32
    8fdc:	4405                	li	s0,1
    8fde:	00f9aa23          	sw	a5,20(s3)
    8fe2:	4785                	li	a5,1
    8fe4:	00f9a823          	sw	a5,16(s3)
    8fe8:	bf55                	j	8f9c <__d2b+0x68>
    8fea:	00241793          	slli	a5,s0,0x2
    8fee:	bce50513          	addi	a0,a0,-1074
    8ff2:	97ce                	add	a5,a5,s3
    8ff4:	00aa2023          	sw	a0,0(s4)
    8ff8:	4b88                	lw	a0,16(a5)
    8ffa:	0416                	slli	s0,s0,0x5
    8ffc:	a79ff0ef          	jal	ra,8a74 <__hi0bits>
    9000:	8c09                	sub	s0,s0,a0
    9002:	00892023          	sw	s0,0(s2)
    9006:	b77d                	j	8fb4 <__d2b+0x80>

00009008 <_calloc_r>:
_calloc_r():
    9008:	02c58633          	mul	a2,a1,a2
    900c:	1101                	addi	sp,sp,-32
    900e:	cc22                	sw	s0,24(sp)
    9010:	ce06                	sw	ra,28(sp)
    9012:	85b2                	mv	a1,a2
    9014:	c632                	sw	a2,12(sp)
    9016:	20c1                	jal	90d6 <_malloc_r>
    9018:	842a                	mv	s0,a0
    901a:	c509                	beqz	a0,9024 <_calloc_r+0x1c>
    901c:	4632                	lw	a2,12(sp)
    901e:	4581                	li	a1,0
    9020:	9e0f70ef          	jal	ra,200 <memset>
    9024:	8522                	mv	a0,s0
    9026:	40f2                	lw	ra,28(sp)
    9028:	4462                	lw	s0,24(sp)
    902a:	6105                	addi	sp,sp,32
    902c:	8082                	ret

0000902e <_free_r>:
_free_r():
    902e:	c1dd                	beqz	a1,90d4 <_free_r+0xa6>
    9030:	ffc5a783          	lw	a5,-4(a1) # fffc <_data_lma+0x53a8>
    9034:	1141                	addi	sp,sp,-16
    9036:	c422                	sw	s0,8(sp)
    9038:	c606                	sw	ra,12(sp)
    903a:	c226                	sw	s1,4(sp)
    903c:	ffc58413          	addi	s0,a1,-4
    9040:	0007d363          	bgez	a5,9046 <_free_r+0x18>
    9044:	943e                	add	s0,s0,a5
    9046:	84aa                	mv	s1,a0
    9048:	635000ef          	jal	ra,9e7c <__malloc_lock>
    904c:	86418793          	addi	a5,gp,-1948 # 2000029c <__malloc_free_list>
    9050:	439c                	lw	a5,0(a5)
    9052:	ef81                	bnez	a5,906a <_free_r+0x3c>
    9054:	00042223          	sw	zero,4(s0)
    9058:	8681a223          	sw	s0,-1948(gp) # 2000029c <__malloc_free_list>
    905c:	4422                	lw	s0,8(sp)
    905e:	40b2                	lw	ra,12(sp)
    9060:	8526                	mv	a0,s1
    9062:	4492                	lw	s1,4(sp)
    9064:	0141                	addi	sp,sp,16
    9066:	6190006f          	j	9e7e <__malloc_unlock>
    906a:	00f47e63          	bgeu	s0,a5,9086 <_free_r+0x58>
    906e:	4014                	lw	a3,0(s0)
    9070:	00d40733          	add	a4,s0,a3
    9074:	00e79663          	bne	a5,a4,9080 <_free_r+0x52>
    9078:	4398                	lw	a4,0(a5)
    907a:	43dc                	lw	a5,4(a5)
    907c:	9736                	add	a4,a4,a3
    907e:	c018                	sw	a4,0(s0)
    9080:	c05c                	sw	a5,4(s0)
    9082:	bfd9                	j	9058 <_free_r+0x2a>
    9084:	87ba                	mv	a5,a4
    9086:	43d8                	lw	a4,4(a5)
    9088:	c319                	beqz	a4,908e <_free_r+0x60>
    908a:	fee47de3          	bgeu	s0,a4,9084 <_free_r+0x56>
    908e:	4394                	lw	a3,0(a5)
    9090:	00d78633          	add	a2,a5,a3
    9094:	00861f63          	bne	a2,s0,90b2 <_free_r+0x84>
    9098:	4010                	lw	a2,0(s0)
    909a:	96b2                	add	a3,a3,a2
    909c:	c394                	sw	a3,0(a5)
    909e:	00d78633          	add	a2,a5,a3
    90a2:	fac71de3          	bne	a4,a2,905c <_free_r+0x2e>
    90a6:	4310                	lw	a2,0(a4)
    90a8:	4358                	lw	a4,4(a4)
    90aa:	96b2                	add	a3,a3,a2
    90ac:	c394                	sw	a3,0(a5)
    90ae:	c3d8                	sw	a4,4(a5)
    90b0:	b775                	j	905c <_free_r+0x2e>
    90b2:	00c47563          	bgeu	s0,a2,90bc <_free_r+0x8e>
    90b6:	47b1                	li	a5,12
    90b8:	c09c                	sw	a5,0(s1)
    90ba:	b74d                	j	905c <_free_r+0x2e>
    90bc:	4010                	lw	a2,0(s0)
    90be:	00c406b3          	add	a3,s0,a2
    90c2:	00d71663          	bne	a4,a3,90ce <_free_r+0xa0>
    90c6:	4314                	lw	a3,0(a4)
    90c8:	4358                	lw	a4,4(a4)
    90ca:	96b2                	add	a3,a3,a2
    90cc:	c014                	sw	a3,0(s0)
    90ce:	c058                	sw	a4,4(s0)
    90d0:	c3c0                	sw	s0,4(a5)
    90d2:	b769                	j	905c <_free_r+0x2e>
    90d4:	8082                	ret

000090d6 <_malloc_r>:
_malloc_r():
    90d6:	1101                	addi	sp,sp,-32
    90d8:	ca26                	sw	s1,20(sp)
    90da:	00358493          	addi	s1,a1,3
    90de:	98f1                	andi	s1,s1,-4
    90e0:	ce06                	sw	ra,28(sp)
    90e2:	cc22                	sw	s0,24(sp)
    90e4:	c84a                	sw	s2,16(sp)
    90e6:	c64e                	sw	s3,12(sp)
    90e8:	04a1                	addi	s1,s1,8
    90ea:	47b1                	li	a5,12
    90ec:	04f4f363          	bgeu	s1,a5,9132 <_malloc_r+0x5c>
    90f0:	44b1                	li	s1,12
    90f2:	04b4e263          	bltu	s1,a1,9136 <_malloc_r+0x60>
    90f6:	892a                	mv	s2,a0
    90f8:	585000ef          	jal	ra,9e7c <__malloc_lock>
    90fc:	86418793          	addi	a5,gp,-1948 # 2000029c <__malloc_free_list>
    9100:	4398                	lw	a4,0(a5)
    9102:	843a                	mv	s0,a4
    9104:	e039                	bnez	s0,914a <_malloc_r+0x74>
    9106:	86818793          	addi	a5,gp,-1944 # 200002a0 <__malloc_sbrk_start>
    910a:	439c                	lw	a5,0(a5)
    910c:	e791                	bnez	a5,9118 <_malloc_r+0x42>
    910e:	4581                	li	a1,0
    9110:	854a                	mv	a0,s2
    9112:	2739                	jal	9820 <_sbrk_r>
    9114:	86a1a423          	sw	a0,-1944(gp) # 200002a0 <__malloc_sbrk_start>
    9118:	85a6                	mv	a1,s1
    911a:	854a                	mv	a0,s2
    911c:	2711                	jal	9820 <_sbrk_r>
    911e:	59fd                	li	s3,-1
    9120:	07351963          	bne	a0,s3,9192 <_malloc_r+0xbc>
    9124:	47b1                	li	a5,12
    9126:	00f92023          	sw	a5,0(s2)
    912a:	854a                	mv	a0,s2
    912c:	553000ef          	jal	ra,9e7e <__malloc_unlock>
    9130:	a029                	j	913a <_malloc_r+0x64>
    9132:	fc04d0e3          	bgez	s1,90f2 <_malloc_r+0x1c>
    9136:	47b1                	li	a5,12
    9138:	c11c                	sw	a5,0(a0)
    913a:	4501                	li	a0,0
    913c:	40f2                	lw	ra,28(sp)
    913e:	4462                	lw	s0,24(sp)
    9140:	44d2                	lw	s1,20(sp)
    9142:	4942                	lw	s2,16(sp)
    9144:	49b2                	lw	s3,12(sp)
    9146:	6105                	addi	sp,sp,32
    9148:	8082                	ret
    914a:	401c                	lw	a5,0(s0)
    914c:	8f85                	sub	a5,a5,s1
    914e:	0207cf63          	bltz	a5,918c <_malloc_r+0xb6>
    9152:	46ad                	li	a3,11
    9154:	00f6f663          	bgeu	a3,a5,9160 <_malloc_r+0x8a>
    9158:	c01c                	sw	a5,0(s0)
    915a:	943e                	add	s0,s0,a5
    915c:	c004                	sw	s1,0(s0)
    915e:	a031                	j	916a <_malloc_r+0x94>
    9160:	405c                	lw	a5,4(s0)
    9162:	02871363          	bne	a4,s0,9188 <_malloc_r+0xb2>
    9166:	86f1a223          	sw	a5,-1948(gp) # 2000029c <__malloc_free_list>
    916a:	854a                	mv	a0,s2
    916c:	513000ef          	jal	ra,9e7e <__malloc_unlock>
    9170:	00b40513          	addi	a0,s0,11
    9174:	00440793          	addi	a5,s0,4
    9178:	9961                	andi	a0,a0,-8
    917a:	40f50733          	sub	a4,a0,a5
    917e:	df5d                	beqz	a4,913c <_malloc_r+0x66>
    9180:	943a                	add	s0,s0,a4
    9182:	8f89                	sub	a5,a5,a0
    9184:	c01c                	sw	a5,0(s0)
    9186:	bf5d                	j	913c <_malloc_r+0x66>
    9188:	c35c                	sw	a5,4(a4)
    918a:	b7c5                	j	916a <_malloc_r+0x94>
    918c:	8722                	mv	a4,s0
    918e:	4040                	lw	s0,4(s0)
    9190:	bf95                	j	9104 <_malloc_r+0x2e>
    9192:	00350413          	addi	s0,a0,3
    9196:	9871                	andi	s0,s0,-4
    9198:	fc8502e3          	beq	a0,s0,915c <_malloc_r+0x86>
    919c:	40a405b3          	sub	a1,s0,a0
    91a0:	854a                	mv	a0,s2
    91a2:	2dbd                	jal	9820 <_sbrk_r>
    91a4:	fb351ce3          	bne	a0,s3,915c <_malloc_r+0x86>
    91a8:	bfb5                	j	9124 <_malloc_r+0x4e>

000091aa <__ssputs_r>:
__ssputs_r():
    91aa:	1101                	addi	sp,sp,-32
    91ac:	c84a                	sw	s2,16(sp)
    91ae:	0085a903          	lw	s2,8(a1)
    91b2:	cc22                	sw	s0,24(sp)
    91b4:	c452                	sw	s4,8(sp)
    91b6:	c05a                	sw	s6,0(sp)
    91b8:	ce06                	sw	ra,28(sp)
    91ba:	ca26                	sw	s1,20(sp)
    91bc:	c64e                	sw	s3,12(sp)
    91be:	c256                	sw	s5,4(sp)
    91c0:	842e                	mv	s0,a1
    91c2:	8b32                	mv	s6,a2
    91c4:	8a36                	mv	s4,a3
    91c6:	0926ee63          	bltu	a3,s2,9262 <__ssputs_r+0xb8>
    91ca:	00c5d783          	lhu	a5,12(a1)
    91ce:	4807f713          	andi	a4,a5,1152
    91d2:	c751                	beqz	a4,925e <__ssputs_r+0xb4>
    91d4:	4004                	lw	s1,0(s0)
    91d6:	498c                	lw	a1,16(a1)
    91d8:	4858                	lw	a4,20(s0)
    91da:	8aaa                	mv	s5,a0
    91dc:	40b489b3          	sub	s3,s1,a1
    91e0:	448d                	li	s1,3
    91e2:	02e484b3          	mul	s1,s1,a4
    91e6:	4709                	li	a4,2
    91e8:	02e4c4b3          	div	s1,s1,a4
    91ec:	00168713          	addi	a4,a3,1
    91f0:	974e                	add	a4,a4,s3
    91f2:	00e4f363          	bgeu	s1,a4,91f8 <__ssputs_r+0x4e>
    91f6:	84ba                	mv	s1,a4
    91f8:	4007f793          	andi	a5,a5,1024
    91fc:	c3d9                	beqz	a5,9282 <__ssputs_r+0xd8>
    91fe:	85a6                	mv	a1,s1
    9200:	8556                	mv	a0,s5
    9202:	ed5ff0ef          	jal	ra,90d6 <_malloc_r>
    9206:	892a                	mv	s2,a0
    9208:	e50d                	bnez	a0,9232 <__ssputs_r+0x88>
    920a:	47b1                	li	a5,12
    920c:	00faa023          	sw	a5,0(s5)
    9210:	00c45783          	lhu	a5,12(s0)
    9214:	557d                	li	a0,-1
    9216:	0407e793          	ori	a5,a5,64
    921a:	00f41623          	sh	a5,12(s0)
    921e:	40f2                	lw	ra,28(sp)
    9220:	4462                	lw	s0,24(sp)
    9222:	44d2                	lw	s1,20(sp)
    9224:	4942                	lw	s2,16(sp)
    9226:	49b2                	lw	s3,12(sp)
    9228:	4a22                	lw	s4,8(sp)
    922a:	4a92                	lw	s5,4(sp)
    922c:	4b02                	lw	s6,0(sp)
    922e:	6105                	addi	sp,sp,32
    9230:	8082                	ret
    9232:	480c                	lw	a1,16(s0)
    9234:	864e                	mv	a2,s3
    9236:	bd3fd0ef          	jal	ra,6e08 <memcpy>
    923a:	00c45783          	lhu	a5,12(s0)
    923e:	b7f7f793          	andi	a5,a5,-1153
    9242:	0807e793          	ori	a5,a5,128
    9246:	00f41623          	sh	a5,12(s0)
    924a:	01242823          	sw	s2,16(s0)
    924e:	c844                	sw	s1,20(s0)
    9250:	994e                	add	s2,s2,s3
    9252:	413484b3          	sub	s1,s1,s3
    9256:	01242023          	sw	s2,0(s0)
    925a:	c404                	sw	s1,8(s0)
    925c:	8952                	mv	s2,s4
    925e:	012a7363          	bgeu	s4,s2,9264 <__ssputs_r+0xba>
    9262:	8952                	mv	s2,s4
    9264:	4008                	lw	a0,0(s0)
    9266:	864a                	mv	a2,s2
    9268:	85da                	mv	a1,s6
    926a:	3c9000ef          	jal	ra,9e32 <memmove>
    926e:	441c                	lw	a5,8(s0)
    9270:	4501                	li	a0,0
    9272:	412787b3          	sub	a5,a5,s2
    9276:	c41c                	sw	a5,8(s0)
    9278:	401c                	lw	a5,0(s0)
    927a:	993e                	add	s2,s2,a5
    927c:	01242023          	sw	s2,0(s0)
    9280:	bf79                	j	921e <__ssputs_r+0x74>
    9282:	8626                	mv	a2,s1
    9284:	8556                	mv	a0,s5
    9286:	3fb000ef          	jal	ra,9e80 <_realloc_r>
    928a:	892a                	mv	s2,a0
    928c:	fd5d                	bnez	a0,924a <__ssputs_r+0xa0>
    928e:	480c                	lw	a1,16(s0)
    9290:	8556                	mv	a0,s5
    9292:	d9dff0ef          	jal	ra,902e <_free_r>
    9296:	bf95                	j	920a <__ssputs_r+0x60>

00009298 <_svfiprintf_r>:
_svfprintf_r():
    9298:	00c5d783          	lhu	a5,12(a1)
    929c:	7171                	addi	sp,sp,-176
    929e:	d326                	sw	s1,164(sp)
    92a0:	d14a                	sw	s2,160(sp)
    92a2:	cf4e                	sw	s3,156(sp)
    92a4:	d706                	sw	ra,172(sp)
    92a6:	d522                	sw	s0,168(sp)
    92a8:	cd52                	sw	s4,152(sp)
    92aa:	cb56                	sw	s5,148(sp)
    92ac:	c95a                	sw	s6,144(sp)
    92ae:	c75e                	sw	s7,140(sp)
    92b0:	c562                	sw	s8,136(sp)
    92b2:	c366                	sw	s9,132(sp)
    92b4:	0807f793          	andi	a5,a5,128
    92b8:	89aa                	mv	s3,a0
    92ba:	892e                	mv	s2,a1
    92bc:	84b2                	mv	s1,a2
    92be:	c3b9                	beqz	a5,9304 <_svfiprintf_r+0x6c>
    92c0:	499c                	lw	a5,16(a1)
    92c2:	e3a9                	bnez	a5,9304 <_svfiprintf_r+0x6c>
    92c4:	04000593          	li	a1,64
    92c8:	c636                	sw	a3,12(sp)
    92ca:	e0dff0ef          	jal	ra,90d6 <_malloc_r>
    92ce:	00a92023          	sw	a0,0(s2)
    92d2:	00a92823          	sw	a0,16(s2)
    92d6:	46b2                	lw	a3,12(sp)
    92d8:	e115                	bnez	a0,92fc <_svfiprintf_r+0x64>
    92da:	47b1                	li	a5,12
    92dc:	00f9a023          	sw	a5,0(s3)
    92e0:	557d                	li	a0,-1
    92e2:	50ba                	lw	ra,172(sp)
    92e4:	542a                	lw	s0,168(sp)
    92e6:	549a                	lw	s1,164(sp)
    92e8:	590a                	lw	s2,160(sp)
    92ea:	49fa                	lw	s3,156(sp)
    92ec:	4a6a                	lw	s4,152(sp)
    92ee:	4ada                	lw	s5,148(sp)
    92f0:	4b4a                	lw	s6,144(sp)
    92f2:	4bba                	lw	s7,140(sp)
    92f4:	4c2a                	lw	s8,136(sp)
    92f6:	4c9a                	lw	s9,132(sp)
    92f8:	614d                	addi	sp,sp,176
    92fa:	8082                	ret
    92fc:	04000793          	li	a5,64
    9300:	00f92a23          	sw	a5,20(s2)
    9304:	02000793          	li	a5,32
    9308:	02f10ca3          	sb	a5,57(sp)
    930c:	03000793          	li	a5,48
    9310:	da02                	sw	zero,52(sp)
    9312:	02f10d23          	sb	a5,58(sp)
    9316:	ce36                	sw	a3,28(sp)
    9318:	02500b93          	li	s7,37
    931c:	00002a97          	auipc	s5,0x2
    9320:	810a8a93          	addi	s5,s5,-2032 # ab2c <p05.3321+0xc>
    9324:	4c05                	li	s8,1
    9326:	4b29                	li	s6,10
    9328:	8426                	mv	s0,s1
    932a:	00044783          	lbu	a5,0(s0)
    932e:	c399                	beqz	a5,9334 <_svfiprintf_r+0x9c>
    9330:	09779d63          	bne	a5,s7,93ca <_svfiprintf_r+0x132>
    9334:	40940cb3          	sub	s9,s0,s1
    9338:	000c8e63          	beqz	s9,9354 <_svfiprintf_r+0xbc>
    933c:	86e6                	mv	a3,s9
    933e:	8626                	mv	a2,s1
    9340:	85ca                	mv	a1,s2
    9342:	854e                	mv	a0,s3
    9344:	e67ff0ef          	jal	ra,91aa <__ssputs_r>
    9348:	57fd                	li	a5,-1
    934a:	1af50263          	beq	a0,a5,94ee <_svfiprintf_r+0x256>
    934e:	56d2                	lw	a3,52(sp)
    9350:	96e6                	add	a3,a3,s9
    9352:	da36                	sw	a3,52(sp)
    9354:	00044783          	lbu	a5,0(s0)
    9358:	18078b63          	beqz	a5,94ee <_svfiprintf_r+0x256>
    935c:	57fd                	li	a5,-1
    935e:	00140493          	addi	s1,s0,1
    9362:	d002                	sw	zero,32(sp)
    9364:	d602                	sw	zero,44(sp)
    9366:	d23e                	sw	a5,36(sp)
    9368:	d402                	sw	zero,40(sp)
    936a:	060101a3          	sb	zero,99(sp)
    936e:	dc82                	sw	zero,120(sp)
    9370:	0004c583          	lbu	a1,0(s1)
    9374:	4615                	li	a2,5
    9376:	8556                	mv	a0,s5
    9378:	d7eff0ef          	jal	ra,88f6 <memchr>
    937c:	00148413          	addi	s0,s1,1
    9380:	5782                	lw	a5,32(sp)
    9382:	e531                	bnez	a0,93ce <_svfiprintf_r+0x136>
    9384:	0107f713          	andi	a4,a5,16
    9388:	c709                	beqz	a4,9392 <_svfiprintf_r+0xfa>
    938a:	02000713          	li	a4,32
    938e:	06e101a3          	sb	a4,99(sp)
    9392:	0087f713          	andi	a4,a5,8
    9396:	c709                	beqz	a4,93a0 <_svfiprintf_r+0x108>
    9398:	02b00713          	li	a4,43
    939c:	06e101a3          	sb	a4,99(sp)
    93a0:	0004c683          	lbu	a3,0(s1)
    93a4:	02a00713          	li	a4,42
    93a8:	02e68b63          	beq	a3,a4,93de <_svfiprintf_r+0x146>
    93ac:	57b2                	lw	a5,44(sp)
    93ae:	8426                	mv	s0,s1
    93b0:	4681                	li	a3,0
    93b2:	4625                	li	a2,9
    93b4:	00044703          	lbu	a4,0(s0)
    93b8:	00140593          	addi	a1,s0,1
    93bc:	fd070713          	addi	a4,a4,-48
    93c0:	06e67463          	bgeu	a2,a4,9428 <_svfiprintf_r+0x190>
    93c4:	c68d                	beqz	a3,93ee <_svfiprintf_r+0x156>
    93c6:	d63e                	sw	a5,44(sp)
    93c8:	a01d                	j	93ee <_svfiprintf_r+0x156>
    93ca:	0405                	addi	s0,s0,1
    93cc:	bfb9                	j	932a <_svfiprintf_r+0x92>
    93ce:	41550533          	sub	a0,a0,s5
    93d2:	00ac1533          	sll	a0,s8,a0
    93d6:	8fc9                	or	a5,a5,a0
    93d8:	d03e                	sw	a5,32(sp)
    93da:	84a2                	mv	s1,s0
    93dc:	bf51                	j	9370 <_svfiprintf_r+0xd8>
    93de:	4772                	lw	a4,28(sp)
    93e0:	00470693          	addi	a3,a4,4
    93e4:	4318                	lw	a4,0(a4)
    93e6:	ce36                	sw	a3,28(sp)
    93e8:	02074963          	bltz	a4,941a <_svfiprintf_r+0x182>
    93ec:	d63a                	sw	a4,44(sp)
    93ee:	00044703          	lbu	a4,0(s0)
    93f2:	02e00793          	li	a5,46
    93f6:	04f71f63          	bne	a4,a5,9454 <_svfiprintf_r+0x1bc>
    93fa:	00144703          	lbu	a4,1(s0)
    93fe:	02a00793          	li	a5,42
    9402:	02f71b63          	bne	a4,a5,9438 <_svfiprintf_r+0x1a0>
    9406:	47f2                	lw	a5,28(sp)
    9408:	0409                	addi	s0,s0,2
    940a:	00478713          	addi	a4,a5,4
    940e:	439c                	lw	a5,0(a5)
    9410:	ce3a                	sw	a4,28(sp)
    9412:	0207c163          	bltz	a5,9434 <_svfiprintf_r+0x19c>
    9416:	d23e                	sw	a5,36(sp)
    9418:	a835                	j	9454 <_svfiprintf_r+0x1bc>
    941a:	40e00733          	neg	a4,a4
    941e:	0027e793          	ori	a5,a5,2
    9422:	d63a                	sw	a4,44(sp)
    9424:	d03e                	sw	a5,32(sp)
    9426:	b7e1                	j	93ee <_svfiprintf_r+0x156>
    9428:	036787b3          	mul	a5,a5,s6
    942c:	4685                	li	a3,1
    942e:	842e                	mv	s0,a1
    9430:	97ba                	add	a5,a5,a4
    9432:	b749                	j	93b4 <_svfiprintf_r+0x11c>
    9434:	57fd                	li	a5,-1
    9436:	b7c5                	j	9416 <_svfiprintf_r+0x17e>
    9438:	0405                	addi	s0,s0,1
    943a:	d202                	sw	zero,36(sp)
    943c:	4681                	li	a3,0
    943e:	4781                	li	a5,0
    9440:	4625                	li	a2,9
    9442:	00044703          	lbu	a4,0(s0)
    9446:	00140593          	addi	a1,s0,1
    944a:	fd070713          	addi	a4,a4,-48
    944e:	06e67863          	bgeu	a2,a4,94be <_svfiprintf_r+0x226>
    9452:	f2f1                	bnez	a3,9416 <_svfiprintf_r+0x17e>
    9454:	00044583          	lbu	a1,0(s0)
    9458:	460d                	li	a2,3
    945a:	00001517          	auipc	a0,0x1
    945e:	6da50513          	addi	a0,a0,1754 # ab34 <p05.3321+0x14>
    9462:	c94ff0ef          	jal	ra,88f6 <memchr>
    9466:	cd11                	beqz	a0,9482 <_svfiprintf_r+0x1ea>
    9468:	00001797          	auipc	a5,0x1
    946c:	6cc78793          	addi	a5,a5,1740 # ab34 <p05.3321+0x14>
    9470:	8d1d                	sub	a0,a0,a5
    9472:	04000793          	li	a5,64
    9476:	00a797b3          	sll	a5,a5,a0
    947a:	5502                	lw	a0,32(sp)
    947c:	0405                	addi	s0,s0,1
    947e:	8d5d                	or	a0,a0,a5
    9480:	d02a                	sw	a0,32(sp)
    9482:	00044583          	lbu	a1,0(s0)
    9486:	4619                	li	a2,6
    9488:	00001517          	auipc	a0,0x1
    948c:	6b050513          	addi	a0,a0,1712 # ab38 <p05.3321+0x18>
    9490:	00140493          	addi	s1,s0,1
    9494:	02b10c23          	sb	a1,56(sp)
    9498:	c5eff0ef          	jal	ra,88f6 <memchr>
    949c:	c135                	beqz	a0,9500 <_svfiprintf_r+0x268>
    949e:	ffffe797          	auipc	a5,0xffffe
    94a2:	b9a78793          	addi	a5,a5,-1126 # 7038 <_printf_float>
    94a6:	e795                	bnez	a5,94d2 <_svfiprintf_r+0x23a>
    94a8:	5702                	lw	a4,32(sp)
    94aa:	47f2                	lw	a5,28(sp)
    94ac:	10077713          	andi	a4,a4,256
    94b0:	cf09                	beqz	a4,94ca <_svfiprintf_r+0x232>
    94b2:	0791                	addi	a5,a5,4
    94b4:	ce3e                	sw	a5,28(sp)
    94b6:	57d2                	lw	a5,52(sp)
    94b8:	97d2                	add	a5,a5,s4
    94ba:	da3e                	sw	a5,52(sp)
    94bc:	b5b5                	j	9328 <_svfiprintf_r+0x90>
    94be:	036787b3          	mul	a5,a5,s6
    94c2:	4685                	li	a3,1
    94c4:	842e                	mv	s0,a1
    94c6:	97ba                	add	a5,a5,a4
    94c8:	bfad                	j	9442 <_svfiprintf_r+0x1aa>
    94ca:	079d                	addi	a5,a5,7
    94cc:	9be1                	andi	a5,a5,-8
    94ce:	07a1                	addi	a5,a5,8
    94d0:	b7d5                	j	94b4 <_svfiprintf_r+0x21c>
    94d2:	0878                	addi	a4,sp,28
    94d4:	00000697          	auipc	a3,0x0
    94d8:	cd668693          	addi	a3,a3,-810 # 91aa <__ssputs_r>
    94dc:	864a                	mv	a2,s2
    94de:	100c                	addi	a1,sp,32
    94e0:	854e                	mv	a0,s3
    94e2:	b57fd0ef          	jal	ra,7038 <_printf_float>
    94e6:	57fd                	li	a5,-1
    94e8:	8a2a                	mv	s4,a0
    94ea:	fcf516e3          	bne	a0,a5,94b6 <_svfiprintf_r+0x21e>
    94ee:	00c95783          	lhu	a5,12(s2)
    94f2:	557d                	li	a0,-1
    94f4:	0407f793          	andi	a5,a5,64
    94f8:	de0795e3          	bnez	a5,92e2 <_svfiprintf_r+0x4a>
    94fc:	5552                	lw	a0,52(sp)
    94fe:	b3d5                	j	92e2 <_svfiprintf_r+0x4a>
    9500:	0878                	addi	a4,sp,28
    9502:	00000697          	auipc	a3,0x0
    9506:	ca868693          	addi	a3,a3,-856 # 91aa <__ssputs_r>
    950a:	864a                	mv	a2,s2
    950c:	100c                	addi	a1,sp,32
    950e:	854e                	mv	a0,s3
    9510:	8f8fe0ef          	jal	ra,7608 <_printf_i>
    9514:	bfc9                	j	94e6 <_svfiprintf_r+0x24e>

00009516 <__sfputc_r>:
__sfputc_r():
    9516:	461c                	lw	a5,8(a2)
    9518:	17fd                	addi	a5,a5,-1
    951a:	c61c                	sw	a5,8(a2)
    951c:	0007d963          	bgez	a5,952e <__sfputc_r+0x18>
    9520:	4e18                	lw	a4,24(a2)
    9522:	00e7c563          	blt	a5,a4,952c <__sfputc_r+0x16>
    9526:	47a9                	li	a5,10
    9528:	00f59363          	bne	a1,a5,952e <__sfputc_r+0x18>
    952c:	aee1                	j	9904 <__swbuf_r>
    952e:	421c                	lw	a5,0(a2)
    9530:	852e                	mv	a0,a1
    9532:	00178713          	addi	a4,a5,1
    9536:	c218                	sw	a4,0(a2)
    9538:	00b78023          	sb	a1,0(a5)
    953c:	8082                	ret

0000953e <__sfputs_r>:
__sfputs_r():
    953e:	1101                	addi	sp,sp,-32
    9540:	cc22                	sw	s0,24(sp)
    9542:	ca26                	sw	s1,20(sp)
    9544:	c84a                	sw	s2,16(sp)
    9546:	c64e                	sw	s3,12(sp)
    9548:	c452                	sw	s4,8(sp)
    954a:	ce06                	sw	ra,28(sp)
    954c:	892a                	mv	s2,a0
    954e:	89ae                	mv	s3,a1
    9550:	8432                	mv	s0,a2
    9552:	00d604b3          	add	s1,a2,a3
    9556:	5a7d                	li	s4,-1
    9558:	00941463          	bne	s0,s1,9560 <__sfputs_r+0x22>
    955c:	4501                	li	a0,0
    955e:	a811                	j	9572 <__sfputs_r+0x34>
    9560:	00044583          	lbu	a1,0(s0)
    9564:	864e                	mv	a2,s3
    9566:	854a                	mv	a0,s2
    9568:	fafff0ef          	jal	ra,9516 <__sfputc_r>
    956c:	0405                	addi	s0,s0,1
    956e:	ff4515e3          	bne	a0,s4,9558 <__sfputs_r+0x1a>
    9572:	40f2                	lw	ra,28(sp)
    9574:	4462                	lw	s0,24(sp)
    9576:	44d2                	lw	s1,20(sp)
    9578:	4942                	lw	s2,16(sp)
    957a:	49b2                	lw	s3,12(sp)
    957c:	4a22                	lw	s4,8(sp)
    957e:	6105                	addi	sp,sp,32
    9580:	8082                	ret

00009582 <_vfiprintf_r>:
_vfiprintf_r():
    9582:	7135                	addi	sp,sp,-160
    9584:	cd22                	sw	s0,152(sp)
    9586:	cb26                	sw	s1,148(sp)
    9588:	c94a                	sw	s2,144(sp)
    958a:	c74e                	sw	s3,140(sp)
    958c:	cf06                	sw	ra,156(sp)
    958e:	c552                	sw	s4,136(sp)
    9590:	c356                	sw	s5,132(sp)
    9592:	c15a                	sw	s6,128(sp)
    9594:	dede                	sw	s7,124(sp)
    9596:	dce2                	sw	s8,120(sp)
    9598:	dae6                	sw	s9,116(sp)
    959a:	89aa                	mv	s3,a0
    959c:	84ae                	mv	s1,a1
    959e:	8932                	mv	s2,a2
    95a0:	8436                	mv	s0,a3
    95a2:	c509                	beqz	a0,95ac <_vfiprintf_r+0x2a>
    95a4:	4d1c                	lw	a5,24(a0)
    95a6:	e399                	bnez	a5,95ac <_vfiprintf_r+0x2a>
    95a8:	9b2ff0ef          	jal	ra,875a <__sinit>
    95ac:	00001797          	auipc	a5,0x1
    95b0:	44478793          	addi	a5,a5,1092 # a9f0 <__sf_fake_stdin>
    95b4:	0cf49d63          	bne	s1,a5,968e <_vfiprintf_r+0x10c>
    95b8:	0049a483          	lw	s1,4(s3)
    95bc:	00c4d783          	lhu	a5,12(s1)
    95c0:	8ba1                	andi	a5,a5,8
    95c2:	cbe5                	beqz	a5,96b2 <_vfiprintf_r+0x130>
    95c4:	489c                	lw	a5,16(s1)
    95c6:	c7f5                	beqz	a5,96b2 <_vfiprintf_r+0x130>
    95c8:	02000793          	li	a5,32
    95cc:	02f104a3          	sb	a5,41(sp)
    95d0:	03000793          	li	a5,48
    95d4:	d202                	sw	zero,36(sp)
    95d6:	02f10523          	sb	a5,42(sp)
    95da:	c622                	sw	s0,12(sp)
    95dc:	02500b93          	li	s7,37
    95e0:	00001a97          	auipc	s5,0x1
    95e4:	54ca8a93          	addi	s5,s5,1356 # ab2c <p05.3321+0xc>
    95e8:	4c05                	li	s8,1
    95ea:	4b29                	li	s6,10
    95ec:	844a                	mv	s0,s2
    95ee:	00044783          	lbu	a5,0(s0)
    95f2:	c399                	beqz	a5,95f8 <_vfiprintf_r+0x76>
    95f4:	0f779163          	bne	a5,s7,96d6 <_vfiprintf_r+0x154>
    95f8:	41240cb3          	sub	s9,s0,s2
    95fc:	000c8e63          	beqz	s9,9618 <_vfiprintf_r+0x96>
    9600:	86e6                	mv	a3,s9
    9602:	864a                	mv	a2,s2
    9604:	85a6                	mv	a1,s1
    9606:	854e                	mv	a0,s3
    9608:	f37ff0ef          	jal	ra,953e <__sfputs_r>
    960c:	57fd                	li	a5,-1
    960e:	1ef50663          	beq	a0,a5,97fa <_vfiprintf_r+0x278>
    9612:	5692                	lw	a3,36(sp)
    9614:	96e6                	add	a3,a3,s9
    9616:	d236                	sw	a3,36(sp)
    9618:	00044783          	lbu	a5,0(s0)
    961c:	1c078f63          	beqz	a5,97fa <_vfiprintf_r+0x278>
    9620:	57fd                	li	a5,-1
    9622:	00140913          	addi	s2,s0,1
    9626:	c802                	sw	zero,16(sp)
    9628:	ce02                	sw	zero,28(sp)
    962a:	ca3e                	sw	a5,20(sp)
    962c:	cc02                	sw	zero,24(sp)
    962e:	040109a3          	sb	zero,83(sp)
    9632:	d482                	sw	zero,104(sp)
    9634:	00094583          	lbu	a1,0(s2)
    9638:	4615                	li	a2,5
    963a:	8556                	mv	a0,s5
    963c:	abaff0ef          	jal	ra,88f6 <memchr>
    9640:	00190413          	addi	s0,s2,1
    9644:	47c2                	lw	a5,16(sp)
    9646:	e951                	bnez	a0,96da <_vfiprintf_r+0x158>
    9648:	0107f713          	andi	a4,a5,16
    964c:	c709                	beqz	a4,9656 <_vfiprintf_r+0xd4>
    964e:	02000713          	li	a4,32
    9652:	04e109a3          	sb	a4,83(sp)
    9656:	0087f713          	andi	a4,a5,8
    965a:	c709                	beqz	a4,9664 <_vfiprintf_r+0xe2>
    965c:	02b00713          	li	a4,43
    9660:	04e109a3          	sb	a4,83(sp)
    9664:	00094683          	lbu	a3,0(s2)
    9668:	02a00713          	li	a4,42
    966c:	06e68f63          	beq	a3,a4,96ea <_vfiprintf_r+0x168>
    9670:	47f2                	lw	a5,28(sp)
    9672:	844a                	mv	s0,s2
    9674:	4681                	li	a3,0
    9676:	4625                	li	a2,9
    9678:	00044703          	lbu	a4,0(s0)
    967c:	00140593          	addi	a1,s0,1
    9680:	fd070713          	addi	a4,a4,-48
    9684:	0ae67863          	bgeu	a2,a4,9734 <_vfiprintf_r+0x1b2>
    9688:	caad                	beqz	a3,96fa <_vfiprintf_r+0x178>
    968a:	ce3e                	sw	a5,28(sp)
    968c:	a0bd                	j	96fa <_vfiprintf_r+0x178>
    968e:	00001797          	auipc	a5,0x1
    9692:	38278793          	addi	a5,a5,898 # aa10 <__sf_fake_stdout>
    9696:	00f49563          	bne	s1,a5,96a0 <_vfiprintf_r+0x11e>
    969a:	0089a483          	lw	s1,8(s3)
    969e:	bf39                	j	95bc <_vfiprintf_r+0x3a>
    96a0:	00001797          	auipc	a5,0x1
    96a4:	33078793          	addi	a5,a5,816 # a9d0 <__sf_fake_stderr>
    96a8:	f0f49ae3          	bne	s1,a5,95bc <_vfiprintf_r+0x3a>
    96ac:	00c9a483          	lw	s1,12(s3)
    96b0:	b731                	j	95bc <_vfiprintf_r+0x3a>
    96b2:	85a6                	mv	a1,s1
    96b4:	854e                	mv	a0,s3
    96b6:	2e3d                	jal	99f4 <__swsetup_r>
    96b8:	d901                	beqz	a0,95c8 <_vfiprintf_r+0x46>
    96ba:	557d                	li	a0,-1
    96bc:	40fa                	lw	ra,156(sp)
    96be:	446a                	lw	s0,152(sp)
    96c0:	44da                	lw	s1,148(sp)
    96c2:	494a                	lw	s2,144(sp)
    96c4:	49ba                	lw	s3,140(sp)
    96c6:	4a2a                	lw	s4,136(sp)
    96c8:	4a9a                	lw	s5,132(sp)
    96ca:	4b0a                	lw	s6,128(sp)
    96cc:	5bf6                	lw	s7,124(sp)
    96ce:	5c66                	lw	s8,120(sp)
    96d0:	5cd6                	lw	s9,116(sp)
    96d2:	610d                	addi	sp,sp,160
    96d4:	8082                	ret
    96d6:	0405                	addi	s0,s0,1
    96d8:	bf19                	j	95ee <_vfiprintf_r+0x6c>
    96da:	41550533          	sub	a0,a0,s5
    96de:	00ac1533          	sll	a0,s8,a0
    96e2:	8fc9                	or	a5,a5,a0
    96e4:	c83e                	sw	a5,16(sp)
    96e6:	8922                	mv	s2,s0
    96e8:	b7b1                	j	9634 <_vfiprintf_r+0xb2>
    96ea:	4732                	lw	a4,12(sp)
    96ec:	00470693          	addi	a3,a4,4
    96f0:	4318                	lw	a4,0(a4)
    96f2:	c636                	sw	a3,12(sp)
    96f4:	02074963          	bltz	a4,9726 <_vfiprintf_r+0x1a4>
    96f8:	ce3a                	sw	a4,28(sp)
    96fa:	00044703          	lbu	a4,0(s0)
    96fe:	02e00793          	li	a5,46
    9702:	04f71f63          	bne	a4,a5,9760 <_vfiprintf_r+0x1de>
    9706:	00144703          	lbu	a4,1(s0)
    970a:	02a00793          	li	a5,42
    970e:	02f71b63          	bne	a4,a5,9744 <_vfiprintf_r+0x1c2>
    9712:	47b2                	lw	a5,12(sp)
    9714:	0409                	addi	s0,s0,2
    9716:	00478713          	addi	a4,a5,4
    971a:	439c                	lw	a5,0(a5)
    971c:	c63a                	sw	a4,12(sp)
    971e:	0207c163          	bltz	a5,9740 <_vfiprintf_r+0x1be>
    9722:	ca3e                	sw	a5,20(sp)
    9724:	a835                	j	9760 <_vfiprintf_r+0x1de>
    9726:	40e00733          	neg	a4,a4
    972a:	0027e793          	ori	a5,a5,2
    972e:	ce3a                	sw	a4,28(sp)
    9730:	c83e                	sw	a5,16(sp)
    9732:	b7e1                	j	96fa <_vfiprintf_r+0x178>
    9734:	036787b3          	mul	a5,a5,s6
    9738:	4685                	li	a3,1
    973a:	842e                	mv	s0,a1
    973c:	97ba                	add	a5,a5,a4
    973e:	bf2d                	j	9678 <_vfiprintf_r+0xf6>
    9740:	57fd                	li	a5,-1
    9742:	b7c5                	j	9722 <_vfiprintf_r+0x1a0>
    9744:	0405                	addi	s0,s0,1
    9746:	ca02                	sw	zero,20(sp)
    9748:	4681                	li	a3,0
    974a:	4781                	li	a5,0
    974c:	4625                	li	a2,9
    974e:	00044703          	lbu	a4,0(s0)
    9752:	00140593          	addi	a1,s0,1
    9756:	fd070713          	addi	a4,a4,-48
    975a:	06e67863          	bgeu	a2,a4,97ca <_vfiprintf_r+0x248>
    975e:	f2f1                	bnez	a3,9722 <_vfiprintf_r+0x1a0>
    9760:	00044583          	lbu	a1,0(s0)
    9764:	460d                	li	a2,3
    9766:	00001517          	auipc	a0,0x1
    976a:	3ce50513          	addi	a0,a0,974 # ab34 <p05.3321+0x14>
    976e:	988ff0ef          	jal	ra,88f6 <memchr>
    9772:	cd11                	beqz	a0,978e <_vfiprintf_r+0x20c>
    9774:	00001797          	auipc	a5,0x1
    9778:	3c078793          	addi	a5,a5,960 # ab34 <p05.3321+0x14>
    977c:	8d1d                	sub	a0,a0,a5
    977e:	04000793          	li	a5,64
    9782:	00a797b3          	sll	a5,a5,a0
    9786:	4542                	lw	a0,16(sp)
    9788:	0405                	addi	s0,s0,1
    978a:	8d5d                	or	a0,a0,a5
    978c:	c82a                	sw	a0,16(sp)
    978e:	00044583          	lbu	a1,0(s0)
    9792:	4619                	li	a2,6
    9794:	00001517          	auipc	a0,0x1
    9798:	3a450513          	addi	a0,a0,932 # ab38 <p05.3321+0x18>
    979c:	00140913          	addi	s2,s0,1
    97a0:	02b10423          	sb	a1,40(sp)
    97a4:	952ff0ef          	jal	ra,88f6 <memchr>
    97a8:	c12d                	beqz	a0,980a <_vfiprintf_r+0x288>
    97aa:	ffffe797          	auipc	a5,0xffffe
    97ae:	88e78793          	addi	a5,a5,-1906 # 7038 <_printf_float>
    97b2:	e795                	bnez	a5,97de <_vfiprintf_r+0x25c>
    97b4:	4742                	lw	a4,16(sp)
    97b6:	47b2                	lw	a5,12(sp)
    97b8:	10077713          	andi	a4,a4,256
    97bc:	cf09                	beqz	a4,97d6 <_vfiprintf_r+0x254>
    97be:	0791                	addi	a5,a5,4
    97c0:	c63e                	sw	a5,12(sp)
    97c2:	5792                	lw	a5,36(sp)
    97c4:	97d2                	add	a5,a5,s4
    97c6:	d23e                	sw	a5,36(sp)
    97c8:	b515                	j	95ec <_vfiprintf_r+0x6a>
    97ca:	036787b3          	mul	a5,a5,s6
    97ce:	4685                	li	a3,1
    97d0:	842e                	mv	s0,a1
    97d2:	97ba                	add	a5,a5,a4
    97d4:	bfad                	j	974e <_vfiprintf_r+0x1cc>
    97d6:	079d                	addi	a5,a5,7
    97d8:	9be1                	andi	a5,a5,-8
    97da:	07a1                	addi	a5,a5,8
    97dc:	b7d5                	j	97c0 <_vfiprintf_r+0x23e>
    97de:	0078                	addi	a4,sp,12
    97e0:	00000697          	auipc	a3,0x0
    97e4:	d5e68693          	addi	a3,a3,-674 # 953e <__sfputs_r>
    97e8:	8626                	mv	a2,s1
    97ea:	080c                	addi	a1,sp,16
    97ec:	854e                	mv	a0,s3
    97ee:	84bfd0ef          	jal	ra,7038 <_printf_float>
    97f2:	57fd                	li	a5,-1
    97f4:	8a2a                	mv	s4,a0
    97f6:	fcf516e3          	bne	a0,a5,97c2 <_vfiprintf_r+0x240>
    97fa:	00c4d783          	lhu	a5,12(s1)
    97fe:	0407f793          	andi	a5,a5,64
    9802:	ea079ce3          	bnez	a5,96ba <_vfiprintf_r+0x138>
    9806:	5512                	lw	a0,36(sp)
    9808:	bd55                	j	96bc <_vfiprintf_r+0x13a>
    980a:	0078                	addi	a4,sp,12
    980c:	00000697          	auipc	a3,0x0
    9810:	d3268693          	addi	a3,a3,-718 # 953e <__sfputs_r>
    9814:	8626                	mv	a2,s1
    9816:	080c                	addi	a1,sp,16
    9818:	854e                	mv	a0,s3
    981a:	deffd0ef          	jal	ra,7608 <_printf_i>
    981e:	bfd1                	j	97f2 <_vfiprintf_r+0x270>

00009820 <_sbrk_r>:
_sbrk_r():
    9820:	1141                	addi	sp,sp,-16
    9822:	c422                	sw	s0,8(sp)
    9824:	842a                	mv	s0,a0
    9826:	852e                	mv	a0,a1
    9828:	9a01a023          	sw	zero,-1632(gp) # 200003d8 <errno>
    982c:	c606                	sw	ra,12(sp)
    982e:	369000ef          	jal	ra,a396 <_sbrk>
    9832:	57fd                	li	a5,-1
    9834:	00f51763          	bne	a0,a5,9842 <_sbrk_r+0x22>
    9838:	9a018793          	addi	a5,gp,-1632 # 200003d8 <errno>
    983c:	439c                	lw	a5,0(a5)
    983e:	c391                	beqz	a5,9842 <_sbrk_r+0x22>
    9840:	c01c                	sw	a5,0(s0)
    9842:	40b2                	lw	ra,12(sp)
    9844:	4422                	lw	s0,8(sp)
    9846:	0141                	addi	sp,sp,16
    9848:	8082                	ret

0000984a <__sread>:
__sread():
    984a:	1141                	addi	sp,sp,-16
    984c:	c422                	sw	s0,8(sp)
    984e:	842e                	mv	s0,a1
    9850:	00e59583          	lh	a1,14(a1)
    9854:	c606                	sw	ra,12(sp)
    9856:	2549                	jal	9ed8 <_read_r>
    9858:	00054963          	bltz	a0,986a <__sread+0x20>
    985c:	487c                	lw	a5,84(s0)
    985e:	97aa                	add	a5,a5,a0
    9860:	c87c                	sw	a5,84(s0)
    9862:	40b2                	lw	ra,12(sp)
    9864:	4422                	lw	s0,8(sp)
    9866:	0141                	addi	sp,sp,16
    9868:	8082                	ret
    986a:	00c45783          	lhu	a5,12(s0)
    986e:	777d                	lui	a4,0xfffff
    9870:	177d                	addi	a4,a4,-1
    9872:	8ff9                	and	a5,a5,a4
    9874:	00f41623          	sh	a5,12(s0)
    9878:	b7ed                	j	9862 <__sread+0x18>

0000987a <__swrite>:
__swrite():
    987a:	00c5d783          	lhu	a5,12(a1)
    987e:	1101                	addi	sp,sp,-32
    9880:	cc22                	sw	s0,24(sp)
    9882:	ca26                	sw	s1,20(sp)
    9884:	c84a                	sw	s2,16(sp)
    9886:	c64e                	sw	s3,12(sp)
    9888:	ce06                	sw	ra,28(sp)
    988a:	1007f793          	andi	a5,a5,256
    988e:	84aa                	mv	s1,a0
    9890:	842e                	mv	s0,a1
    9892:	8932                	mv	s2,a2
    9894:	89b6                	mv	s3,a3
    9896:	c791                	beqz	a5,98a2 <__swrite+0x28>
    9898:	00e59583          	lh	a1,14(a1)
    989c:	4689                	li	a3,2
    989e:	4601                	li	a2,0
    98a0:	2915                	jal	9cd4 <_lseek_r>
    98a2:	00c45783          	lhu	a5,12(s0)
    98a6:	777d                	lui	a4,0xfffff
    98a8:	177d                	addi	a4,a4,-1
    98aa:	8ff9                	and	a5,a5,a4
    98ac:	00f41623          	sh	a5,12(s0)
    98b0:	00e41583          	lh	a1,14(s0)
    98b4:	4462                	lw	s0,24(sp)
    98b6:	40f2                	lw	ra,28(sp)
    98b8:	86ce                	mv	a3,s3
    98ba:	864a                	mv	a2,s2
    98bc:	49b2                	lw	s3,12(sp)
    98be:	4942                	lw	s2,16(sp)
    98c0:	8526                	mv	a0,s1
    98c2:	44d2                	lw	s1,20(sp)
    98c4:	6105                	addi	sp,sp,32
    98c6:	a201                	j	99c6 <_write_r>

000098c8 <__sseek>:
__sseek():
    98c8:	1141                	addi	sp,sp,-16
    98ca:	c422                	sw	s0,8(sp)
    98cc:	842e                	mv	s0,a1
    98ce:	00e59583          	lh	a1,14(a1)
    98d2:	c606                	sw	ra,12(sp)
    98d4:	2101                	jal	9cd4 <_lseek_r>
    98d6:	57fd                	li	a5,-1
    98d8:	00c45703          	lhu	a4,12(s0)
    98dc:	00f51b63          	bne	a0,a5,98f2 <__sseek+0x2a>
    98e0:	77fd                	lui	a5,0xfffff
    98e2:	17fd                	addi	a5,a5,-1
    98e4:	8ff9                	and	a5,a5,a4
    98e6:	00f41623          	sh	a5,12(s0)
    98ea:	40b2                	lw	ra,12(sp)
    98ec:	4422                	lw	s0,8(sp)
    98ee:	0141                	addi	sp,sp,16
    98f0:	8082                	ret
    98f2:	6785                	lui	a5,0x1
    98f4:	8fd9                	or	a5,a5,a4
    98f6:	00f41623          	sh	a5,12(s0)
    98fa:	c868                	sw	a0,84(s0)
    98fc:	b7fd                	j	98ea <__sseek+0x22>

000098fe <__sclose>:
__sclose():
    98fe:	00e59583          	lh	a1,14(a1)
    9902:	a409                	j	9b04 <_close_r>

00009904 <__swbuf_r>:
__swbuf_r():
    9904:	1101                	addi	sp,sp,-32
    9906:	cc22                	sw	s0,24(sp)
    9908:	ca26                	sw	s1,20(sp)
    990a:	c84a                	sw	s2,16(sp)
    990c:	ce06                	sw	ra,28(sp)
    990e:	c64e                	sw	s3,12(sp)
    9910:	84aa                	mv	s1,a0
    9912:	892e                	mv	s2,a1
    9914:	8432                	mv	s0,a2
    9916:	c509                	beqz	a0,9920 <__swbuf_r+0x1c>
    9918:	4d1c                	lw	a5,24(a0)
    991a:	e399                	bnez	a5,9920 <__swbuf_r+0x1c>
    991c:	e3ffe0ef          	jal	ra,875a <__sinit>
    9920:	00001797          	auipc	a5,0x1
    9924:	0d078793          	addi	a5,a5,208 # a9f0 <__sf_fake_stdin>
    9928:	06f41963          	bne	s0,a5,999a <__swbuf_r+0x96>
    992c:	40c0                	lw	s0,4(s1)
    992e:	4c1c                	lw	a5,24(s0)
    9930:	c41c                	sw	a5,8(s0)
    9932:	00c45783          	lhu	a5,12(s0)
    9936:	8ba1                	andi	a5,a5,8
    9938:	c3c9                	beqz	a5,99ba <__swbuf_r+0xb6>
    993a:	481c                	lw	a5,16(s0)
    993c:	cfbd                	beqz	a5,99ba <__swbuf_r+0xb6>
    993e:	481c                	lw	a5,16(s0)
    9940:	4008                	lw	a0,0(s0)
    9942:	0ff97993          	andi	s3,s2,255
    9946:	0ff97913          	andi	s2,s2,255
    994a:	8d1d                	sub	a0,a0,a5
    994c:	485c                	lw	a5,20(s0)
    994e:	00f54663          	blt	a0,a5,995a <__swbuf_r+0x56>
    9952:	85a2                	mv	a1,s0
    9954:	8526                	mv	a0,s1
    9956:	2e19                	jal	9c6c <_fflush_r>
    9958:	e52d                	bnez	a0,99c2 <__swbuf_r+0xbe>
    995a:	441c                	lw	a5,8(s0)
    995c:	0505                	addi	a0,a0,1
    995e:	17fd                	addi	a5,a5,-1
    9960:	c41c                	sw	a5,8(s0)
    9962:	401c                	lw	a5,0(s0)
    9964:	00178713          	addi	a4,a5,1
    9968:	c018                	sw	a4,0(s0)
    996a:	01378023          	sb	s3,0(a5)
    996e:	485c                	lw	a5,20(s0)
    9970:	00a78963          	beq	a5,a0,9982 <__swbuf_r+0x7e>
    9974:	00c45783          	lhu	a5,12(s0)
    9978:	8b85                	andi	a5,a5,1
    997a:	cb81                	beqz	a5,998a <__swbuf_r+0x86>
    997c:	47a9                	li	a5,10
    997e:	00f91663          	bne	s2,a5,998a <__swbuf_r+0x86>
    9982:	85a2                	mv	a1,s0
    9984:	8526                	mv	a0,s1
    9986:	24dd                	jal	9c6c <_fflush_r>
    9988:	ed0d                	bnez	a0,99c2 <__swbuf_r+0xbe>
    998a:	40f2                	lw	ra,28(sp)
    998c:	4462                	lw	s0,24(sp)
    998e:	854a                	mv	a0,s2
    9990:	44d2                	lw	s1,20(sp)
    9992:	4942                	lw	s2,16(sp)
    9994:	49b2                	lw	s3,12(sp)
    9996:	6105                	addi	sp,sp,32
    9998:	8082                	ret
    999a:	00001797          	auipc	a5,0x1
    999e:	07678793          	addi	a5,a5,118 # aa10 <__sf_fake_stdout>
    99a2:	00f41463          	bne	s0,a5,99aa <__swbuf_r+0xa6>
    99a6:	4480                	lw	s0,8(s1)
    99a8:	b759                	j	992e <__swbuf_r+0x2a>
    99aa:	00001797          	auipc	a5,0x1
    99ae:	02678793          	addi	a5,a5,38 # a9d0 <__sf_fake_stderr>
    99b2:	f6f41ee3          	bne	s0,a5,992e <__swbuf_r+0x2a>
    99b6:	44c0                	lw	s0,12(s1)
    99b8:	bf9d                	j	992e <__swbuf_r+0x2a>
    99ba:	85a2                	mv	a1,s0
    99bc:	8526                	mv	a0,s1
    99be:	281d                	jal	99f4 <__swsetup_r>
    99c0:	dd3d                	beqz	a0,993e <__swbuf_r+0x3a>
    99c2:	597d                	li	s2,-1
    99c4:	b7d9                	j	998a <__swbuf_r+0x86>

000099c6 <_write_r>:
_write_r():
    99c6:	1141                	addi	sp,sp,-16
    99c8:	c422                	sw	s0,8(sp)
    99ca:	842a                	mv	s0,a0
    99cc:	852e                	mv	a0,a1
    99ce:	85b2                	mv	a1,a2
    99d0:	8636                	mv	a2,a3
    99d2:	9a01a023          	sw	zero,-1632(gp) # 200003d8 <errno>
    99d6:	c606                	sw	ra,12(sp)
    99d8:	a2df70ef          	jal	ra,1404 <_write>
    99dc:	57fd                	li	a5,-1
    99de:	00f51763          	bne	a0,a5,99ec <_write_r+0x26>
    99e2:	9a018793          	addi	a5,gp,-1632 # 200003d8 <errno>
    99e6:	439c                	lw	a5,0(a5)
    99e8:	c391                	beqz	a5,99ec <_write_r+0x26>
    99ea:	c01c                	sw	a5,0(s0)
    99ec:	40b2                	lw	ra,12(sp)
    99ee:	4422                	lw	s0,8(sp)
    99f0:	0141                	addi	sp,sp,16
    99f2:	8082                	ret

000099f4 <__swsetup_r>:
__swsetup_r():
    99f4:	1141                	addi	sp,sp,-16
    99f6:	82418793          	addi	a5,gp,-2012 # 2000025c <_impure_ptr>
    99fa:	c226                	sw	s1,4(sp)
    99fc:	4384                	lw	s1,0(a5)
    99fe:	c422                	sw	s0,8(sp)
    9a00:	c04a                	sw	s2,0(sp)
    9a02:	c606                	sw	ra,12(sp)
    9a04:	892a                	mv	s2,a0
    9a06:	842e                	mv	s0,a1
    9a08:	c491                	beqz	s1,9a14 <__swsetup_r+0x20>
    9a0a:	4c9c                	lw	a5,24(s1)
    9a0c:	e781                	bnez	a5,9a14 <__swsetup_r+0x20>
    9a0e:	8526                	mv	a0,s1
    9a10:	d4bfe0ef          	jal	ra,875a <__sinit>
    9a14:	00001797          	auipc	a5,0x1
    9a18:	fdc78793          	addi	a5,a5,-36 # a9f0 <__sf_fake_stdin>
    9a1c:	02f41c63          	bne	s0,a5,9a54 <__swsetup_r+0x60>
    9a20:	40c0                	lw	s0,4(s1)
    9a22:	00c41703          	lh	a4,12(s0)
    9a26:	01071793          	slli	a5,a4,0x10
    9a2a:	83c1                	srli	a5,a5,0x10
    9a2c:	0087f693          	andi	a3,a5,8
    9a30:	eebd                	bnez	a3,9aae <__swsetup_r+0xba>
    9a32:	0107f693          	andi	a3,a5,16
    9a36:	ee9d                	bnez	a3,9a74 <__swsetup_r+0x80>
    9a38:	47a5                	li	a5,9
    9a3a:	00f92023          	sw	a5,0(s2)
    9a3e:	04076713          	ori	a4,a4,64
    9a42:	00e41623          	sh	a4,12(s0)
    9a46:	557d                	li	a0,-1
    9a48:	40b2                	lw	ra,12(sp)
    9a4a:	4422                	lw	s0,8(sp)
    9a4c:	4492                	lw	s1,4(sp)
    9a4e:	4902                	lw	s2,0(sp)
    9a50:	0141                	addi	sp,sp,16
    9a52:	8082                	ret
    9a54:	00001797          	auipc	a5,0x1
    9a58:	fbc78793          	addi	a5,a5,-68 # aa10 <__sf_fake_stdout>
    9a5c:	00f41463          	bne	s0,a5,9a64 <__swsetup_r+0x70>
    9a60:	4480                	lw	s0,8(s1)
    9a62:	b7c1                	j	9a22 <__swsetup_r+0x2e>
    9a64:	00001797          	auipc	a5,0x1
    9a68:	f6c78793          	addi	a5,a5,-148 # a9d0 <__sf_fake_stderr>
    9a6c:	faf41be3          	bne	s0,a5,9a22 <__swsetup_r+0x2e>
    9a70:	44c0                	lw	s0,12(s1)
    9a72:	bf45                	j	9a22 <__swsetup_r+0x2e>
    9a74:	8b91                	andi	a5,a5,4
    9a76:	c795                	beqz	a5,9aa2 <__swsetup_r+0xae>
    9a78:	584c                	lw	a1,52(s0)
    9a7a:	c991                	beqz	a1,9a8e <__swsetup_r+0x9a>
    9a7c:	04440793          	addi	a5,s0,68
    9a80:	00f58563          	beq	a1,a5,9a8a <__swsetup_r+0x96>
    9a84:	854a                	mv	a0,s2
    9a86:	da8ff0ef          	jal	ra,902e <_free_r>
    9a8a:	02042a23          	sw	zero,52(s0)
    9a8e:	00c45783          	lhu	a5,12(s0)
    9a92:	00042223          	sw	zero,4(s0)
    9a96:	fdb7f793          	andi	a5,a5,-37
    9a9a:	00f41623          	sh	a5,12(s0)
    9a9e:	481c                	lw	a5,16(s0)
    9aa0:	c01c                	sw	a5,0(s0)
    9aa2:	00c45783          	lhu	a5,12(s0)
    9aa6:	0087e793          	ori	a5,a5,8
    9aaa:	00f41623          	sh	a5,12(s0)
    9aae:	481c                	lw	a5,16(s0)
    9ab0:	ef81                	bnez	a5,9ac8 <__swsetup_r+0xd4>
    9ab2:	00c45783          	lhu	a5,12(s0)
    9ab6:	20000713          	li	a4,512
    9aba:	2807f793          	andi	a5,a5,640
    9abe:	00e78563          	beq	a5,a4,9ac8 <__swsetup_r+0xd4>
    9ac2:	85a2                	mv	a1,s0
    9ac4:	854a                	mv	a0,s2
    9ac6:	2c49                	jal	9d58 <__smakebuf_r>
    9ac8:	00c45783          	lhu	a5,12(s0)
    9acc:	0017f713          	andi	a4,a5,1
    9ad0:	c705                	beqz	a4,9af8 <__swsetup_r+0x104>
    9ad2:	485c                	lw	a5,20(s0)
    9ad4:	00042423          	sw	zero,8(s0)
    9ad8:	40f007b3          	neg	a5,a5
    9adc:	cc1c                	sw	a5,24(s0)
    9ade:	481c                	lw	a5,16(s0)
    9ae0:	4501                	li	a0,0
    9ae2:	f3bd                	bnez	a5,9a48 <__swsetup_r+0x54>
    9ae4:	00c41783          	lh	a5,12(s0)
    9ae8:	0807f713          	andi	a4,a5,128
    9aec:	df31                	beqz	a4,9a48 <__swsetup_r+0x54>
    9aee:	0407e793          	ori	a5,a5,64
    9af2:	00f41623          	sh	a5,12(s0)
    9af6:	bf81                	j	9a46 <__swsetup_r+0x52>
    9af8:	8b89                	andi	a5,a5,2
    9afa:	4701                	li	a4,0
    9afc:	e391                	bnez	a5,9b00 <__swsetup_r+0x10c>
    9afe:	4858                	lw	a4,20(s0)
    9b00:	c418                	sw	a4,8(s0)
    9b02:	bff1                	j	9ade <__swsetup_r+0xea>

00009b04 <_close_r>:
_close_r():
    9b04:	1141                	addi	sp,sp,-16
    9b06:	c422                	sw	s0,8(sp)
    9b08:	842a                	mv	s0,a0
    9b0a:	852e                	mv	a0,a1
    9b0c:	9a01a023          	sw	zero,-1632(gp) # 200003d8 <errno>
    9b10:	c606                	sw	ra,12(sp)
    9b12:	049000ef          	jal	ra,a35a <_close>
    9b16:	57fd                	li	a5,-1
    9b18:	00f51763          	bne	a0,a5,9b26 <_close_r+0x22>
    9b1c:	9a018793          	addi	a5,gp,-1632 # 200003d8 <errno>
    9b20:	439c                	lw	a5,0(a5)
    9b22:	c391                	beqz	a5,9b26 <_close_r+0x22>
    9b24:	c01c                	sw	a5,0(s0)
    9b26:	40b2                	lw	ra,12(sp)
    9b28:	4422                	lw	s0,8(sp)
    9b2a:	0141                	addi	sp,sp,16
    9b2c:	8082                	ret

00009b2e <__sflush_r>:
__sflush_r():
    9b2e:	00c5d783          	lhu	a5,12(a1)
    9b32:	1101                	addi	sp,sp,-32
    9b34:	cc22                	sw	s0,24(sp)
    9b36:	ca26                	sw	s1,20(sp)
    9b38:	ce06                	sw	ra,28(sp)
    9b3a:	c84a                	sw	s2,16(sp)
    9b3c:	c64e                	sw	s3,12(sp)
    9b3e:	0087f713          	andi	a4,a5,8
    9b42:	84aa                	mv	s1,a0
    9b44:	842e                	mv	s0,a1
    9b46:	ef79                	bnez	a4,9c24 <__sflush_r+0xf6>
    9b48:	41d8                	lw	a4,4(a1)
    9b4a:	00e04d63          	bgtz	a4,9b64 <__sflush_r+0x36>
    9b4e:	41b8                	lw	a4,64(a1)
    9b50:	00e04a63          	bgtz	a4,9b64 <__sflush_r+0x36>
    9b54:	4501                	li	a0,0
    9b56:	40f2                	lw	ra,28(sp)
    9b58:	4462                	lw	s0,24(sp)
    9b5a:	44d2                	lw	s1,20(sp)
    9b5c:	4942                	lw	s2,16(sp)
    9b5e:	49b2                	lw	s3,12(sp)
    9b60:	6105                	addi	sp,sp,32
    9b62:	8082                	ret
    9b64:	5458                	lw	a4,44(s0)
    9b66:	d77d                	beqz	a4,9b54 <__sflush_r+0x26>
    9b68:	0004a903          	lw	s2,0(s1)
    9b6c:	01379693          	slli	a3,a5,0x13
    9b70:	0004a023          	sw	zero,0(s1)
    9b74:	0606de63          	bgez	a3,9bf0 <__sflush_r+0xc2>
    9b78:	4870                	lw	a2,84(s0)
    9b7a:	00c45783          	lhu	a5,12(s0)
    9b7e:	8b91                	andi	a5,a5,4
    9b80:	c799                	beqz	a5,9b8e <__sflush_r+0x60>
    9b82:	405c                	lw	a5,4(s0)
    9b84:	8e1d                	sub	a2,a2,a5
    9b86:	585c                	lw	a5,52(s0)
    9b88:	c399                	beqz	a5,9b8e <__sflush_r+0x60>
    9b8a:	403c                	lw	a5,64(s0)
    9b8c:	8e1d                	sub	a2,a2,a5
    9b8e:	545c                	lw	a5,44(s0)
    9b90:	500c                	lw	a1,32(s0)
    9b92:	4681                	li	a3,0
    9b94:	8526                	mv	a0,s1
    9b96:	9782                	jalr	a5
    9b98:	57fd                	li	a5,-1
    9b9a:	00c45703          	lhu	a4,12(s0)
    9b9e:	00f51d63          	bne	a0,a5,9bb8 <__sflush_r+0x8a>
    9ba2:	4094                	lw	a3,0(s1)
    9ba4:	47f5                	li	a5,29
    9ba6:	06d7e963          	bltu	a5,a3,9c18 <__sflush_r+0xea>
    9baa:	204007b7          	lui	a5,0x20400
    9bae:	0785                	addi	a5,a5,1
    9bb0:	00d7d7b3          	srl	a5,a5,a3
    9bb4:	8b85                	andi	a5,a5,1
    9bb6:	c3ad                	beqz	a5,9c18 <__sflush_r+0xea>
    9bb8:	481c                	lw	a5,16(s0)
    9bba:	00042223          	sw	zero,4(s0)
    9bbe:	c01c                	sw	a5,0(s0)
    9bc0:	01371793          	slli	a5,a4,0x13
    9bc4:	0007d863          	bgez	a5,9bd4 <__sflush_r+0xa6>
    9bc8:	57fd                	li	a5,-1
    9bca:	00f51463          	bne	a0,a5,9bd2 <__sflush_r+0xa4>
    9bce:	409c                	lw	a5,0(s1)
    9bd0:	e391                	bnez	a5,9bd4 <__sflush_r+0xa6>
    9bd2:	c868                	sw	a0,84(s0)
    9bd4:	584c                	lw	a1,52(s0)
    9bd6:	0124a023          	sw	s2,0(s1)
    9bda:	ddad                	beqz	a1,9b54 <__sflush_r+0x26>
    9bdc:	04440793          	addi	a5,s0,68
    9be0:	00f58563          	beq	a1,a5,9bea <__sflush_r+0xbc>
    9be4:	8526                	mv	a0,s1
    9be6:	c48ff0ef          	jal	ra,902e <_free_r>
    9bea:	02042a23          	sw	zero,52(s0)
    9bee:	b79d                	j	9b54 <__sflush_r+0x26>
    9bf0:	500c                	lw	a1,32(s0)
    9bf2:	4601                	li	a2,0
    9bf4:	4685                	li	a3,1
    9bf6:	8526                	mv	a0,s1
    9bf8:	9702                	jalr	a4
    9bfa:	57fd                	li	a5,-1
    9bfc:	862a                	mv	a2,a0
    9bfe:	f6f51ee3          	bne	a0,a5,9b7a <__sflush_r+0x4c>
    9c02:	409c                	lw	a5,0(s1)
    9c04:	dbbd                	beqz	a5,9b7a <__sflush_r+0x4c>
    9c06:	4775                	li	a4,29
    9c08:	00e78563          	beq	a5,a4,9c12 <__sflush_r+0xe4>
    9c0c:	4759                	li	a4,22
    9c0e:	04e79463          	bne	a5,a4,9c56 <__sflush_r+0x128>
    9c12:	0124a023          	sw	s2,0(s1)
    9c16:	bf3d                	j	9b54 <__sflush_r+0x26>
    9c18:	04076713          	ori	a4,a4,64
    9c1c:	00e41623          	sh	a4,12(s0)
    9c20:	557d                	li	a0,-1
    9c22:	bf15                	j	9b56 <__sflush_r+0x28>
    9c24:	0105a983          	lw	s3,16(a1)
    9c28:	f20986e3          	beqz	s3,9b54 <__sflush_r+0x26>
    9c2c:	0005a903          	lw	s2,0(a1)
    9c30:	8b8d                	andi	a5,a5,3
    9c32:	0135a023          	sw	s3,0(a1)
    9c36:	41390933          	sub	s2,s2,s3
    9c3a:	4701                	li	a4,0
    9c3c:	e391                	bnez	a5,9c40 <__sflush_r+0x112>
    9c3e:	49d8                	lw	a4,20(a1)
    9c40:	c418                	sw	a4,8(s0)
    9c42:	f12059e3          	blez	s2,9b54 <__sflush_r+0x26>
    9c46:	541c                	lw	a5,40(s0)
    9c48:	500c                	lw	a1,32(s0)
    9c4a:	86ca                	mv	a3,s2
    9c4c:	864e                	mv	a2,s3
    9c4e:	8526                	mv	a0,s1
    9c50:	9782                	jalr	a5
    9c52:	00a04963          	bgtz	a0,9c64 <__sflush_r+0x136>
    9c56:	00c45783          	lhu	a5,12(s0)
    9c5a:	0407e793          	ori	a5,a5,64
    9c5e:	00f41623          	sh	a5,12(s0)
    9c62:	bf7d                	j	9c20 <__sflush_r+0xf2>
    9c64:	99aa                	add	s3,s3,a0
    9c66:	40a90933          	sub	s2,s2,a0
    9c6a:	bfe1                	j	9c42 <__sflush_r+0x114>

00009c6c <_fflush_r>:
_fflush_r():
    9c6c:	499c                	lw	a5,16(a1)
    9c6e:	c3ad                	beqz	a5,9cd0 <_fflush_r+0x64>
    9c70:	1101                	addi	sp,sp,-32
    9c72:	cc22                	sw	s0,24(sp)
    9c74:	ce06                	sw	ra,28(sp)
    9c76:	842a                	mv	s0,a0
    9c78:	c519                	beqz	a0,9c86 <_fflush_r+0x1a>
    9c7a:	4d1c                	lw	a5,24(a0)
    9c7c:	e789                	bnez	a5,9c86 <_fflush_r+0x1a>
    9c7e:	c62e                	sw	a1,12(sp)
    9c80:	adbfe0ef          	jal	ra,875a <__sinit>
    9c84:	45b2                	lw	a1,12(sp)
    9c86:	00001797          	auipc	a5,0x1
    9c8a:	d6a78793          	addi	a5,a5,-662 # a9f0 <__sf_fake_stdin>
    9c8e:	00f59c63          	bne	a1,a5,9ca6 <_fflush_r+0x3a>
    9c92:	404c                	lw	a1,4(s0)
    9c94:	00c59783          	lh	a5,12(a1)
    9c98:	c79d                	beqz	a5,9cc6 <_fflush_r+0x5a>
    9c9a:	8522                	mv	a0,s0
    9c9c:	4462                	lw	s0,24(sp)
    9c9e:	40f2                	lw	ra,28(sp)
    9ca0:	6105                	addi	sp,sp,32
    9ca2:	e8dff06f          	j	9b2e <__sflush_r>
    9ca6:	00001797          	auipc	a5,0x1
    9caa:	d6a78793          	addi	a5,a5,-662 # aa10 <__sf_fake_stdout>
    9cae:	00f59463          	bne	a1,a5,9cb6 <_fflush_r+0x4a>
    9cb2:	440c                	lw	a1,8(s0)
    9cb4:	b7c5                	j	9c94 <_fflush_r+0x28>
    9cb6:	00001797          	auipc	a5,0x1
    9cba:	d1a78793          	addi	a5,a5,-742 # a9d0 <__sf_fake_stderr>
    9cbe:	fcf59be3          	bne	a1,a5,9c94 <_fflush_r+0x28>
    9cc2:	444c                	lw	a1,12(s0)
    9cc4:	bfc1                	j	9c94 <_fflush_r+0x28>
    9cc6:	40f2                	lw	ra,28(sp)
    9cc8:	4462                	lw	s0,24(sp)
    9cca:	4501                	li	a0,0
    9ccc:	6105                	addi	sp,sp,32
    9cce:	8082                	ret
    9cd0:	4501                	li	a0,0
    9cd2:	8082                	ret

00009cd4 <_lseek_r>:
_lseek_r():
    9cd4:	1141                	addi	sp,sp,-16
    9cd6:	c422                	sw	s0,8(sp)
    9cd8:	842a                	mv	s0,a0
    9cda:	852e                	mv	a0,a1
    9cdc:	85b2                	mv	a1,a2
    9cde:	8636                	mv	a2,a3
    9ce0:	9a01a023          	sw	zero,-1632(gp) # 200003d8 <errno>
    9ce4:	c606                	sw	ra,12(sp)
    9ce6:	2d61                	jal	a37e <_lseek>
    9ce8:	57fd                	li	a5,-1
    9cea:	00f51763          	bne	a0,a5,9cf8 <_lseek_r+0x24>
    9cee:	9a018793          	addi	a5,gp,-1632 # 200003d8 <errno>
    9cf2:	439c                	lw	a5,0(a5)
    9cf4:	c391                	beqz	a5,9cf8 <_lseek_r+0x24>
    9cf6:	c01c                	sw	a5,0(s0)
    9cf8:	40b2                	lw	ra,12(sp)
    9cfa:	4422                	lw	s0,8(sp)
    9cfc:	0141                	addi	sp,sp,16
    9cfe:	8082                	ret

00009d00 <__swhatbuf_r>:
__swhatbuf_r():
    9d00:	7119                	addi	sp,sp,-128
    9d02:	daa6                	sw	s1,116(sp)
    9d04:	84ae                	mv	s1,a1
    9d06:	00e59583          	lh	a1,14(a1)
    9d0a:	dca2                	sw	s0,120(sp)
    9d0c:	de86                	sw	ra,124(sp)
    9d0e:	8432                	mv	s0,a2
    9d10:	0005dc63          	bgez	a1,9d28 <__swhatbuf_r+0x28>
    9d14:	00c4d783          	lhu	a5,12(s1)
    9d18:	0006a023          	sw	zero,0(a3)
    9d1c:	0807f793          	andi	a5,a5,128
    9d20:	e39d                	bnez	a5,9d46 <__swhatbuf_r+0x46>
    9d22:	40000793          	li	a5,1024
    9d26:	a015                	j	9d4a <__swhatbuf_r+0x4a>
    9d28:	0830                	addi	a2,sp,24
    9d2a:	c636                	sw	a3,12(sp)
    9d2c:	2ae5                	jal	9f24 <_fstat_r>
    9d2e:	46b2                	lw	a3,12(sp)
    9d30:	fe0542e3          	bltz	a0,9d14 <__swhatbuf_r+0x14>
    9d34:	4772                	lw	a4,28(sp)
    9d36:	67bd                	lui	a5,0xf
    9d38:	8ff9                	and	a5,a5,a4
    9d3a:	7779                	lui	a4,0xffffe
    9d3c:	97ba                	add	a5,a5,a4
    9d3e:	0017b793          	seqz	a5,a5
    9d42:	c29c                	sw	a5,0(a3)
    9d44:	bff9                	j	9d22 <__swhatbuf_r+0x22>
    9d46:	04000793          	li	a5,64
    9d4a:	c01c                	sw	a5,0(s0)
    9d4c:	50f6                	lw	ra,124(sp)
    9d4e:	5466                	lw	s0,120(sp)
    9d50:	54d6                	lw	s1,116(sp)
    9d52:	4501                	li	a0,0
    9d54:	6109                	addi	sp,sp,128
    9d56:	8082                	ret

00009d58 <__smakebuf_r>:
__smakebuf_r():
    9d58:	00c5d783          	lhu	a5,12(a1)
    9d5c:	1101                	addi	sp,sp,-32
    9d5e:	cc22                	sw	s0,24(sp)
    9d60:	ce06                	sw	ra,28(sp)
    9d62:	ca26                	sw	s1,20(sp)
    9d64:	c84a                	sw	s2,16(sp)
    9d66:	8b89                	andi	a5,a5,2
    9d68:	842e                	mv	s0,a1
    9d6a:	cf89                	beqz	a5,9d84 <__smakebuf_r+0x2c>
    9d6c:	04740793          	addi	a5,s0,71
    9d70:	c01c                	sw	a5,0(s0)
    9d72:	c81c                	sw	a5,16(s0)
    9d74:	4785                	li	a5,1
    9d76:	c85c                	sw	a5,20(s0)
    9d78:	40f2                	lw	ra,28(sp)
    9d7a:	4462                	lw	s0,24(sp)
    9d7c:	44d2                	lw	s1,20(sp)
    9d7e:	4942                	lw	s2,16(sp)
    9d80:	6105                	addi	sp,sp,32
    9d82:	8082                	ret
    9d84:	0074                	addi	a3,sp,12
    9d86:	0030                	addi	a2,sp,8
    9d88:	84aa                	mv	s1,a0
    9d8a:	f77ff0ef          	jal	ra,9d00 <__swhatbuf_r>
    9d8e:	45a2                	lw	a1,8(sp)
    9d90:	892a                	mv	s2,a0
    9d92:	8526                	mv	a0,s1
    9d94:	b42ff0ef          	jal	ra,90d6 <_malloc_r>
    9d98:	ed01                	bnez	a0,9db0 <__smakebuf_r+0x58>
    9d9a:	00c41783          	lh	a5,12(s0)
    9d9e:	2007f713          	andi	a4,a5,512
    9da2:	fb79                	bnez	a4,9d78 <__smakebuf_r+0x20>
    9da4:	9bf1                	andi	a5,a5,-4
    9da6:	0027e793          	ori	a5,a5,2
    9daa:	00f41623          	sh	a5,12(s0)
    9dae:	bf7d                	j	9d6c <__smakebuf_r+0x14>
    9db0:	fffff797          	auipc	a5,0xfffff
    9db4:	95878793          	addi	a5,a5,-1704 # 8708 <_cleanup_r>
    9db8:	d49c                	sw	a5,40(s1)
    9dba:	00c45783          	lhu	a5,12(s0)
    9dbe:	c008                	sw	a0,0(s0)
    9dc0:	c808                	sw	a0,16(s0)
    9dc2:	0807e793          	ori	a5,a5,128
    9dc6:	00f41623          	sh	a5,12(s0)
    9dca:	47a2                	lw	a5,8(sp)
    9dcc:	c85c                	sw	a5,20(s0)
    9dce:	47b2                	lw	a5,12(sp)
    9dd0:	cf89                	beqz	a5,9dea <__smakebuf_r+0x92>
    9dd2:	00e41583          	lh	a1,14(s0)
    9dd6:	8526                	mv	a0,s1
    9dd8:	2a9d                	jal	9f4e <_isatty_r>
    9dda:	c901                	beqz	a0,9dea <__smakebuf_r+0x92>
    9ddc:	00c45783          	lhu	a5,12(s0)
    9de0:	9bf1                	andi	a5,a5,-4
    9de2:	0017e793          	ori	a5,a5,1
    9de6:	00f41623          	sh	a5,12(s0)
    9dea:	00c45783          	lhu	a5,12(s0)
    9dee:	00f96933          	or	s2,s2,a5
    9df2:	01241623          	sh	s2,12(s0)
    9df6:	b749                	j	9d78 <__smakebuf_r+0x20>

00009df8 <__ascii_mbtowc>:
__ascii_mbtowc():
    9df8:	e185                	bnez	a1,9e18 <__ascii_mbtowc+0x20>
    9dfa:	1141                	addi	sp,sp,-16
    9dfc:	006c                	addi	a1,sp,12
    9dfe:	4501                	li	a0,0
    9e00:	ca11                	beqz	a2,9e14 <__ascii_mbtowc+0x1c>
    9e02:	5579                	li	a0,-2
    9e04:	ca81                	beqz	a3,9e14 <__ascii_mbtowc+0x1c>
    9e06:	00064783          	lbu	a5,0(a2)
    9e0a:	c19c                	sw	a5,0(a1)
    9e0c:	00064503          	lbu	a0,0(a2)
    9e10:	00a03533          	snez	a0,a0
    9e14:	0141                	addi	sp,sp,16
    9e16:	8082                	ret
    9e18:	4501                	li	a0,0
    9e1a:	ca19                	beqz	a2,9e30 <__ascii_mbtowc+0x38>
    9e1c:	5579                	li	a0,-2
    9e1e:	ca89                	beqz	a3,9e30 <__ascii_mbtowc+0x38>
    9e20:	00064783          	lbu	a5,0(a2)
    9e24:	c19c                	sw	a5,0(a1)
    9e26:	00064503          	lbu	a0,0(a2)
    9e2a:	00a03533          	snez	a0,a0
    9e2e:	8082                	ret
    9e30:	8082                	ret

00009e32 <memmove>:
memmove():
    9e32:	04a5f363          	bgeu	a1,a0,9e78 <memmove+0x46>
    9e36:	00c586b3          	add	a3,a1,a2
    9e3a:	02d57f63          	bgeu	a0,a3,9e78 <memmove+0x46>
    9e3e:	fff64593          	not	a1,a2
    9e42:	4781                	li	a5,0
    9e44:	17fd                	addi	a5,a5,-1
    9e46:	00f59363          	bne	a1,a5,9e4c <memmove+0x1a>
    9e4a:	8082                	ret
    9e4c:	00f68733          	add	a4,a3,a5
    9e50:	00074803          	lbu	a6,0(a4) # ffffe000 <_eusrstack+0xdffee000>
    9e54:	00c78733          	add	a4,a5,a2
    9e58:	972a                	add	a4,a4,a0
    9e5a:	01070023          	sb	a6,0(a4)
    9e5e:	b7dd                	j	9e44 <memmove+0x12>
    9e60:	00f58733          	add	a4,a1,a5
    9e64:	00074683          	lbu	a3,0(a4)
    9e68:	00f50733          	add	a4,a0,a5
    9e6c:	0785                	addi	a5,a5,1
    9e6e:	00d70023          	sb	a3,0(a4)
    9e72:	fef617e3          	bne	a2,a5,9e60 <memmove+0x2e>
    9e76:	8082                	ret
    9e78:	4781                	li	a5,0
    9e7a:	bfe5                	j	9e72 <memmove+0x40>

00009e7c <__malloc_lock>:
__malloc_lock():
    9e7c:	8082                	ret

00009e7e <__malloc_unlock>:
__malloc_unlock():
    9e7e:	8082                	ret

00009e80 <_realloc_r>:
_realloc_r():
    9e80:	e581                	bnez	a1,9e88 <_realloc_r+0x8>
    9e82:	85b2                	mv	a1,a2
    9e84:	a52ff06f          	j	90d6 <_malloc_r>
    9e88:	1101                	addi	sp,sp,-32
    9e8a:	cc22                	sw	s0,24(sp)
    9e8c:	ce06                	sw	ra,28(sp)
    9e8e:	ca26                	sw	s1,20(sp)
    9e90:	c84a                	sw	s2,16(sp)
    9e92:	c64e                	sw	s3,12(sp)
    9e94:	8432                	mv	s0,a2
    9e96:	ee01                	bnez	a2,9eae <_realloc_r+0x2e>
    9e98:	996ff0ef          	jal	ra,902e <_free_r>
    9e9c:	4901                	li	s2,0
    9e9e:	40f2                	lw	ra,28(sp)
    9ea0:	4462                	lw	s0,24(sp)
    9ea2:	854a                	mv	a0,s2
    9ea4:	44d2                	lw	s1,20(sp)
    9ea6:	4942                	lw	s2,16(sp)
    9ea8:	49b2                	lw	s3,12(sp)
    9eaa:	6105                	addi	sp,sp,32
    9eac:	8082                	ret
    9eae:	84ae                	mv	s1,a1
    9eb0:	89aa                	mv	s3,a0
    9eb2:	20d1                	jal	9f76 <_malloc_usable_size_r>
    9eb4:	8926                	mv	s2,s1
    9eb6:	fe8574e3          	bgeu	a0,s0,9e9e <_realloc_r+0x1e>
    9eba:	85a2                	mv	a1,s0
    9ebc:	854e                	mv	a0,s3
    9ebe:	a18ff0ef          	jal	ra,90d6 <_malloc_r>
    9ec2:	892a                	mv	s2,a0
    9ec4:	dd69                	beqz	a0,9e9e <_realloc_r+0x1e>
    9ec6:	85a6                	mv	a1,s1
    9ec8:	8622                	mv	a2,s0
    9eca:	f3ffc0ef          	jal	ra,6e08 <memcpy>
    9ece:	85a6                	mv	a1,s1
    9ed0:	854e                	mv	a0,s3
    9ed2:	95cff0ef          	jal	ra,902e <_free_r>
    9ed6:	b7e1                	j	9e9e <_realloc_r+0x1e>

00009ed8 <_read_r>:
_read_r():
    9ed8:	1141                	addi	sp,sp,-16
    9eda:	c422                	sw	s0,8(sp)
    9edc:	842a                	mv	s0,a0
    9ede:	852e                	mv	a0,a1
    9ee0:	85b2                	mv	a1,a2
    9ee2:	8636                	mv	a2,a3
    9ee4:	9a01a023          	sw	zero,-1632(gp) # 200003d8 <errno>
    9ee8:	c606                	sw	ra,12(sp)
    9eea:	2145                	jal	a38a <_read>
    9eec:	57fd                	li	a5,-1
    9eee:	00f51763          	bne	a0,a5,9efc <_read_r+0x24>
    9ef2:	9a018793          	addi	a5,gp,-1632 # 200003d8 <errno>
    9ef6:	439c                	lw	a5,0(a5)
    9ef8:	c391                	beqz	a5,9efc <_read_r+0x24>
    9efa:	c01c                	sw	a5,0(s0)
    9efc:	40b2                	lw	ra,12(sp)
    9efe:	4422                	lw	s0,8(sp)
    9f00:	0141                	addi	sp,sp,16
    9f02:	8082                	ret

00009f04 <__ascii_wctomb>:
__ascii_wctomb():
    9f04:	cd91                	beqz	a1,9f20 <__ascii_wctomb+0x1c>
    9f06:	0ff00793          	li	a5,255
    9f0a:	00c7f763          	bgeu	a5,a2,9f18 <__ascii_wctomb+0x14>
    9f0e:	08a00793          	li	a5,138
    9f12:	c11c                	sw	a5,0(a0)
    9f14:	557d                	li	a0,-1
    9f16:	8082                	ret
    9f18:	00c58023          	sb	a2,0(a1)
    9f1c:	4505                	li	a0,1
    9f1e:	8082                	ret
    9f20:	4501                	li	a0,0
    9f22:	8082                	ret

00009f24 <_fstat_r>:
_fstat_r():
    9f24:	1141                	addi	sp,sp,-16
    9f26:	c422                	sw	s0,8(sp)
    9f28:	842a                	mv	s0,a0
    9f2a:	852e                	mv	a0,a1
    9f2c:	85b2                	mv	a1,a2
    9f2e:	9a01a023          	sw	zero,-1632(gp) # 200003d8 <errno>
    9f32:	c606                	sw	ra,12(sp)
    9f34:	290d                	jal	a366 <_fstat>
    9f36:	57fd                	li	a5,-1
    9f38:	00f51763          	bne	a0,a5,9f46 <_fstat_r+0x22>
    9f3c:	9a018793          	addi	a5,gp,-1632 # 200003d8 <errno>
    9f40:	439c                	lw	a5,0(a5)
    9f42:	c391                	beqz	a5,9f46 <_fstat_r+0x22>
    9f44:	c01c                	sw	a5,0(s0)
    9f46:	40b2                	lw	ra,12(sp)
    9f48:	4422                	lw	s0,8(sp)
    9f4a:	0141                	addi	sp,sp,16
    9f4c:	8082                	ret

00009f4e <_isatty_r>:
_isatty_r():
    9f4e:	1141                	addi	sp,sp,-16
    9f50:	c422                	sw	s0,8(sp)
    9f52:	842a                	mv	s0,a0
    9f54:	852e                	mv	a0,a1
    9f56:	9a01a023          	sw	zero,-1632(gp) # 200003d8 <errno>
    9f5a:	c606                	sw	ra,12(sp)
    9f5c:	2919                	jal	a372 <_isatty>
    9f5e:	57fd                	li	a5,-1
    9f60:	00f51763          	bne	a0,a5,9f6e <_isatty_r+0x20>
    9f64:	9a018793          	addi	a5,gp,-1632 # 200003d8 <errno>
    9f68:	439c                	lw	a5,0(a5)
    9f6a:	c391                	beqz	a5,9f6e <_isatty_r+0x20>
    9f6c:	c01c                	sw	a5,0(s0)
    9f6e:	40b2                	lw	ra,12(sp)
    9f70:	4422                	lw	s0,8(sp)
    9f72:	0141                	addi	sp,sp,16
    9f74:	8082                	ret

00009f76 <_malloc_usable_size_r>:
_malloc_usable_size_r():
    9f76:	ffc5a783          	lw	a5,-4(a1)
    9f7a:	ffc78513          	addi	a0,a5,-4
    9f7e:	0007d563          	bgez	a5,9f88 <_malloc_usable_size_r+0x12>
    9f82:	95aa                	add	a1,a1,a0
    9f84:	419c                	lw	a5,0(a1)
    9f86:	953e                	add	a0,a0,a5
    9f88:	8082                	ret

00009f8a <__trunctfdf2>:
__trunctfdf2():
    9f8a:	1141                	addi	sp,sp,-16
    9f8c:	00052883          	lw	a7,0(a0)
    9f90:	4158                	lw	a4,4(a0)
    9f92:	4514                	lw	a3,8(a0)
    9f94:	455c                	lw	a5,12(a0)
    9f96:	00202373          	frrm	t1
    9f9a:	65a1                	lui	a1,0x8
    9f9c:	fff58f93          	addi	t6,a1,-1 # 7fff <_dtoa_r+0x54b>
    9fa0:	0107d613          	srli	a2,a5,0x10
    9fa4:	01d8d513          	srli	a0,a7,0x1d
    9fa8:	01d75e93          	srli	t4,a4,0x1d
    9fac:	00369e13          	slli	t3,a3,0x3
    9fb0:	01f67f33          	and	t5,a2,t6
    9fb4:	070e                	slli	a4,a4,0x3
    9fb6:	01079813          	slli	a6,a5,0x10
    9fba:	8f49                	or	a4,a4,a0
    9fbc:	01085813          	srli	a6,a6,0x10
    9fc0:	001f0513          	addi	a0,t5,1
    9fc4:	01ceee33          	or	t3,t4,t3
    9fc8:	088e                	slli	a7,a7,0x3
    9fca:	15f9                	addi	a1,a1,-2
    9fcc:	82f5                	srli	a3,a3,0x1d
    9fce:	080e                	slli	a6,a6,0x3
    9fd0:	8de9                	and	a1,a1,a0
    9fd2:	c472                	sw	t3,8(sp)
    9fd4:	c23a                	sw	a4,4(sp)
    9fd6:	c046                	sw	a7,0(sp)
    9fd8:	01f7d513          	srli	a0,a5,0x1f
    9fdc:	0106e833          	or	a6,a3,a6
    9fe0:	cd9d                	beqz	a1,a01e <__trunctfdf2+0x94>
    9fe2:	7671                	lui	a2,0xffffc
    9fe4:	40060613          	addi	a2,a2,1024 # ffffc400 <_eusrstack+0xdffec400>
    9fe8:	967a                	add	a2,a2,t5
    9fea:	7fe00793          	li	a5,2046
    9fee:	0cc7d663          	bge	a5,a2,a0ba <__trunctfdf2+0x130>
    9ff2:	18030f63          	beqz	t1,a190 <__trunctfdf2+0x206>
    9ff6:	478d                	li	a5,3
    9ff8:	2ef30963          	beq	t1,a5,a2ea <__trunctfdf2+0x360>
    9ffc:	4789                	li	a5,2
    9ffe:	32f30263          	beq	t1,a5,a322 <__trunctfdf2+0x398>
    a002:	32031263          	bnez	t1,a326 <__trunctfdf2+0x39c>
    a006:	7fe00613          	li	a2,2046
    a00a:	468d                	li	a3,3
    a00c:	4801                	li	a6,0
    a00e:	4895                	li	a7,5
    a010:	01d81793          	slli	a5,a6,0x1d
    a014:	828d                	srli	a3,a3,0x3
    a016:	8edd                	or	a3,a3,a5
    a018:	00385793          	srli	a5,a6,0x3
    a01c:	aa91                	j	a170 <__trunctfdf2+0x1e6>
    a01e:	01c76733          	or	a4,a4,t3
    a022:	01076733          	or	a4,a4,a6
    a026:	01176733          	or	a4,a4,a7
    a02a:	060f1563          	bnez	t5,a094 <__trunctfdf2+0x10a>
    a02e:	12070d63          	beqz	a4,a168 <__trunctfdf2+0x1de>
    a032:	4789                	li	a5,2
    a034:	2cf30363          	beq	t1,a5,a2fa <__trunctfdf2+0x370>
    a038:	478d                	li	a5,3
    a03a:	28f30b63          	beq	t1,a5,a2d0 <__trunctfdf2+0x346>
    a03e:	2c030663          	beqz	t1,a30a <__trunctfdf2+0x380>
    a042:	4685                	li	a3,1
    a044:	4601                	li	a2,0
    a046:	4801                	li	a6,0
    a048:	4585                	li	a1,1
    a04a:	4709                	li	a4,2
    a04c:	1ce30063          	beq	t1,a4,a20c <__trunctfdf2+0x282>
    a050:	470d                	li	a4,3
    a052:	1ee30763          	beq	t1,a4,a240 <__trunctfdf2+0x2b6>
    a056:	1c030663          	beqz	t1,a222 <__trunctfdf2+0x298>
    a05a:	88ae                	mv	a7,a1
    a05c:	2c058e63          	beqz	a1,a338 <__trunctfdf2+0x3ae>
    a060:	0028e893          	ori	a7,a7,2
    a064:	00881793          	slli	a5,a6,0x8
    a068:	fa07d4e3          	bgez	a5,a010 <__trunctfdf2+0x86>
    a06c:	0605                	addi	a2,a2,1
    a06e:	7ff00713          	li	a4,2047
    a072:	16e60b63          	beq	a2,a4,a1e8 <__trunctfdf2+0x25e>
    a076:	ff8007b7          	lui	a5,0xff800
    a07a:	17fd                	addi	a5,a5,-1
    a07c:	00f877b3          	and	a5,a6,a5
    a080:	0036d713          	srli	a4,a3,0x3
    a084:	01d79693          	slli	a3,a5,0x1d
    a088:	07a6                	slli	a5,a5,0x9
    a08a:	7ff67613          	andi	a2,a2,2047
    a08e:	8ed9                	or	a3,a3,a4
    a090:	83b1                	srli	a5,a5,0xc
    a092:	a0dd                	j	a178 <__trunctfdf2+0x1ee>
    a094:	10070963          	beqz	a4,a1a6 <__trunctfdf2+0x21c>
    a098:	4881                	li	a7,0
    a09a:	01ff1963          	bne	t5,t6,a0ac <__trunctfdf2+0x122>
    a09e:	000408b7          	lui	a7,0x40
    a0a2:	01187833          	and	a6,a6,a7
    a0a6:	00183893          	seqz	a7,a6
    a0aa:	0892                	slli	a7,a7,0x4
    a0ac:	4501                	li	a0,0
    a0ae:	7ff00613          	li	a2,2047
    a0b2:	000807b7          	lui	a5,0x80
    a0b6:	4681                	li	a3,0
    a0b8:	a0c1                	j	a178 <__trunctfdf2+0x1ee>
    a0ba:	0ec04f63          	bgtz	a2,a1b8 <__trunctfdf2+0x22e>
    a0be:	fcc00793          	li	a5,-52
    a0c2:	f6f648e3          	blt	a2,a5,a032 <__trunctfdf2+0xa8>
    a0c6:	03d00793          	li	a5,61
    a0ca:	40c78633          	sub	a2,a5,a2
    a0ce:	40565793          	srai	a5,a2,0x5
    a0d2:	000806b7          	lui	a3,0x80
    a0d6:	00d86833          	or	a6,a6,a3
    a0da:	00279593          	slli	a1,a5,0x2
    a0de:	870a                	mv	a4,sp
    a0e0:	4681                	li	a3,0
    a0e2:	c642                	sw	a6,12(sp)
    a0e4:	00b10e33          	add	t3,sp,a1
    a0e8:	0711                	addi	a4,a4,4
    a0ea:	8a7d                	andi	a2,a2,31
    a0ec:	0116e6b3          	or	a3,a3,a7
    a0f0:	00ee0963          	beq	t3,a4,a102 <__trunctfdf2+0x178>
    a0f4:	00072883          	lw	a7,0(a4)
    a0f8:	0711                	addi	a4,a4,4
    a0fa:	0116e6b3          	or	a3,a3,a7
    a0fe:	feee1be3          	bne	t3,a4,a0f4 <__trunctfdf2+0x16a>
    a102:	470d                	li	a4,3
    a104:	8f1d                	sub	a4,a4,a5
    a106:	14060663          	beqz	a2,a252 <__trunctfdf2+0x2c8>
    a10a:	01010893          	addi	a7,sp,16
    a10e:	98ae                	add	a7,a7,a1
    a110:	ff08a883          	lw	a7,-16(a7) # 3fff0 <_data_lma+0x3539c>
    a114:	02000e93          	li	t4,32
    a118:	40ce8eb3          	sub	t4,t4,a2
    a11c:	01d898b3          	sll	a7,a7,t4
    a120:	0116e6b3          	or	a3,a3,a7
    a124:	20070763          	beqz	a4,a332 <__trunctfdf2+0x3a8>
    a128:	070a                	slli	a4,a4,0x2
    a12a:	958a                	add	a1,a1,sp
    a12c:	00e10f33          	add	t5,sp,a4
    a130:	888a                	mv	a7,sp
    a132:	0005a803          	lw	a6,0(a1)
    a136:	0045ae03          	lw	t3,4(a1)
    a13a:	0891                	addi	a7,a7,4
    a13c:	00c85833          	srl	a6,a6,a2
    a140:	01de1e33          	sll	t3,t3,t4
    a144:	01c86833          	or	a6,a6,t3
    a148:	ff08ae23          	sw	a6,-4(a7)
    a14c:	0591                	addi	a1,a1,4
    a14e:	ff1f12e3          	bne	t5,a7,a132 <__trunctfdf2+0x1a8>
    a152:	4832                	lw	a6,12(sp)
    a154:	4591                	li	a1,4
    a156:	40f587b3          	sub	a5,a1,a5
    a15a:	080c                	addi	a1,sp,16
    a15c:	972e                	add	a4,a4,a1
    a15e:	00c85833          	srl	a6,a6,a2
    a162:	ff072823          	sw	a6,-16(a4)
    a166:	a221                	j	a26e <__trunctfdf2+0x2e4>
    a168:	4681                	li	a3,0
    a16a:	4881                	li	a7,0
    a16c:	4781                	li	a5,0
    a16e:	4601                	li	a2,0
    a170:	07b2                	slli	a5,a5,0xc
    a172:	83b1                	srli	a5,a5,0xc
    a174:	7ff67613          	andi	a2,a2,2047
    a178:	07b2                	slli	a5,a5,0xc
    a17a:	0652                	slli	a2,a2,0x14
    a17c:	83b1                	srli	a5,a5,0xc
    a17e:	057e                	slli	a0,a0,0x1f
    a180:	8fd1                	or	a5,a5,a2
    a182:	8fc9                	or	a5,a5,a0
    a184:	85be                	mv	a1,a5
    a186:	8536                	mv	a0,a3
    a188:	00089b63          	bnez	a7,a19e <__trunctfdf2+0x214>
    a18c:	0141                	addi	sp,sp,16
    a18e:	8082                	ret
    a190:	4895                	li	a7,5
    a192:	057e                	slli	a0,a0,0x1f
    a194:	7ff007b7          	lui	a5,0x7ff00
    a198:	8fc9                	or	a5,a5,a0
    a19a:	85be                	mv	a1,a5
    a19c:	4501                	li	a0,0
    a19e:	0018a073          	csrs	fflags,a7
    a1a2:	0141                	addi	sp,sp,16
    a1a4:	8082                	ret
    a1a6:	01f51793          	slli	a5,a0,0x1f
    a1aa:	7ff00737          	lui	a4,0x7ff00
    a1ae:	8fd9                	or	a5,a5,a4
    a1b0:	4501                	li	a0,0
    a1b2:	85be                	mv	a1,a5
    a1b4:	0141                	addi	sp,sp,16
    a1b6:	8082                	ret
    a1b8:	00471693          	slli	a3,a4,0x4
    a1bc:	0116e8b3          	or	a7,a3,a7
    a1c0:	01c75693          	srli	a3,a4,0x1c
    a1c4:	004e1713          	slli	a4,t3,0x4
    a1c8:	011038b3          	snez	a7,a7
    a1cc:	8ed9                	or	a3,a3,a4
    a1ce:	00d8e6b3          	or	a3,a7,a3
    a1d2:	01ce5793          	srli	a5,t3,0x1c
    a1d6:	0812                	slli	a6,a6,0x4
    a1d8:	0076f893          	andi	a7,a3,7
    a1dc:	0107e833          	or	a6,a5,a6
    a1e0:	4581                	li	a1,0
    a1e2:	e60894e3          	bnez	a7,a04a <__trunctfdf2+0xc0>
    a1e6:	b52d                	j	a010 <__trunctfdf2+0x86>
    a1e8:	06030263          	beqz	t1,a24c <__trunctfdf2+0x2c2>
    a1ec:	478d                	li	a5,3
    a1ee:	04f30e63          	beq	t1,a5,a24a <__trunctfdf2+0x2c0>
    a1f2:	4789                	li	a5,2
    a1f4:	0cf30a63          	beq	t1,a5,a2c8 <__trunctfdf2+0x33e>
    a1f8:	0058e893          	ori	a7,a7,5
    a1fc:	20000737          	lui	a4,0x20000
    a200:	56fd                	li	a3,-1
    a202:	fff70793          	addi	a5,a4,-1 # 1fffffff <_data_lma+0x1fff53ab>
    a206:	7fe00613          	li	a2,2046
    a20a:	b79d                	j	a170 <__trunctfdf2+0x1e6>
    a20c:	4885                	li	a7,1
    a20e:	c519                	beqz	a0,a21c <__trunctfdf2+0x292>
    a210:	00868793          	addi	a5,a3,8 # 80008 <_data_lma+0x753b4>
    a214:	00d7b6b3          	sltu	a3,a5,a3
    a218:	9836                	add	a6,a6,a3
    a21a:	86be                	mv	a3,a5
    a21c:	e40592e3          	bnez	a1,a060 <__trunctfdf2+0xd6>
    a220:	b591                	j	a064 <__trunctfdf2+0xda>
    a222:	00f6f793          	andi	a5,a3,15
    a226:	4711                	li	a4,4
    a228:	4885                	li	a7,1
    a22a:	fee789e3          	beq	a5,a4,a21c <__trunctfdf2+0x292>
    a22e:	00468793          	addi	a5,a3,4
    a232:	00d7b6b3          	sltu	a3,a5,a3
    a236:	9836                	add	a6,a6,a3
    a238:	86be                	mv	a3,a5
    a23a:	e20593e3          	bnez	a1,a060 <__trunctfdf2+0xd6>
    a23e:	b51d                	j	a064 <__trunctfdf2+0xda>
    a240:	4885                	li	a7,1
    a242:	d579                	beqz	a0,a210 <__trunctfdf2+0x286>
    a244:	e0059ee3          	bnez	a1,a060 <__trunctfdf2+0xd6>
    a248:	bd31                	j	a064 <__trunctfdf2+0xda>
    a24a:	f55d                	bnez	a0,a1f8 <__trunctfdf2+0x26e>
    a24c:	0058e893          	ori	a7,a7,5
    a250:	b789                	j	a192 <__trunctfdf2+0x208>
    a252:	880a                	mv	a6,sp
    a254:	00b808b3          	add	a7,a6,a1
    a258:	0008a883          	lw	a7,0(a7)
    a25c:	0811                	addi	a6,a6,4
    a25e:	0605                	addi	a2,a2,1
    a260:	ff182e23          	sw	a7,-4(a6)
    a264:	fec758e3          	bge	a4,a2,a254 <__trunctfdf2+0x2ca>
    a268:	4711                	li	a4,4
    a26a:	40f707b3          	sub	a5,a4,a5
    a26e:	078a                	slli	a5,a5,0x2
    a270:	978a                	add	a5,a5,sp
    a272:	0818                	addi	a4,sp,16
    a274:	0007a023          	sw	zero,0(a5) # 7ff00000 <_eusrstack+0x5fef0000>
    a278:	0791                	addi	a5,a5,4
    a27a:	fee79de3          	bne	a5,a4,a274 <__trunctfdf2+0x2ea>
    a27e:	4782                	lw	a5,0(sp)
    a280:	4812                	lw	a6,4(sp)
    a282:	00d036b3          	snez	a3,a3
    a286:	8edd                	or	a3,a3,a5
    a288:	0106e7b3          	or	a5,a3,a6
    a28c:	ec078ee3          	beqz	a5,a168 <__trunctfdf2+0x1de>
    a290:	01f6d713          	srli	a4,a3,0x1f
    a294:	00169593          	slli	a1,a3,0x1
    a298:	00181793          	slli	a5,a6,0x1
    a29c:	863a                	mv	a2,a4
    a29e:	0075f893          	andi	a7,a1,7
    a2a2:	00f60733          	add	a4,a2,a5
    a2a6:	0076f793          	andi	a5,a3,7
    a2aa:	08089963          	bnez	a7,a33c <__trunctfdf2+0x3b2>
    a2ae:	01000637          	lui	a2,0x1000
    a2b2:	8f71                	and	a4,a4,a2
    a2b4:	00173593          	seqz	a1,a4
    a2b8:	4601                	li	a2,0
    a2ba:	d80798e3          	bnez	a5,a04a <__trunctfdf2+0xc0>
    a2be:	da0713e3          	bnez	a4,a064 <__trunctfdf2+0xda>
    a2c2:	da0881e3          	beqz	a7,a064 <__trunctfdf2+0xda>
    a2c6:	bb69                	j	a060 <__trunctfdf2+0xd6>
    a2c8:	0058e893          	ori	a7,a7,5
    a2cc:	d905                	beqz	a0,a1fc <__trunctfdf2+0x272>
    a2ce:	b5d1                	j	a192 <__trunctfdf2+0x208>
    a2d0:	4785                	li	a5,1
    a2d2:	4701                	li	a4,0
    a2d4:	4589                	li	a1,2
    a2d6:	4801                	li	a6,0
    a2d8:	4685                	li	a3,1
    a2da:	4885                	li	a7,1
    a2dc:	f969                	bnez	a0,a2ae <__trunctfdf2+0x324>
    a2de:	ff85b613          	sltiu	a2,a1,-8
    a2e2:	00164613          	xori	a2,a2,1
    a2e6:	9732                	add	a4,a4,a2
    a2e8:	b7d9                	j	a2ae <__trunctfdf2+0x324>
    a2ea:	ea0503e3          	beqz	a0,a190 <__trunctfdf2+0x206>
    a2ee:	7fe00613          	li	a2,2046
    a2f2:	587d                	li	a6,-1
    a2f4:	56fd                	li	a3,-1
    a2f6:	4895                	li	a7,5
    a2f8:	b3b5                	j	a064 <__trunctfdf2+0xda>
    a2fa:	4785                	li	a5,1
    a2fc:	4701                	li	a4,0
    a2fe:	4589                	li	a1,2
    a300:	4801                	li	a6,0
    a302:	4685                	li	a3,1
    a304:	4885                	li	a7,1
    a306:	d545                	beqz	a0,a2ae <__trunctfdf2+0x324>
    a308:	bfd9                	j	a2de <__trunctfdf2+0x354>
    a30a:	4785                	li	a5,1
    a30c:	4701                	li	a4,0
    a30e:	4589                	li	a1,2
    a310:	4801                	li	a6,0
    a312:	4685                	li	a3,1
    a314:	ffc5b613          	sltiu	a2,a1,-4
    a318:	00164613          	xori	a2,a2,1
    a31c:	9732                	add	a4,a4,a2
    a31e:	4885                	li	a7,1
    a320:	b779                	j	a2ae <__trunctfdf2+0x324>
    a322:	e60517e3          	bnez	a0,a190 <__trunctfdf2+0x206>
    a326:	7fe00613          	li	a2,2046
    a32a:	56fd                	li	a3,-1
    a32c:	587d                	li	a6,-1
    a32e:	4895                	li	a7,5
    a330:	bb35                	j	a06c <__trunctfdf2+0xe2>
    a332:	4785                	li	a5,1
    a334:	4701                	li	a4,0
    a336:	b515                	j	a15a <__trunctfdf2+0x1d0>
    a338:	4885                	li	a7,1
    a33a:	b32d                	j	a064 <__trunctfdf2+0xda>
    a33c:	4609                	li	a2,2
    a33e:	fcc303e3          	beq	t1,a2,a304 <__trunctfdf2+0x37a>
    a342:	460d                	li	a2,3
    a344:	f8c30be3          	beq	t1,a2,a2da <__trunctfdf2+0x350>
    a348:	4885                	li	a7,1
    a34a:	f60312e3          	bnez	t1,a2ae <__trunctfdf2+0x324>
    a34e:	00f5f613          	andi	a2,a1,15
    a352:	4e11                	li	t3,4
    a354:	f5c60de3          	beq	a2,t3,a2ae <__trunctfdf2+0x324>
    a358:	bf75                	j	a314 <__trunctfdf2+0x38a>

0000a35a <_close>:
_close():
    a35a:	05800793          	li	a5,88
    a35e:	9af1a023          	sw	a5,-1632(gp) # 200003d8 <errno>
    a362:	557d                	li	a0,-1
    a364:	8082                	ret

0000a366 <_fstat>:
_fstat():
    a366:	05800793          	li	a5,88
    a36a:	9af1a023          	sw	a5,-1632(gp) # 200003d8 <errno>
    a36e:	557d                	li	a0,-1
    a370:	8082                	ret

0000a372 <_isatty>:
_isatty():
    a372:	05800793          	li	a5,88
    a376:	9af1a023          	sw	a5,-1632(gp) # 200003d8 <errno>
    a37a:	4501                	li	a0,0
    a37c:	8082                	ret

0000a37e <_lseek>:
_lseek():
    a37e:	05800793          	li	a5,88
    a382:	9af1a023          	sw	a5,-1632(gp) # 200003d8 <errno>
    a386:	557d                	li	a0,-1
    a388:	8082                	ret

0000a38a <_read>:
_read():
    a38a:	05800793          	li	a5,88
    a38e:	9af1a023          	sw	a5,-1632(gp) # 200003d8 <errno>
    a392:	557d                	li	a0,-1
    a394:	8082                	ret

0000a396 <_sbrk>:
_sbrk():
    a396:	86c18793          	addi	a5,gp,-1940 # 200002a4 <heap_end.1520>
    a39a:	439c                	lw	a5,0(a5)
    a39c:	c791                	beqz	a5,a3a8 <_sbrk+0x12>
    a39e:	953e                	add	a0,a0,a5
    a3a0:	86a1a623          	sw	a0,-1940(gp) # 200002a4 <heap_end.1520>
    a3a4:	853e                	mv	a0,a5
    a3a6:	8082                	ret
    a3a8:	9a418793          	addi	a5,gp,-1628 # 200003dc <_ebss>
    a3ac:	953e                	add	a0,a0,a5
    a3ae:	86a1a623          	sw	a0,-1940(gp) # 200002a4 <heap_end.1520>
    a3b2:	853e                	mv	a0,a5
    a3b4:	8082                	ret
    a3b6:	0000                	unimp
    a3b8:	552f3a43          	0x552f3a43
    a3bc:	73726573          	csrrsi	a0,0x737,4
    a3c0:	3136382f          	0x3136382f
    a3c4:	3235                	jal	9cf0 <_lseek_r+0x1c>
    a3c6:	7365442f          	0x7365442f
    a3ca:	706f746b          	0x706f746b
    a3ce:	b3a5b52f          	0xb3a5b52f
    a3d2:	d4b5                	beqz	s1,a33e <__trunctfdf2+0x3b4>
    a3d4:	d2bd                	beqz	a3,a33a <__trunctfdf2+0x3b0>
    a3d6:	2fb0                	fld	fa2,88(a5)
    a3d8:	d2ce                	sw	s3,100(sp)
    a3da:	c4b5                	beqz	s1,a446 <_sbrk+0xb0>
    a3dc:	c2fab42f          	0xc2fab42f
    a3e0:	caf7b5eb          	0xcaf7b5eb
    a3e4:	2fd4                	fld	fa3,152(a5)
    a3e6:	6942                	flw	fs2,16(sp)
    a3e8:	6c637963          	bgeu	t1,t1,aaba <__mprec_tens+0x62>
    a3ec:	5f65                	li	t5,-7
    a3ee:	65646f43          	0x65646f43
    a3f2:	62696c2f          	0x62696c2f
    a3f6:	6172                	flw	ft2,28(sp)
    a3f8:	6972                	flw	fs2,28(sp)
    a3fa:	7365                	lui	t1,0xffff9
    a3fc:	5f667a2f          	0x5f667a2f
    a400:	7264                	flw	fs1,100(a2)
    a402:	7669                	lui	a2,0xffffa
    a404:	7265                	lui	tp,0xffff9
    a406:	5f667a2f          	0x5f667a2f
    a40a:	7264                	flw	fs1,100(a2)
    a40c:	7669                	lui	a2,0xffffa
    a40e:	7265                	lui	tp,0xffff9
    a410:	755f 7261 2e74      	0x2e747261755f
    a416:	4d520063          	beq	tp,s5,a8d6 <__clz_tab+0xaa>
    a41a:	47470043          	fmadd.q	ft0,fa4,fs4,fs0,rne
    a41e:	0041                	c.nop	16
    a420:	d9f1                	beqz	a1,a3f4 <_sbrk+0x5e>
    a422:	4206                	lw	tp,64(sp)
    a424:	0014                	0x14
    a426:	0a00                	addi	s0,sp,272
    a428:	0005                	c.nop	1
    a42a:	0064                	addi	s1,sp,12
    a42c:	0000                	unimp
    a42e:	ea60                	fsw	fs0,84(a2)
    a430:	0000                	unimp
    a432:	07d0                	addi	a2,sp,964
    a434:	0000                	unimp
    a436:	00c8                	addi	a0,sp,68
    a438:	0000                	unimp
    a43a:	edb8                	fsw	fa4,88(a1)
    a43c:	d9f1                	beqz	a1,a410 <_sbrk+0x7a>
    a43e:	0106                	slli	sp,sp,0x1
    a440:	00f00003          	lb	zero,15(zero) # f <_sinit+0xf>
    a444:	fb01                	bnez	a4,a354 <__trunctfdf2+0x3ca>
    a446:	0010                	0x10
    a448:	d9f1                	beqz	a1,a41c <_sbrk+0x86>
    a44a:	0106                	slli	sp,sp,0x1
    a44c:	05f00003          	lb	zero,95(zero) # 5f <_einit+0x27>
    a450:	0001                	nop
    a452:	001a                	c.slli	zero,0x6
    a454:	d9f1                	beqz	a1,a428 <_sbrk+0x92>
    a456:	0106                	slli	sp,sp,0x1
    a458:	01f00003          	lb	zero,31(zero) # 1f <_sinit+0x1f>
    a45c:	fb00                	fsw	fs0,48(a4)
    a45e:	0011                	c.nop	4
    a460:	d9f1                	beqz	a1,a434 <_sbrk+0x9e>
    a462:	0106                	slli	sp,sp,0x1
    a464:	02f00003          	lb	zero,47(zero) # 2f <_sinit+0x2f>
    a468:	fc00                	fsw	fs0,56(s0)
    a46a:	d9f10013          	addi	zero,sp,-609
    a46e:	0106                	slli	sp,sp,0x1
    a470:	03f00003          	lb	zero,63(zero) # 3f <_einit+0x7>
    a474:	fd00                	fsw	fs0,56(a0)
    a476:	0015                	c.nop	5
    a478:	d9f1                	beqz	a1,a44c <_sbrk+0xb6>
    a47a:	0106                	slli	sp,sp,0x1
    a47c:	04f00003          	lb	zero,79(zero) # 4f <_einit+0x17>
    a480:	fe00                	fsw	fs0,56(a2)
    a482:	d9f10017          	auipc	zero,0xd9f10
    a486:	0106                	slli	sp,sp,0x1
    a488:	06f00003          	lb	zero,111(zero) # 6f <_einit+0x37>
    a48c:	0000                	unimp
    a48e:	d9f1001b          	0xd9f1001b
    a492:	0106                	slli	sp,sp,0x1
    a494:	07f00003          	lb	zero,127(zero) # 7f <_einit+0x47>
    a498:	0100                	addi	s0,sp,128
    a49a:	001d                	c.nop	7
    a49c:	d9f1                	beqz	a1,a470 <_sbrk+0xda>
    a49e:	0106                	slli	sp,sp,0x1
    a4a0:	08f00003          	lb	zero,143(zero) # 8f <_einit+0x57>
    a4a4:	0200                	addi	s0,sp,256
    a4a6:	001f d9f1 0106      	0x106d9f1001f
    a4ac:	40f00003          	lb	zero,1039(zero) # 40f <uart_write_byte+0xb>
    a4b0:	3a00                	fld	fs0,48(a2)
    a4b2:	d9f1008f          	0xd9f1008f
    a4b6:	0106                	slli	sp,sp,0x1
    a4b8:	20f00003          	lb	zero,527(zero) # 20f <memset+0xf>
    a4bc:	1a00                	addi	s0,sp,304
    a4be:	4000004f          	fnmadd.s	ft0,ft0,ft0,fs0,rne
    a4c2:	461c                	lw	a5,8(a2)
	...
    a4cc:	0000                	unimp
    a4ce:	404e                	0x404e
    a4d0:	0000                	unimp
    a4d2:	0000                	unimp
    a4d4:	4f80                	lw	s0,24(a5)
    a4d6:	4122                	lw	sp,8(sp)
    a4d8:	cccd                	beqz	s1,a592 <_sbrk+0x1fc>
    a4da:	3fec                	fld	fa1,248(a5)
    a4dc:	0000                	unimp
    a4de:	0000                	unimp
    a4e0:	0000                	unimp
    a4e2:	4000                	lw	s0,0(s0)
    a4e4:	54a6                	lw	s1,104(sp)
    a4e6:	4158                	lw	a4,4(a0)
    a4e8:	2d28                	fld	fa0,88(a0)
    a4ea:	5444                	lw	s1,44(s0)
    a4ec:	400921fb          	0x400921fb
    a4f0:	0000                	unimp
    a4f2:	0000                	unimp
    a4f4:	8000                	0x8000
    a4f6:	4066                	0x4066
    a4f8:	0000                	unimp
    a4fa:	0000                	unimp
    a4fc:	0000                	unimp
    a4fe:	4000                	lw	s0,0(s0)
    a500:	0000                	unimp
    a502:	0000                	unimp
    a504:	8000                	0x8000
    a506:	4076                	0x4076
    a508:	6966                	flw	fs2,88(sp)
    a50a:	656c                	flw	fa1,76(a0)
    a50c:	203a                	fld	ft0,392(sp)
    a50e:	7325                	lui	t1,0xfffe9
    a510:	0000                	unimp
    a512:	0000                	unimp
    a514:	6966                	flw	fs2,88(sp)
    a516:	656c                	flw	fa1,76(a0)
    a518:	203a                	fld	ft0,392(sp)
    a51a:	646d                	lui	s0,0x1b
    a51c:	73252f6b          	0x73252f6b
    a520:	0000                	unimp
    a522:	0000                	unimp
    a524:	696c                	flw	fa1,84(a0)
    a526:	656e                	flw	fa0,216(sp)
    a528:	203a                	fld	ft0,392(sp)
    a52a:	6425                	lui	s0,0x9
    a52c:	0000                	unimp
    a52e:	0000                	unimp
    a530:	0a0d                	addi	s4,s4,3
    a532:	6966                	flw	fs2,88(sp)
    a534:	656c                	flw	fa1,76(a0)
    a536:	2520                	fld	fs0,72(a0)
    a538:	696c2073          	csrs	0x696,s8
    a53c:	656e                	flw	fa0,216(sp)
    a53e:	2520                	fld	fs0,72(a0)
    a540:	3a64                	fld	fs1,240(a2)
    a542:	2520                	fld	fs0,72(a0)
    a544:	0a0d2e73          	csrrs	t3,0xa0,s10
    a548:	0000                	unimp
    a54a:	0000                	unimp
    a54c:	0a0d                	addi	s4,s4,3
    a54e:	6966                	flw	fs2,88(sp)
    a550:	656c                	flw	fa1,76(a0)
    a552:	2520                	fld	fs0,72(a0)
    a554:	696c2073          	csrs	0x696,s8
    a558:	656e                	flw	fa0,216(sp)
    a55a:	2520                	fld	fs0,72(a0)
    a55c:	2e64                	fld	fs1,216(a2)
    a55e:	0a0d                	addi	s4,s4,3
    a560:	0000                	unimp
    a562:	0000                	unimp
    a564:	7341                	lui	t1,0xffff0
    a566:	74726573          	csrrsi	a0,0x747,4
    a56a:	6520                	flw	fs0,72(a0)
    a56c:	7272                	flw	ft4,60(sp)
    a56e:	0000726f          	jal	tp,1156e <_data_lma+0x691a>
    a572:	0000                	unimp
    a574:	6f4c                	flw	fa1,28(a4)
    a576:	656d2067          	0x656d2067
    a57a:	67617373          	csrrci	t1,0x676,2
    a57e:	0065                	c.nop	25
    a580:	552f3a43          	0x552f3a43
    a584:	73726573          	csrrsi	a0,0x737,4
    a588:	3136382f          	0x3136382f
    a58c:	3235                	jal	9eb8 <_realloc_r+0x38>
    a58e:	7365442f          	0x7365442f
    a592:	706f746b          	0x706f746b
    a596:	b3a5b52f          	0xb3a5b52f
    a59a:	d4b5                	beqz	s1,a506 <_sbrk+0x170>
    a59c:	d2bd                	beqz	a3,a502 <_sbrk+0x16c>
    a59e:	2fb0                	fld	fa2,88(a5)
    a5a0:	d2ce                	sw	s3,100(sp)
    a5a2:	c4b5                	beqz	s1,a60e <_sbrk+0x278>
    a5a4:	c2fab42f          	0xc2fab42f
    a5a8:	caf7b5eb          	0xcaf7b5eb
    a5ac:	2fd4                	fld	fa3,152(a5)
    a5ae:	6942                	flw	fs2,16(sp)
    a5b0:	6c637963          	bgeu	t1,t1,ac82 <_data_lma+0x2e>
    a5b4:	5f65                	li	t5,-7
    a5b6:	65646f43          	0x65646f43
    a5ba:	62696c2f          	0x62696c2f
    a5be:	6172                	flw	ft2,28(sp)
    a5c0:	6972                	flw	fs2,28(sp)
    a5c2:	7365                	lui	t1,0xffff9
    a5c4:	5f667a2f          	0x5f667a2f
    a5c8:	6d6d6f63          	bltu	s10,s6,aca6 <_data_lma+0x52>
    a5cc:	7a2f6e6f          	jal	t3,100d6e <_data_lma+0xf611a>
    a5d0:	5f66                	lw	t5,120(sp)
    a5d2:	6d6d6f63          	bltu	s10,s6,acb0 <_data_lma+0x5c>
    a5d6:	665f6e6f          	jal	t3,10143a <_data_lma+0xf67e6>
    a5da:	6669                	lui	a2,0x1a
    a5dc:	00632e6f          	jal	t3,3c5e2 <_data_lma+0x3198e>
    a5e0:	420a                	lw	tp,128(sp)
    a5e2:	7561                	lui	a0,0xffff8
    a5e4:	2064                	fld	fs1,192(s0)
    a5e6:	6152                	flw	ft2,20(sp)
    a5e8:	6574                	flw	fa3,76(a0)
    a5ea:	3d20                	fld	fs0,120(a0)
    a5ec:	2520                	fld	fs0,72(a0)
    a5ee:	0064                	addi	s1,sp,12
    a5f0:	640a                	flw	fs0,128(sp)
    a5f2:	7461                	lui	s0,0xffff8
    a5f4:	4261                	li	tp,24
    a5f6:	7469                	lui	s0,0xffffa
    a5f8:	3d20                	fld	fs0,120(a0)
    a5fa:	2520                	fld	fs0,72(a0)
    a5fc:	0064                	addi	s1,sp,12
    a5fe:	0000                	unimp
    a600:	730a                	flw	ft6,160(sp)
    a602:	6f74                	flw	fa3,92(a4)
    a604:	4270                	lw	a2,68(a2)
    a606:	7469                	lui	s0,0xffffa
    a608:	3d20                	fld	fs0,120(a0)
    a60a:	2520                	fld	fs0,72(a0)
    a60c:	0064                	addi	s1,sp,12
    a60e:	0000                	unimp
    a610:	700a                	flw	ft0,160(sp)
    a612:	7261                	lui	tp,0xffff8
    a614:	7469                	lui	s0,0xffffa
    a616:	5479                	li	s0,-2
    a618:	7079                	c.lui	zero,0xffffe
    a61a:	2065                	jal	a6c2 <MyProdInfoHD+0x2>
    a61c:	203d                	jal	a64a <MyDevDescrHD+0x6>
    a61e:	6425                	lui	s0,0x9
    a620:	0000                	unimp
	...

0000a624 <uart_index>:
    a624:	3800 4001 4400 4000 4800 4000 4c00 4000     .8.@.D.@.H.@.L.@
    a634:	5000 4000 1800 4000 1c00 4000 2000 4000     .P.@...@...@. .@

0000a644 <MyDevDescrHD>:
    a644:	0112 0200 0002 0800 1a86 5722 0100 0201     .........."W....
    a654:	0103 0000                                   ....

0000a658 <MyCfgDescrHD>:
    a658:	0209 0043 0102 a000 0932 0004 0100 0202     ..C.....2.......
    a668:	0001 2405 1000 0501 0124 0000 2404 0202     ...$....$....$..
    a678:	2405 0006 0701 8105 4003 ff00 0409 0001     .$.......@......
    a688:	0a02 0000 0700 0205 4002 0000 0507 0282     .........@......
    a698:	0040 0000                                   @...

0000a69c <MyReportDescHD>:
    a69c:	0314 0032 0030 0031 0037 002d 0032 002d     ..2.0.1.7.-.2.-.
    a6ac:	0032 0035                                   2.5.

0000a6b0 <MyManuInfoHD>:
    a6b0:	030e 0077 0063 0068 002e 0063 006e 0000     ..w.c.h...c.n...

0000a6c0 <MyProdInfoHD>:
    a6c0:	030c 0043 0048 0033 0030 0037               ..C.H.3.0.7.

0000a6cc <MySerNumInfoHD>:
    a6cc:	0316 0030 0031 0032 0033 0034 0035 0036     ..0.1.2.3.4.5.6.
    a6dc:	0037 0038 0039 0000                         7.8.9...

0000a6e4 <MyUSBQUADescHD>:
    a6e4:	060a 0200 00ff 40ff 0001 0000 40b2 0000     .......@.....@..
    a6f4:	3e06 0000 41c0 0000 3efc 0000 41c0 0000     .>...A...>...A..
    a704:	3d9c 0000 3bde 0000 41c0 0000 3dc0 0000     .=...;...A...=..
    a714:	3de8 0000 4076 0000 4096 0000 3d26 0000     .=..v@...@..&=..
    a724:	3c10 0000 3c22 0000 3c36 0000 3d26 0000     .<.."<..6<..&=..
    a734:	3d26 0000 3cce 0000 3ce0 0000 3d26 0000     &=...<...<..&=..
    a744:	3d26 0000 3d26 0000 3d26 0000 3d26 0000     &=..&=..&=..&=..
    a754:	3d26 0000 3d26 0000 3d1e 0000 3d26 0000     &=..&=...=..&=..
    a764:	3d26 0000 3d26 0000 3d26 0000 3d26 0000     &=..&=..&=..&=..
    a774:	3d26 0000 3d26 0000 3d26 0000 3d26 0000     &=..&=..&=..&=..
    a784:	3d26 0000 3d26 0000 3d26 0000 3d26 0000     &=..&=..&=..&=..
    a794:	3d26 0000 3d26 0000 3d26 0000 3d26 0000     &=..&=..&=..&=..
    a7a4:	3d26 0000 3cbc 0000 ab56 ffff ab3e ffff     &=...<..V...>...
    a7b4:	aaca ffff ab3a ffff aaca ffff ae4a ffff     ....:.......J...
    a7c4:	aaca ffff ab3a ffff ab30 ffff ab30 ffff     ....:...0...0...
    a7d4:	ae4a ffff ab3a ffff aad2 ffff aad2 ffff     J...:...........
    a7e4:	aad2 ffff aa90 ffff b4c2 ffff b37c ffff     ............|...
    a7f4:	b37c ffff b37a ffff b382 ffff b382 ffff     |...z...........
    a804:	b7ae ffff b37a ffff b382 ffff b7ae ffff     ....z...........
    a814:	b382 ffff b37a ffff b4ae ffff b4ae ffff     ....z...........
    a824:	b4ae ffff b4a0 ffff                         ........

0000a82c <__clz_tab>:
    a82c:	0100 0202 0303 0303 0404 0404 0404 0404     ................
    a83c:	0505 0505 0505 0505 0505 0505 0505 0505     ................
    a84c:	0606 0606 0606 0606 0606 0606 0606 0606     ................
    a85c:	0606 0606 0606 0606 0606 0606 0606 0606     ................
    a86c:	0707 0707 0707 0707 0707 0707 0707 0707     ................
    a87c:	0707 0707 0707 0707 0707 0707 0707 0707     ................
    a88c:	0707 0707 0707 0707 0707 0707 0707 0707     ................
    a89c:	0707 0707 0707 0707 0707 0707 0707 0707     ................
    a8ac:	0808 0808 0808 0808 0808 0808 0808 0808     ................
    a8bc:	0808 0808 0808 0808 0808 0808 0808 0808     ................
    a8cc:	0808 0808 0808 0808 0808 0808 0808 0808     ................
    a8dc:	0808 0808 0808 0808 0808 0808 0808 0808     ................
    a8ec:	0808 0808 0808 0808 0808 0808 0808 0808     ................
    a8fc:	0808 0808 0808 0808 0808 0808 0808 0808     ................
    a90c:	0808 0808 0808 0808 0808 0808 0808 0808     ................
    a91c:	0808 0808 0808 0808 0808 0808 0808 0808     ................
    a92c:	0000 0000 ffff ffff ffff 7fef 4e49 0046     ............INF.
    a93c:	6e69 0066 414e 004e 616e 006e 0030 0000     inf.NAN.nan.0...
    a94c:	3130 3332 3534 3736 3938 4241 4443 4645     0123456789ABCDEF
    a95c:	0000 0000 3130 3332 3534 3736 3938 6261     ....0123456789ab
    a96c:	6463 6665 0000 0000 0000 0000 0000 0000     cdef............
    a97c:	0000 3ff8 4361 636f 87a7 3fd2 c8b3 8b60     ...?aCoc...?..`.
    a98c:	8a28 3fc6 79fb 509f 4413 3fd3 0000 0000     (..?.y.P.D.?....
    a99c:	0000 3ff0 0000 0000 0000 4024 0000 0000     ...?......$@....
    a9ac:	0000 401c 0000 0000 0000 4014 0000 0000     ...@.......@....
    a9bc:	0000 3fe0 6e49 6966 696e 7974 0000 0000     ...?Infinity....
    a9cc:	614e 004e                                   NaN.

0000a9d0 <__sf_fake_stderr>:
	...

0000a9f0 <__sf_fake_stdin>:
	...

0000aa10 <__sf_fake_stdout>:
	...

0000aa30 <__mprec_bigtens>:
    aa30:	8000 37e0 c379 4341 6e17 b505 b8b5 4693     ...7y.AC.n.....F
    aa40:	f9f5 e93f 4f03 4d38 1d32 f930 7748 5a82     ..?..O8M2.0.Hw.Z
    aa50:	bf3c 7f73 4fdd 7515                         <.s..O.u

0000aa58 <__mprec_tens>:
    aa58:	0000 0000 0000 3ff0 0000 0000 0000 4024     .......?......$@
    aa68:	0000 0000 0000 4059 0000 0000 4000 408f     ......Y@.....@.@
    aa78:	0000 0000 8800 40c3 0000 0000 6a00 40f8     .......@.....j.@
    aa88:	0000 0000 8480 412e 0000 0000 12d0 4163     .......A......cA
    aa98:	0000 0000 d784 4197 0000 0000 cd65 41cd     .......A....e..A
    aaa8:	0000 2000 a05f 4202 0000 e800 4876 4237     ... _..B....vH7B
    aab8:	0000 a200 1a94 426d 0000 e540 309c 42a2     ......mB..@..0.B
    aac8:	0000 1e90 bcc4 42d6 0000 2634 6bf5 430c     .......B..4&.k.C
    aad8:	8000 37e0 c379 4341 a000 85d8 3457 4376     ...7y.AC....W4vC
    aae8:	c800 674e c16d 43ab 3d00 6091 58e4 43e1     ..Ngm..C.=.`.X.C
    aaf8:	8c40 78b5 af1d 4415 ef50 d6e2 1ae4 444b     @..x...DP.....KD
    ab08:	d592 064d f0cf 4480 4af6 c7e1 2d02 44b5     ..M....D.J...-.D
    ab18:	9db4 79d9 7843 44ea                         ...yCx.D

0000ab20 <p05.3321>:
    ab20:	0005 0000 0019 0000 007d 0000 2d23 2b30     ........}...#-0+
    ab30:	0020 0000 6c68 004c 6665 4567 4746 0000      ...hlL.efgEFG..
    ab40:	0043 0000 4f50 4953 0058 0000 002e 0000     C...POSIX.......

0000ab50 <_ctype_>:
    ab50:	2000 2020 2020 2020 2020 2828 2828 2028     .         ((((( 
    ab60:	2020 2020 2020 2020 2020 2020 2020 2020                     
    ab70:	8820 1010 1010 1010 1010 1010 1010 1010      ...............
    ab80:	0410 0404 0404 0404 0404 1004 1010 1010     ................
    ab90:	1010 4141 4141 4141 0101 0101 0101 0101     ..AAAAAA........
    aba0:	0101 0101 0101 0101 0101 0101 1010 1010     ................
    abb0:	1010 4242 4242 4242 0202 0202 0202 0202     ..BBBBBB........
    abc0:	0202 0202 0202 0202 0202 0202 1010 1010     ................
    abd0:	0020 0000 0000 0000 0000 0000 0000 0000      ...............
	...
